Archive member included because of file (symbol)

/opt/microchip/xc32/v1.32/pic32mx/lib/libmchp_peripheral_32MX795F512L.a(soft_reset_lib.o)
                              build/debug/production/src/main.o (SoftReset)
/opt/microchip/xc32/v1.32/pic32mx/lib/libmchp_peripheral_32MX795F512L.a(pcache.o)
                              build/debug/production/src/main.o (CheKseg0CacheOn)
/opt/microchip/xc32/v1.32/pic32mx/lib/libmchp_peripheral_32MX795F512L.a(int_configure_system_lib.o)
                              build/debug/production/_ext/2096855388/SCpic32.o (INTConfigureSystem)
/opt/microchip/xc32/v1.32/pic32mx/lib/libmchp_peripheral_32MX795F512L.a(int_enable_interrupts_lib.o)
                              build/debug/production/_ext/2096855388/SCpic32.o (INTEnableInterrupts)
/opt/microchip/xc32/v1.32/pic32mx/lib/libmchp_peripheral_32MX795F512L.a(int_disable_interrupts_lib.o)
                              build/debug/production/src/main.o (INTDisableInterrupts)
/opt/microchip/xc32/v1.32/pic32mx/lib/libmchp_peripheral_32MX795F512L.a(int_restore_interrupts_lib.o)
                              build/debug/production/src/main.o (INTRestoreInterrupts)
/opt/microchip/xc32/v1.32/pic32mx/lib/libmchp_peripheral_32MX795F512L.a(int_enable_mv_int_lib.o)
                              build/debug/production/_ext/870548313/usb_device.o (INTEnableSystemMultiVectoredInt)
/opt/microchip/xc32/v1.32/pic32mx/lib/libmchp_peripheral_32MX795F512L.a(int_tbl_lib.o)
                              build/debug/production/_ext/870548313/usb_device.o (INTClearFlag)
/opt/microchip/xc32/v1.32/pic32mx/lib/libmchp_peripheral_32MX795F512L.a(spi_chn_close_lib.o)
                              build/debug/production/src/spi.o (SpiChnClose)
/opt/microchip/xc32/v1.32/pic32mx/lib/libmchp_peripheral_32MX795F512L.a(spi_chn_open_lib.o)
                              build/debug/production/src/spi.o (SpiChnOpen)
/opt/microchip/xc32/v1.32/pic32mx/lib/libmchp_peripheral_32MX795F512L.a(spi_io_tbl_libp.o)
                              /opt/microchip/xc32/v1.32/pic32mx/lib/libmchp_peripheral_32MX795F512L.a(spi_chn_close_lib.o) (_SpiIoTbl)
/opt/microchip/xc32/v1.32/pic32mx/lib/libmchp_peripheral_32MX795F512L.a(spi_map_tbl_libp.o)
                              /opt/microchip/xc32/v1.32/pic32mx/lib/libmchp_peripheral_32MX795F512L.a(spi_chn_close_lib.o) (_SpiMapTbl)
/opt/microchip/xc32/v1.32/pic32mx/lib/libmchp_peripheral_32MX795F512L.a(spi_getc_spi1_lib_legacy.o)
                              build/debug/production/_ext/71113213/SD-SPI.o (getcSPI1)
/opt/microchip/xc32/v1.32/pic32mx/lib/libmchp_peripheral_32MX795F512L.a(spi_open_spi1_lib_legacy.o)
                              build/debug/production/_ext/71113213/SD-SPI.o (OpenSPI1)
/opt/microchip/xc32/v1.32/pic32mx/lib/libmchp_peripheral_32MX795F512L.a(spi_brg_tbl_lib_legacy.o)
                              /opt/microchip/xc32/v1.32/pic32mx/lib/libmchp_peripheral_32MX795F512L.a(spi_open_spi1_lib_legacy.o) (_SpiBrgConvTbl)
/opt/microchip/xc32/v1.32/pic32mx/lib/libmchp_peripheral_32MX795F512L.a(nvm_erase_page_lib.o)
                              build/debug/production/src/nvm.o (NVMErasePage)
/opt/microchip/xc32/v1.32/pic32mx/lib/libmchp_peripheral_32MX795F512L.a(nvm_operation_lib.o)
                              /opt/microchip/xc32/v1.32/pic32mx/lib/libmchp_peripheral_32MX795F512L.a(nvm_erase_page_lib.o) (_NVMOperation)
/opt/microchip/xc32/v1.32/pic32mx/lib/libmchp_peripheral_32MX795F512L.a(nvm_program_lib.o)
                              build/debug/production/src/nvm.o (NVMProgram)
/opt/microchip/xc32/v1.32/pic32mx/lib/libmchp_peripheral_32MX795F512L.a(nvm_write_row_lib.o)
                              /opt/microchip/xc32/v1.32/pic32mx/lib/libmchp_peripheral_32MX795F512L.a(nvm_program_lib.o) (NVMWriteRow)
/opt/microchip/xc32/v1.32/pic32mx/lib/libmchp_peripheral_32MX795F512L.a(port_reset_pins_lib.o)
                              /opt/microchip/xc32/v1.32/pic32mx/lib/libmchp_peripheral_32MX795F512L.a(spi_chn_close_lib.o) (PORTResetPins)
/opt/microchip/xc32/v1.32/pic32mx/lib/libmchp_peripheral_32MX795F512L.a(port_set_pins_digital_in_lib.o)
                              /opt/microchip/xc32/v1.32/pic32mx/lib/libmchp_peripheral_32MX795F512L.a(spi_chn_open_lib.o) (PORTSetPinsDigitalIn)
/opt/microchip/xc32/v1.32/pic32mx/lib/libmchp_peripheral_32MX795F512L.a(port_set_pins_digital_out_lib.o)
                              /opt/microchip/xc32/v1.32/pic32mx/lib/libmchp_peripheral_32MX795F512L.a(spi_chn_open_lib.o) (PORTSetPinsDigitalOut)
/opt/microchip/xc32/v1.32/pic32mx/lib/libmchp_peripheral_32MX795F512L.a(_ports_tbl_libp.o)
                              /opt/microchip/xc32/v1.32/pic32mx/lib/libmchp_peripheral_32MX795F512L.a(port_reset_pins_lib.o) (PortRegTbl)
/opt/microchip/xc32/v1.32/bin/bin/../../lib/gcc/pic32mx/4.5.2/libgcc.a(_udivdi3.o)
                              build/debug/production/_ext/2096855388/SClib.o (__udivdi3)
/opt/microchip/xc32/v1.32/bin/bin/../../lib/gcc/pic32mx/4.5.2/../../../../pic32mx/lib/libpic32.a(memcmp.o)
                              build/debug/production/src/nvm.o (memcmp)
/opt/microchip/xc32/v1.32/bin/bin/../../lib/gcc/pic32mx/4.5.2/../../../../pic32mx/lib/libpic32.a(memcpy.o)
                              build/debug/production/src/main.o (memcpy)
/opt/microchip/xc32/v1.32/bin/bin/../../lib/gcc/pic32mx/4.5.2/../../../../pic32mx/lib/libpic32.a(memset.o)
                              build/debug/production/_ext/71113213/FSIO.o (memset)
/opt/microchip/xc32/v1.32/bin/bin/../../lib/gcc/pic32mx/4.5.2/../../../../pic32mx/lib/libpic32.a(strcmp.o)
                              build/debug/production/src/main.o (strcmp)
/opt/microchip/xc32/v1.32/bin/bin/../../lib/gcc/pic32mx/4.5.2/../../../../pic32mx/lib/libpic32.a(strcpy.o)
                              build/debug/production/_ext/71113213/FSIO.o (strcpy)
/opt/microchip/xc32/v1.32/bin/bin/../../lib/gcc/pic32mx/4.5.2/../../../../pic32mx/lib/libpic32.a(strlen.o)
                              build/debug/production/_ext/71113213/FSIO.o (strlen)
/opt/microchip/xc32/v1.32/bin/bin/../../lib/gcc/pic32mx/4.5.2/../../../../pic32mx/lib/libpic32.a(default-bootstrap-exception-handler.o)
                              /opt/microchip/xc32/v1.32/bin/bin/../../lib/gcc/pic32mx/4.5.2/../../../../pic32mx/lib/./proc/32MX795F512L/crt0_mips32r2.o (_bootstrap_exception_handler)
/opt/microchip/xc32/v1.32/bin/bin/../../lib/gcc/pic32mx/4.5.2/../../../../pic32mx/lib/libpic32.a(default-on-reset.o)
                              /opt/microchip/xc32/v1.32/bin/bin/../../lib/gcc/pic32mx/4.5.2/../../../../pic32mx/lib/./proc/32MX795F512L/crt0_mips32r2.o (_on_reset)
/opt/microchip/xc32/v1.32/bin/bin/../../lib/gcc/pic32mx/4.5.2/../../../../pic32mx/lib/libpic32.a(default-on-bootstrap.o)
                              /opt/microchip/xc32/v1.32/bin/bin/../../lib/gcc/pic32mx/4.5.2/../../../../pic32mx/lib/./proc/32MX795F512L/crt0_mips32r2.o (_on_bootstrap)
/opt/microchip/xc32/v1.32/bin/bin/../../lib/gcc/pic32mx/4.5.2/../../../../pic32mx/lib/libpic32.a(default-nmi-handler.o)
                              /opt/microchip/xc32/v1.32/bin/bin/../../lib/gcc/pic32mx/4.5.2/../../../../pic32mx/lib/./proc/32MX795F512L/crt0_mips32r2.o (_nmi_handler)
/opt/microchip/xc32/v1.32/bin/bin/../../lib/gcc/pic32mx/4.5.2/../../../../pic32mx/lib/libpic32.a(general-exception.o)
                              /opt/microchip/xc32/v1.32/bin/bin/../../lib/gcc/pic32mx/4.5.2/../../../../pic32mx/lib/./proc/32MX795F512L/crt0_mips32r2.o (_general_exception_context)
/opt/microchip/xc32/v1.32/bin/bin/../../lib/gcc/pic32mx/4.5.2/../../../../pic32mx/lib/libpic32.a(vector0.o)
                              /opt/microchip/xc32/v1.32/bin/bin/../../lib/gcc/pic32mx/4.5.2/../../../../pic32mx/lib/./proc/32MX795F512L/default_isr_vectors.o (__vector_dispatch_0)
/opt/microchip/xc32/v1.32/bin/bin/../../lib/gcc/pic32mx/4.5.2/../../../../pic32mx/lib/libpic32.a(vector1.o)
                              /opt/microchip/xc32/v1.32/bin/bin/../../lib/gcc/pic32mx/4.5.2/../../../../pic32mx/lib/./proc/32MX795F512L/default_isr_vectors.o (__vector_dispatch_1)
/opt/microchip/xc32/v1.32/bin/bin/../../lib/gcc/pic32mx/4.5.2/../../../../pic32mx/lib/libpic32.a(vector2.o)
                              /opt/microchip/xc32/v1.32/bin/bin/../../lib/gcc/pic32mx/4.5.2/../../../../pic32mx/lib/./proc/32MX795F512L/default_isr_vectors.o (__vector_dispatch_2)
/opt/microchip/xc32/v1.32/bin/bin/../../lib/gcc/pic32mx/4.5.2/../../../../pic32mx/lib/libpic32.a(vector3.o)
                              /opt/microchip/xc32/v1.32/bin/bin/../../lib/gcc/pic32mx/4.5.2/../../../../pic32mx/lib/./proc/32MX795F512L/default_isr_vectors.o (__vector_dispatch_3)
/opt/microchip/xc32/v1.32/bin/bin/../../lib/gcc/pic32mx/4.5.2/../../../../pic32mx/lib/libpic32.a(vector5.o)
                              /opt/microchip/xc32/v1.32/bin/bin/../../lib/gcc/pic32mx/4.5.2/../../../../pic32mx/lib/./proc/32MX795F512L/default_isr_vectors.o (__vector_dispatch_5)
/opt/microchip/xc32/v1.32/bin/bin/../../lib/gcc/pic32mx/4.5.2/../../../../pic32mx/lib/libpic32.a(vector6.o)
                              /opt/microchip/xc32/v1.32/bin/bin/../../lib/gcc/pic32mx/4.5.2/../../../../pic32mx/lib/./proc/32MX795F512L/default_isr_vectors.o (__vector_dispatch_6)
/opt/microchip/xc32/v1.32/bin/bin/../../lib/gcc/pic32mx/4.5.2/../../../../pic32mx/lib/libpic32.a(vector7.o)
                              /opt/microchip/xc32/v1.32/bin/bin/../../lib/gcc/pic32mx/4.5.2/../../../../pic32mx/lib/./proc/32MX795F512L/default_isr_vectors.o (__vector_dispatch_7)
/opt/microchip/xc32/v1.32/bin/bin/../../lib/gcc/pic32mx/4.5.2/../../../../pic32mx/lib/libpic32.a(vector8.o)
                              /opt/microchip/xc32/v1.32/bin/bin/../../lib/gcc/pic32mx/4.5.2/../../../../pic32mx/lib/./proc/32MX795F512L/default_isr_vectors.o (__vector_dispatch_8)
/opt/microchip/xc32/v1.32/bin/bin/../../lib/gcc/pic32mx/4.5.2/../../../../pic32mx/lib/libpic32.a(vector9.o)
                              /opt/microchip/xc32/v1.32/bin/bin/../../lib/gcc/pic32mx/4.5.2/../../../../pic32mx/lib/./proc/32MX795F512L/default_isr_vectors.o (__vector_dispatch_9)
/opt/microchip/xc32/v1.32/bin/bin/../../lib/gcc/pic32mx/4.5.2/../../../../pic32mx/lib/libpic32.a(vector10.o)
                              /opt/microchip/xc32/v1.32/bin/bin/../../lib/gcc/pic32mx/4.5.2/../../../../pic32mx/lib/./proc/32MX795F512L/default_isr_vectors.o (__vector_dispatch_10)
/opt/microchip/xc32/v1.32/bin/bin/../../lib/gcc/pic32mx/4.5.2/../../../../pic32mx/lib/libpic32.a(vector11.o)
                              /opt/microchip/xc32/v1.32/bin/bin/../../lib/gcc/pic32mx/4.5.2/../../../../pic32mx/lib/./proc/32MX795F512L/default_isr_vectors.o (__vector_dispatch_11)
/opt/microchip/xc32/v1.32/bin/bin/../../lib/gcc/pic32mx/4.5.2/../../../../pic32mx/lib/libpic32.a(vector13.o)
                              /opt/microchip/xc32/v1.32/bin/bin/../../lib/gcc/pic32mx/4.5.2/../../../../pic32mx/lib/./proc/32MX795F512L/default_isr_vectors.o (__vector_dispatch_13)
/opt/microchip/xc32/v1.32/bin/bin/../../lib/gcc/pic32mx/4.5.2/../../../../pic32mx/lib/libpic32.a(vector14.o)
                              /opt/microchip/xc32/v1.32/bin/bin/../../lib/gcc/pic32mx/4.5.2/../../../../pic32mx/lib/./proc/32MX795F512L/default_isr_vectors.o (__vector_dispatch_14)
/opt/microchip/xc32/v1.32/bin/bin/../../lib/gcc/pic32mx/4.5.2/../../../../pic32mx/lib/libpic32.a(vector15.o)
                              /opt/microchip/xc32/v1.32/bin/bin/../../lib/gcc/pic32mx/4.5.2/../../../../pic32mx/lib/./proc/32MX795F512L/default_isr_vectors.o (__vector_dispatch_15)
/opt/microchip/xc32/v1.32/bin/bin/../../lib/gcc/pic32mx/4.5.2/../../../../pic32mx/lib/libpic32.a(vector17.o)
                              /opt/microchip/xc32/v1.32/bin/bin/../../lib/gcc/pic32mx/4.5.2/../../../../pic32mx/lib/./proc/32MX795F512L/default_isr_vectors.o (__vector_dispatch_17)
/opt/microchip/xc32/v1.32/bin/bin/../../lib/gcc/pic32mx/4.5.2/../../../../pic32mx/lib/libpic32.a(vector18.o)
                              /opt/microchip/xc32/v1.32/bin/bin/../../lib/gcc/pic32mx/4.5.2/../../../../pic32mx/lib/./proc/32MX795F512L/default_isr_vectors.o (__vector_dispatch_18)
/opt/microchip/xc32/v1.32/bin/bin/../../lib/gcc/pic32mx/4.5.2/../../../../pic32mx/lib/libpic32.a(vector19.o)
                              /opt/microchip/xc32/v1.32/bin/bin/../../lib/gcc/pic32mx/4.5.2/../../../../pic32mx/lib/./proc/32MX795F512L/default_isr_vectors.o (__vector_dispatch_19)
/opt/microchip/xc32/v1.32/bin/bin/../../lib/gcc/pic32mx/4.5.2/../../../../pic32mx/lib/libpic32.a(vector20.o)
                              /opt/microchip/xc32/v1.32/bin/bin/../../lib/gcc/pic32mx/4.5.2/../../../../pic32mx/lib/./proc/32MX795F512L/default_isr_vectors.o (__vector_dispatch_20)
/opt/microchip/xc32/v1.32/bin/bin/../../lib/gcc/pic32mx/4.5.2/../../../../pic32mx/lib/libpic32.a(vector21.o)
                              /opt/microchip/xc32/v1.32/bin/bin/../../lib/gcc/pic32mx/4.5.2/../../../../pic32mx/lib/./proc/32MX795F512L/default_isr_vectors.o (__vector_dispatch_21)
/opt/microchip/xc32/v1.32/bin/bin/../../lib/gcc/pic32mx/4.5.2/../../../../pic32mx/lib/libpic32.a(vector23.o)
                              /opt/microchip/xc32/v1.32/bin/bin/../../lib/gcc/pic32mx/4.5.2/../../../../pic32mx/lib/./proc/32MX795F512L/default_isr_vectors.o (__vector_dispatch_23)
/opt/microchip/xc32/v1.32/bin/bin/../../lib/gcc/pic32mx/4.5.2/../../../../pic32mx/lib/libpic32.a(vector24.o)
                              /opt/microchip/xc32/v1.32/bin/bin/../../lib/gcc/pic32mx/4.5.2/../../../../pic32mx/lib/./proc/32MX795F512L/default_isr_vectors.o (__vector_dispatch_24)
/opt/microchip/xc32/v1.32/bin/bin/../../lib/gcc/pic32mx/4.5.2/../../../../pic32mx/lib/libpic32.a(vector25.o)
                              /opt/microchip/xc32/v1.32/bin/bin/../../lib/gcc/pic32mx/4.5.2/../../../../pic32mx/lib/./proc/32MX795F512L/default_isr_vectors.o (__vector_dispatch_25)
/opt/microchip/xc32/v1.32/bin/bin/../../lib/gcc/pic32mx/4.5.2/../../../../pic32mx/lib/libpic32.a(vector26.o)
                              /opt/microchip/xc32/v1.32/bin/bin/../../lib/gcc/pic32mx/4.5.2/../../../../pic32mx/lib/./proc/32MX795F512L/default_isr_vectors.o (__vector_dispatch_26)
/opt/microchip/xc32/v1.32/bin/bin/../../lib/gcc/pic32mx/4.5.2/../../../../pic32mx/lib/libpic32.a(vector27.o)
                              /opt/microchip/xc32/v1.32/bin/bin/../../lib/gcc/pic32mx/4.5.2/../../../../pic32mx/lib/./proc/32MX795F512L/default_isr_vectors.o (__vector_dispatch_27)
/opt/microchip/xc32/v1.32/bin/bin/../../lib/gcc/pic32mx/4.5.2/../../../../pic32mx/lib/libpic32.a(vector28.o)
                              /opt/microchip/xc32/v1.32/bin/bin/../../lib/gcc/pic32mx/4.5.2/../../../../pic32mx/lib/./proc/32MX795F512L/default_isr_vectors.o (__vector_dispatch_28)
/opt/microchip/xc32/v1.32/bin/bin/../../lib/gcc/pic32mx/4.5.2/../../../../pic32mx/lib/libpic32.a(vector29.o)
                              /opt/microchip/xc32/v1.32/bin/bin/../../lib/gcc/pic32mx/4.5.2/../../../../pic32mx/lib/./proc/32MX795F512L/default_isr_vectors.o (__vector_dispatch_29)
/opt/microchip/xc32/v1.32/bin/bin/../../lib/gcc/pic32mx/4.5.2/../../../../pic32mx/lib/libpic32.a(vector30.o)
                              /opt/microchip/xc32/v1.32/bin/bin/../../lib/gcc/pic32mx/4.5.2/../../../../pic32mx/lib/./proc/32MX795F512L/default_isr_vectors.o (__vector_dispatch_30)
/opt/microchip/xc32/v1.32/bin/bin/../../lib/gcc/pic32mx/4.5.2/../../../../pic32mx/lib/libpic32.a(vector31.o)
                              /opt/microchip/xc32/v1.32/bin/bin/../../lib/gcc/pic32mx/4.5.2/../../../../pic32mx/lib/./proc/32MX795F512L/default_isr_vectors.o (__vector_dispatch_31)
/opt/microchip/xc32/v1.32/bin/bin/../../lib/gcc/pic32mx/4.5.2/../../../../pic32mx/lib/libpic32.a(vector32.o)
                              /opt/microchip/xc32/v1.32/bin/bin/../../lib/gcc/pic32mx/4.5.2/../../../../pic32mx/lib/./proc/32MX795F512L/default_isr_vectors.o (__vector_dispatch_32)
/opt/microchip/xc32/v1.32/bin/bin/../../lib/gcc/pic32mx/4.5.2/../../../../pic32mx/lib/libpic32.a(vector33.o)
                              /opt/microchip/xc32/v1.32/bin/bin/../../lib/gcc/pic32mx/4.5.2/../../../../pic32mx/lib/./proc/32MX795F512L/default_isr_vectors.o (__vector_dispatch_33)
/opt/microchip/xc32/v1.32/bin/bin/../../lib/gcc/pic32mx/4.5.2/../../../../pic32mx/lib/libpic32.a(vector34.o)
                              /opt/microchip/xc32/v1.32/bin/bin/../../lib/gcc/pic32mx/4.5.2/../../../../pic32mx/lib/./proc/32MX795F512L/default_isr_vectors.o (__vector_dispatch_34)
/opt/microchip/xc32/v1.32/bin/bin/../../lib/gcc/pic32mx/4.5.2/../../../../pic32mx/lib/libpic32.a(vector35.o)
                              /opt/microchip/xc32/v1.32/bin/bin/../../lib/gcc/pic32mx/4.5.2/../../../../pic32mx/lib/./proc/32MX795F512L/default_isr_vectors.o (__vector_dispatch_35)
/opt/microchip/xc32/v1.32/bin/bin/../../lib/gcc/pic32mx/4.5.2/../../../../pic32mx/lib/libpic32.a(vector36.o)
                              /opt/microchip/xc32/v1.32/bin/bin/../../lib/gcc/pic32mx/4.5.2/../../../../pic32mx/lib/./proc/32MX795F512L/default_isr_vectors.o (__vector_dispatch_36)
/opt/microchip/xc32/v1.32/bin/bin/../../lib/gcc/pic32mx/4.5.2/../../../../pic32mx/lib/libpic32.a(vector37.o)
                              /opt/microchip/xc32/v1.32/bin/bin/../../lib/gcc/pic32mx/4.5.2/../../../../pic32mx/lib/./proc/32MX795F512L/default_isr_vectors.o (__vector_dispatch_37)
/opt/microchip/xc32/v1.32/bin/bin/../../lib/gcc/pic32mx/4.5.2/../../../../pic32mx/lib/libpic32.a(vector38.o)
                              /opt/microchip/xc32/v1.32/bin/bin/../../lib/gcc/pic32mx/4.5.2/../../../../pic32mx/lib/./proc/32MX795F512L/default_isr_vectors.o (__vector_dispatch_38)
/opt/microchip/xc32/v1.32/bin/bin/../../lib/gcc/pic32mx/4.5.2/../../../../pic32mx/lib/libpic32.a(vector39.o)
                              /opt/microchip/xc32/v1.32/bin/bin/../../lib/gcc/pic32mx/4.5.2/../../../../pic32mx/lib/./proc/32MX795F512L/default_isr_vectors.o (__vector_dispatch_39)
/opt/microchip/xc32/v1.32/bin/bin/../../lib/gcc/pic32mx/4.5.2/../../../../pic32mx/lib/libpic32.a(vector40.o)
                              /opt/microchip/xc32/v1.32/bin/bin/../../lib/gcc/pic32mx/4.5.2/../../../../pic32mx/lib/./proc/32MX795F512L/default_isr_vectors.o (__vector_dispatch_40)
/opt/microchip/xc32/v1.32/bin/bin/../../lib/gcc/pic32mx/4.5.2/../../../../pic32mx/lib/libpic32.a(vector41.o)
                              /opt/microchip/xc32/v1.32/bin/bin/../../lib/gcc/pic32mx/4.5.2/../../../../pic32mx/lib/./proc/32MX795F512L/default_isr_vectors.o (__vector_dispatch_41)
/opt/microchip/xc32/v1.32/bin/bin/../../lib/gcc/pic32mx/4.5.2/../../../../pic32mx/lib/libpic32.a(vector42.o)
                              /opt/microchip/xc32/v1.32/bin/bin/../../lib/gcc/pic32mx/4.5.2/../../../../pic32mx/lib/./proc/32MX795F512L/default_isr_vectors.o (__vector_dispatch_42)
/opt/microchip/xc32/v1.32/bin/bin/../../lib/gcc/pic32mx/4.5.2/../../../../pic32mx/lib/libpic32.a(vector43.o)
                              /opt/microchip/xc32/v1.32/bin/bin/../../lib/gcc/pic32mx/4.5.2/../../../../pic32mx/lib/./proc/32MX795F512L/default_isr_vectors.o (__vector_dispatch_43)
/opt/microchip/xc32/v1.32/bin/bin/../../lib/gcc/pic32mx/4.5.2/../../../../pic32mx/lib/libpic32.a(vector44.o)
                              /opt/microchip/xc32/v1.32/bin/bin/../../lib/gcc/pic32mx/4.5.2/../../../../pic32mx/lib/./proc/32MX795F512L/default_isr_vectors.o (__vector_dispatch_44)
/opt/microchip/xc32/v1.32/bin/bin/../../lib/gcc/pic32mx/4.5.2/../../../../pic32mx/lib/libpic32.a(vector46.o)
                              /opt/microchip/xc32/v1.32/bin/bin/../../lib/gcc/pic32mx/4.5.2/../../../../pic32mx/lib/./proc/32MX795F512L/default_isr_vectors.o (__vector_dispatch_46)
/opt/microchip/xc32/v1.32/bin/bin/../../lib/gcc/pic32mx/4.5.2/../../../../pic32mx/lib/libpic32.a(vector47.o)
                              /opt/microchip/xc32/v1.32/bin/bin/../../lib/gcc/pic32mx/4.5.2/../../../../pic32mx/lib/./proc/32MX795F512L/default_isr_vectors.o (__vector_dispatch_47)
/opt/microchip/xc32/v1.32/bin/bin/../../lib/gcc/pic32mx/4.5.2/../../../../pic32mx/lib/libpic32.a(vector48.o)
                              /opt/microchip/xc32/v1.32/bin/bin/../../lib/gcc/pic32mx/4.5.2/../../../../pic32mx/lib/./proc/32MX795F512L/default_isr_vectors.o (__vector_dispatch_48)
/opt/microchip/xc32/v1.32/bin/bin/../../lib/gcc/pic32mx/4.5.2/../../../../pic32mx/lib/libpic32.a(vector49.o)
                              /opt/microchip/xc32/v1.32/bin/bin/../../lib/gcc/pic32mx/4.5.2/../../../../pic32mx/lib/./proc/32MX795F512L/default_isr_vectors.o (__vector_dispatch_49)
/opt/microchip/xc32/v1.32/bin/bin/../../lib/gcc/pic32mx/4.5.2/../../../../pic32mx/lib/libpic32.a(vector50.o)
                              /opt/microchip/xc32/v1.32/bin/bin/../../lib/gcc/pic32mx/4.5.2/../../../../pic32mx/lib/./proc/32MX795F512L/default_isr_vectors.o (__vector_dispatch_50)
/opt/microchip/xc32/v1.32/bin/bin/../../lib/gcc/pic32mx/4.5.2/../../../../pic32mx/lib/libpic32.a(vector51.o)
                              /opt/microchip/xc32/v1.32/bin/bin/../../lib/gcc/pic32mx/4.5.2/../../../../pic32mx/lib/./proc/32MX795F512L/default_isr_vectors.o (__vector_dispatch_51)
/opt/microchip/xc32/v1.32/bin/bin/../../lib/gcc/pic32mx/4.5.2/../../../../pic32mx/lib/libpic32.a(vector52.o)
                              /opt/microchip/xc32/v1.32/bin/bin/../../lib/gcc/pic32mx/4.5.2/../../../../pic32mx/lib/./proc/32MX795F512L/default_isr_vectors.o (__vector_dispatch_52)
/opt/microchip/xc32/v1.32/bin/bin/../../lib/gcc/pic32mx/4.5.2/../../../../pic32mx/lib/libpic32.a(vector53.o)
                              /opt/microchip/xc32/v1.32/bin/bin/../../lib/gcc/pic32mx/4.5.2/../../../../pic32mx/lib/./proc/32MX795F512L/default_isr_vectors.o (__vector_dispatch_53)
/opt/microchip/xc32/v1.32/bin/bin/../../lib/gcc/pic32mx/4.5.2/../../../../pic32mx/lib/libpic32.a(vector54.o)
                              /opt/microchip/xc32/v1.32/bin/bin/../../lib/gcc/pic32mx/4.5.2/../../../../pic32mx/lib/./proc/32MX795F512L/default_isr_vectors.o (__vector_dispatch_54)
/opt/microchip/xc32/v1.32/bin/bin/../../lib/gcc/pic32mx/4.5.2/../../../../pic32mx/lib/libpic32.a(vector55.o)
                              /opt/microchip/xc32/v1.32/bin/bin/../../lib/gcc/pic32mx/4.5.2/../../../../pic32mx/lib/./proc/32MX795F512L/default_isr_vectors.o (__vector_dispatch_55)
/opt/microchip/xc32/v1.32/bin/bin/../../lib/gcc/pic32mx/4.5.2/../../../../pic32mx/lib/libpic32.a(vector56.o)
                              /opt/microchip/xc32/v1.32/bin/bin/../../lib/gcc/pic32mx/4.5.2/../../../../pic32mx/lib/./proc/32MX795F512L/default_isr_vectors.o (__vector_dispatch_56)
/opt/microchip/xc32/v1.32/bin/bin/../../lib/gcc/pic32mx/4.5.2/../../../../pic32mx/lib/libpic32.a(vector57.o)
                              /opt/microchip/xc32/v1.32/bin/bin/../../lib/gcc/pic32mx/4.5.2/../../../../pic32mx/lib/./proc/32MX795F512L/default_isr_vectors.o (__vector_dispatch_57)
/opt/microchip/xc32/v1.32/bin/bin/../../lib/gcc/pic32mx/4.5.2/../../../../pic32mx/lib/libpic32.a(vector58.o)
                              /opt/microchip/xc32/v1.32/bin/bin/../../lib/gcc/pic32mx/4.5.2/../../../../pic32mx/lib/./proc/32MX795F512L/default_isr_vectors.o (__vector_dispatch_58)
/opt/microchip/xc32/v1.32/bin/bin/../../lib/gcc/pic32mx/4.5.2/../../../../pic32mx/lib/libpic32.a(vector59.o)
                              /opt/microchip/xc32/v1.32/bin/bin/../../lib/gcc/pic32mx/4.5.2/../../../../pic32mx/lib/./proc/32MX795F512L/default_isr_vectors.o (__vector_dispatch_59)
/opt/microchip/xc32/v1.32/bin/bin/../../lib/gcc/pic32mx/4.5.2/../../../../pic32mx/lib/libpic32.a(vector60.o)
                              /opt/microchip/xc32/v1.32/bin/bin/../../lib/gcc/pic32mx/4.5.2/../../../../pic32mx/lib/./proc/32MX795F512L/default_isr_vectors.o (__vector_dispatch_60)
/opt/microchip/xc32/v1.32/bin/bin/../../lib/gcc/pic32mx/4.5.2/../../../../pic32mx/lib/libpic32.a(vector61.o)
                              /opt/microchip/xc32/v1.32/bin/bin/../../lib/gcc/pic32mx/4.5.2/../../../../pic32mx/lib/./proc/32MX795F512L/default_isr_vectors.o (__vector_dispatch_61)
/opt/microchip/xc32/v1.32/bin/bin/../../lib/gcc/pic32mx/4.5.2/../../../../pic32mx/lib/libpic32.a(vector62.o)
                              /opt/microchip/xc32/v1.32/bin/bin/../../lib/gcc/pic32mx/4.5.2/../../../../pic32mx/lib/./proc/32MX795F512L/default_isr_vectors.o (__vector_dispatch_62)
/opt/microchip/xc32/v1.32/bin/bin/../../lib/gcc/pic32mx/4.5.2/../../../../pic32mx/lib/libpic32.a(vector63.o)
                              /opt/microchip/xc32/v1.32/bin/bin/../../lib/gcc/pic32mx/4.5.2/../../../../pic32mx/lib/./proc/32MX795F512L/default_isr_vectors.o (__vector_dispatch_63)
/opt/microchip/xc32/v1.32/bin/bin/../../lib/gcc/pic32mx/4.5.2/../../../../pic32mx/lib/libpic32.a(default-general-exception-handler.o)
                              /opt/microchip/xc32/v1.32/bin/bin/../../lib/gcc/pic32mx/4.5.2/../../../../pic32mx/lib/libpic32.a(general-exception.o) (_general_exception_handler)
/opt/microchip/xc32/v1.32/bin/bin/../../lib/gcc/pic32mx/4.5.2/../../../../pic32mx/lib/libpic32.a(defaultinterrupt.o)
                              /opt/microchip/xc32/v1.32/bin/bin/../../lib/gcc/pic32mx/4.5.2/../../../../pic32mx/lib/libpic32.a(vector0.o) (_DefaultInterrupt)
/opt/microchip/xc32/v1.32/bin/bin/../../lib/gcc/pic32mx/4.5.2/../../../../pic32mx/lib/libm.a(fp32div.o)
                              build/debug/production/src/main.o (fpdiv)
/opt/microchip/xc32/v1.32/bin/bin/../../lib/gcc/pic32mx/4.5.2/../../../../pic32mx/lib/libm.a(fp32mul.o)
                              build/debug/production/src/main.o (fpmul)
/opt/microchip/xc32/v1.32/bin/bin/../../lib/gcc/pic32mx/4.5.2/../../../../pic32mx/lib/libm.a(fp32subadd.o)
                              build/debug/production/src/analogue.o (fpadd)
/opt/microchip/xc32/v1.32/bin/bin/../../lib/gcc/pic32mx/4.5.2/../../../../pic32mx/lib/libm.a(fpcmp.o)
                              build/debug/production/src/main.o (fpcmp)
/opt/microchip/xc32/v1.32/bin/bin/../../lib/gcc/pic32mx/4.5.2/../../../../pic32mx/lib/libm.a(fptoli.o)
                              build/debug/production/src/main.o (fptosi)
/opt/microchip/xc32/v1.32/bin/bin/../../lib/gcc/pic32mx/4.5.2/../../../../pic32mx/lib/libm.a(fptoul.o)
                              build/debug/production/src/main.o (fptoui)
/opt/microchip/xc32/v1.32/bin/bin/../../lib/gcc/pic32mx/4.5.2/../../../../pic32mx/lib/libc.a(ctypef.o)
                              build/debug/production/_ext/71113213/FSIO.o (tolower)
/opt/microchip/xc32/v1.32/bin/bin/../../lib/gcc/pic32mx/4.5.2/../../../../pic32mx/lib/libc.a(rand.o)
                              build/debug/production/src/hitag.o (srand)
/opt/microchip/xc32/v1.32/bin/bin/../../lib/gcc/pic32mx/4.5.2/../../../../pic32mx/lib/libc.a(strncmp.o)
                              build/debug/production/src/main.o (strncmp)
/opt/microchip/xc32/v1.32/bin/bin/../../lib/gcc/pic32mx/4.5.2/../../../../pic32mx/lib/libc.a(strncpy.o)
                              build/debug/production/_ext/71113213/FSIO.o (strncpy)
/opt/microchip/xc32/v1.32/bin/bin/../../lib/gcc/pic32mx/4.5.2/../../../../pic32mx/lib/libc.a(sprintf_cdnopuxX.eo)
                              build/debug/production/src/main.o (_sprintf_cdnopuxX)
/opt/microchip/xc32/v1.32/bin/bin/../../lib/gcc/pic32mx/4.5.2/../../../../pic32mx/lib/libc.a(sprintf.o)
                              build/debug/production/src/comms.o (sprintf)
/opt/microchip/xc32/v1.32/bin/bin/../../lib/gcc/pic32mx/4.5.2/../../../../pic32mx/lib/libc.a(sscanf_cdfFnopsuxX.eo)
                              build/debug/production/src/main.o (_sscanf_cdfFnopsuxX)
/opt/microchip/xc32/v1.32/bin/bin/../../lib/gcc/pic32mx/4.5.2/../../../../pic32mx/lib/libc.a(sscanf_cdnopuxX.eo)
                              build/debug/production/src/util.o (_sscanf_cdnopuxX)
/opt/microchip/xc32/v1.32/bin/bin/../../lib/gcc/pic32mx/4.5.2/../../../../pic32mx/lib/libc.a(ctype.o)
                              /opt/microchip/xc32/v1.32/bin/bin/../../lib/gcc/pic32mx/4.5.2/../../../../pic32mx/lib/libc.a(ctypef.o) (_ctype)
/opt/microchip/xc32/v1.32/bin/bin/../../lib/gcc/pic32mx/4.5.2/../../../../pic32mx/lib/libc.a(doprnt_cdnopuxX.eo)
                              /opt/microchip/xc32/v1.32/bin/bin/../../lib/gcc/pic32mx/4.5.2/../../../../pic32mx/lib/libc.a(sprintf_cdnopuxX.eo) (_vfprintf_cdnopuxX)
/opt/microchip/xc32/v1.32/bin/bin/../../lib/gcc/pic32mx/4.5.2/../../../../pic32mx/lib/libc.a(doprnt.o)
                              /opt/microchip/xc32/v1.32/bin/bin/../../lib/gcc/pic32mx/4.5.2/../../../../pic32mx/lib/libc.a(sprintf.o) (vfprintf)
/opt/microchip/xc32/v1.32/bin/bin/../../lib/gcc/pic32mx/4.5.2/../../../../pic32mx/lib/libc.a(doscan_cdfFnopsuxX.eo)
                              /opt/microchip/xc32/v1.32/bin/bin/../../lib/gcc/pic32mx/4.5.2/../../../../pic32mx/lib/libc.a(sscanf_cdfFnopsuxX.eo) (_vfscanf_cdfFnopsuxX)
/opt/microchip/xc32/v1.32/bin/bin/../../lib/gcc/pic32mx/4.5.2/../../../../pic32mx/lib/libc.a(doscan_cdnopuxX.eo)
                              /opt/microchip/xc32/v1.32/bin/bin/../../lib/gcc/pic32mx/4.5.2/../../../../pic32mx/lib/libc.a(sscanf_cdnopuxX.eo) (_vfscanf_cdnopuxX)
/opt/microchip/xc32/v1.32/bin/bin/../../lib/gcc/pic32mx/4.5.2/../../../../pic32mx/lib/libc.a(fgetc.o)
                              /opt/microchip/xc32/v1.32/bin/bin/../../lib/gcc/pic32mx/4.5.2/../../../../pic32mx/lib/libc.a(doscan_cdfFnopsuxX.eo) (fgetc)
/opt/microchip/xc32/v1.32/bin/bin/../../lib/gcc/pic32mx/4.5.2/../../../../pic32mx/lib/libc.a(_fputc_simple.o)
                              /opt/microchip/xc32/v1.32/bin/bin/../../lib/gcc/pic32mx/4.5.2/../../../../pic32mx/lib/libc.a(doprnt_cdnopuxX.eo) (fputc)
/opt/microchip/xc32/v1.32/bin/bin/../../lib/gcc/pic32mx/4.5.2/../../../../pic32mx/lib/libc.a(atoi.o)
                              /opt/microchip/xc32/v1.32/bin/bin/../../lib/gcc/pic32mx/4.5.2/../../../../pic32mx/lib/libc.a(doscan_cdfFnopsuxX.eo) (atoi)
/opt/microchip/xc32/v1.32/bin/bin/../../lib/gcc/pic32mx/4.5.2/../../../../pic32mx/lib/libc.a(powersf.o)
                              /opt/microchip/xc32/v1.32/bin/bin/../../lib/gcc/pic32mx/4.5.2/../../../../pic32mx/lib/libc.a(doprnt.o) (_powers_f)
/opt/microchip/xc32/v1.32/bin/bin/../../lib/gcc/pic32mx/4.5.2/../../../../pic32mx/lib/libc.a(strtod.o)
                              /opt/microchip/xc32/v1.32/bin/bin/../../lib/gcc/pic32mx/4.5.2/../../../../pic32mx/lib/libc.a(doscan_cdfFnopsuxX.eo) (strtod)
/opt/microchip/xc32/v1.32/bin/bin/../../lib/gcc/pic32mx/4.5.2/../../../../pic32mx/lib/libc.a(strtof.o)
                              /opt/microchip/xc32/v1.32/bin/bin/../../lib/gcc/pic32mx/4.5.2/../../../../pic32mx/lib/libc.a(doscan_cdfFnopsuxX.eo) (strtof)
/opt/microchip/xc32/v1.32/bin/bin/../../lib/gcc/pic32mx/4.5.2/../../../../pic32mx/lib/libc.a(ungetc.o)
                              /opt/microchip/xc32/v1.32/bin/bin/../../lib/gcc/pic32mx/4.5.2/../../../../pic32mx/lib/libc.a(doscan_cdfFnopsuxX.eo) (ungetc)
/opt/microchip/xc32/v1.32/bin/bin/../../lib/gcc/pic32mx/4.5.2/../../../../pic32mx/lib/libc.a(_iob.o)
                              /opt/microchip/xc32/v1.32/bin/bin/../../lib/gcc/pic32mx/4.5.2/../../../../pic32mx/lib/libc.a(_fputc_simple.o) (_outdone)
/opt/microchip/xc32/v1.32/bin/bin/../../lib/gcc/pic32mx/4.5.2/../../../../pic32mx/lib/libc.a(filbuf.o)
                              /opt/microchip/xc32/v1.32/bin/bin/../../lib/gcc/pic32mx/4.5.2/../../../../pic32mx/lib/libc.a(fgetc.o) (_filbuf)
/opt/microchip/xc32/v1.32/bin/bin/../../lib/gcc/pic32mx/4.5.2/../../../../pic32mx/lib/libc.a(_flsbuf_simple.o)
                              /opt/microchip/xc32/v1.32/bin/bin/../../lib/gcc/pic32mx/4.5.2/../../../../pic32mx/lib/libc.a(_fputc_simple.o) (_flsbuf)
/opt/microchip/xc32/v1.32/bin/bin/../../lib/gcc/pic32mx/4.5.2/../../../../pic32mx/lib/libc.a(fflush.o)
                              /opt/microchip/xc32/v1.32/bin/bin/../../lib/gcc/pic32mx/4.5.2/../../../../pic32mx/lib/libc.a(filbuf.o) (fflush)
/opt/microchip/xc32/v1.32/bin/bin/../../lib/gcc/pic32mx/4.5.2/../../../../pic32mx/lib/libpic32.a(read.o)
                              /opt/microchip/xc32/v1.32/bin/bin/../../lib/gcc/pic32mx/4.5.2/../../../../pic32mx/lib/libc.a(filbuf.o) (read)
/opt/microchip/xc32/v1.32/bin/bin/../../lib/gcc/pic32mx/4.5.2/../../../../pic32mx/lib/libpic32.a(write.o)
                              /opt/microchip/xc32/v1.32/bin/bin/../../lib/gcc/pic32mx/4.5.2/../../../../pic32mx/lib/libc.a(_fputc_simple.o) (write)
/opt/microchip/xc32/v1.32/bin/bin/../../lib/gcc/pic32mx/4.5.2/../../../../pic32mx/lib/libpic32.a(xc32_uart.o)
                              /opt/microchip/xc32/v1.32/bin/bin/../../lib/gcc/pic32mx/4.5.2/../../../../pic32mx/lib/libpic32.a(read.o) (__XC_UART)
/opt/microchip/xc32/v1.32/bin/bin/../../lib/gcc/pic32mx/4.5.2/../../../../pic32mx/lib/libpic32.a(_mon_putc.o)
                              /opt/microchip/xc32/v1.32/bin/bin/../../lib/gcc/pic32mx/4.5.2/../../../../pic32mx/lib/libpic32.a(write.o) (_mon_putc)
/opt/microchip/xc32/v1.32/bin/bin/../../lib/gcc/pic32mx/4.5.2/../../../../pic32mx/lib/libm.a(dptofp.o)
                              /opt/microchip/xc32/v1.32/bin/bin/../../lib/gcc/pic32mx/4.5.2/../../../../pic32mx/lib/libc.a(strtod.o) (dptofp)
/opt/microchip/xc32/v1.32/bin/bin/../../lib/gcc/pic32mx/4.5.2/../../../../pic32mx/lib/libm.a(fpfrexp.o)
                              /opt/microchip/xc32/v1.32/bin/bin/../../lib/gcc/pic32mx/4.5.2/../../../../pic32mx/lib/libc.a(doprnt.o) (frexpf)
/opt/microchip/xc32/v1.32/bin/bin/../../lib/gcc/pic32mx/4.5.2/../../../../pic32mx/lib/libm.a(fptodp.o)
                              /opt/microchip/xc32/v1.32/bin/bin/../../lib/gcc/pic32mx/4.5.2/../../../../pic32mx/lib/libc.a(doscan_cdfFnopsuxX.eo) (fptodp)
/opt/microchip/xc32/v1.32/bin/bin/../../lib/gcc/pic32mx/4.5.2/../../../../pic32mx/lib/libm.a(__strtod.o)
                              /opt/microchip/xc32/v1.32/bin/bin/../../lib/gcc/pic32mx/4.5.2/../../../../pic32mx/lib/libc.a(strtod.o) (__strtod)
/opt/microchip/xc32/v1.32/bin/bin/../../lib/gcc/pic32mx/4.5.2/../../../../pic32mx/lib/libm.a(__strtof.o)
                              /opt/microchip/xc32/v1.32/bin/bin/../../lib/gcc/pic32mx/4.5.2/../../../../pic32mx/lib/libc.a(strtof.o) (__strtof)
/opt/microchip/xc32/v1.32/bin/bin/../../lib/gcc/pic32mx/4.5.2/../../../../pic32mx/lib/libm.a(dp32div.o)
                              /opt/microchip/xc32/v1.32/bin/bin/../../lib/gcc/pic32mx/4.5.2/../../../../pic32mx/lib/libm.a(__strtod.o) (__divdf3)
/opt/microchip/xc32/v1.32/bin/bin/../../lib/gcc/pic32mx/4.5.2/../../../../pic32mx/lib/libm.a(dp32mul.o)
                              /opt/microchip/xc32/v1.32/bin/bin/../../lib/gcc/pic32mx/4.5.2/../../../../pic32mx/lib/libm.a(__strtod.o) (__muldf3)
/opt/microchip/xc32/v1.32/bin/bin/../../lib/gcc/pic32mx/4.5.2/../../../../pic32mx/lib/libm.a(dp32subadd.o)
                              /opt/microchip/xc32/v1.32/bin/bin/../../lib/gcc/pic32mx/4.5.2/../../../../pic32mx/lib/libm.a(__strtod.o) (__adddf3)
/opt/microchip/xc32/v1.32/bin/bin/../../lib/gcc/pic32mx/4.5.2/../../../../pic32mx/lib/libm.a(litodp.o)
                              /opt/microchip/xc32/v1.32/bin/bin/../../lib/gcc/pic32mx/4.5.2/../../../../pic32mx/lib/libm.a(__strtod.o) (__floatsidf)
/opt/microchip/xc32/v1.32/bin/bin/../../lib/gcc/pic32mx/4.5.2/../../../../pic32mx/lib/libm.a(negdf2.o)
                              /opt/microchip/xc32/v1.32/bin/bin/../../lib/gcc/pic32mx/4.5.2/../../../../pic32mx/lib/libm.a(__strtod.o) (__negdf2)
/opt/microchip/xc32/v1.32/bin/bin/../../lib/gcc/pic32mx/4.5.2/../../../../pic32mx/lib/libm.a(negsf2.o)
                              /opt/microchip/xc32/v1.32/bin/bin/../../lib/gcc/pic32mx/4.5.2/../../../../pic32mx/lib/libm.a(__strtof.o) (__negsf2)
/opt/microchip/xc32/v1.32/bin/bin/../../lib/gcc/pic32mx/4.5.2/../../../../pic32mx/lib/libm.a(sitofp.o)
                              /opt/microchip/xc32/v1.32/bin/bin/../../lib/gcc/pic32mx/4.5.2/../../../../pic32mx/lib/libm.a(__strtof.o) (__floatsisf)
/opt/microchip/xc32/v1.32/bin/bin/../../lib/gcc/pic32mx/4.5.2/../../../../pic32mx/lib/libe.a(_floatdisf.o)
                              /opt/microchip/xc32/v1.32/bin/bin/../../lib/gcc/pic32mx/4.5.2/../../../../pic32mx/lib/libc.a(doprnt.o) (__floatdisf)
/opt/microchip/xc32/v1.32/bin/bin/../../lib/gcc/pic32mx/4.5.2/../../../../pic32mx/lib/libe.a(_ldexp.o)
                              /opt/microchip/xc32/v1.32/bin/bin/../../lib/gcc/pic32mx/4.5.2/../../../../pic32mx/lib/libm.a(__strtod.o) (__ldexp)
/opt/microchip/xc32/v1.32/bin/bin/../../lib/gcc/pic32mx/4.5.2/../../../../pic32mx/lib/libe.a(_ldexpf.o)
                              /opt/microchip/xc32/v1.32/bin/bin/../../lib/gcc/pic32mx/4.5.2/../../../../pic32mx/lib/libm.a(__strtof.o) (__ldexpf)
/opt/microchip/xc32/v1.32/bin/bin/../../lib/gcc/pic32mx/4.5.2/libgcc.a(_lshrdi3.o)
                              /opt/microchip/xc32/v1.32/bin/bin/../../lib/gcc/pic32mx/4.5.2/../../../../pic32mx/lib/libe.a(_ldexp.o) (__lshrdi3)
/opt/microchip/xc32/v1.32/bin/bin/../../lib/gcc/pic32mx/4.5.2/libgcc.a(_ashldi3.o)
                              /opt/microchip/xc32/v1.32/bin/bin/../../lib/gcc/pic32mx/4.5.2/../../../../pic32mx/lib/libe.a(_ldexp.o) (__ashldi3)
/opt/microchip/xc32/v1.32/bin/bin/../../lib/gcc/pic32mx/4.5.2/libgcc.a(_floatundisf.o)
                              /opt/microchip/xc32/v1.32/bin/bin/../../lib/gcc/pic32mx/4.5.2/../../../../pic32mx/lib/libc.a(doprnt.o) (__floatundisf)
/opt/microchip/xc32/v1.32/bin/bin/../../lib/gcc/pic32mx/4.5.2/libgcc.a(_umoddi3.o)
                              /opt/microchip/xc32/v1.32/bin/bin/../../lib/gcc/pic32mx/4.5.2/../../../../pic32mx/lib/libc.a(doprnt_cdnopuxX.eo) (__umoddi3)
/opt/microchip/xc32/v1.32/bin/bin/../../lib/gcc/pic32mx/4.5.2/libgcc.a(floatunsisf.o)
                              /opt/microchip/xc32/v1.32/bin/bin/../../lib/gcc/pic32mx/4.5.2/../../../../pic32mx/lib/libc.a(doprnt.o) (__floatunsisf)
/opt/microchip/xc32/v1.32/bin/bin/../../lib/gcc/pic32mx/4.5.2/../../../../pic32mx/lib/libc.a(errno.o)
                              /opt/microchip/xc32/v1.32/bin/bin/../../lib/gcc/pic32mx/4.5.2/../../../../pic32mx/lib/libm.a(__strtod.o) (errno)

Allocating common symbols
Common symbol       size              file

baudRate            0x4               build/debug/production/_ext/2096855388/SCpic32.o
scPPSresponseLength
                    0x1               build/debug/production/_ext/2096855388/SClib.o
fileNameLength      0x2               build/debug/production/_ext/71113213/FSIO.o
CDCDataInHandle     0x4               build/debug/production/_ext/1379786196/usb_function_cdc.o
gDataBuffer         0x200             build/debug/production/_ext/71113213/FSIO.o
BothEP0OutUOWNsSet  0x4               build/debug/production/_ext/870548313/usb_device.o
USBDeferStatusStagePacket
                    0x4               build/debug/production/_ext/870548313/usb_device.o
gTimeCrtMS          0x1               build/debug/production/_ext/71113213/FSIO.o
USBStatusStageEnabledFlag1
                    0x4               build/debug/production/_ext/870548313/usb_device.o
USBActiveConfiguration
                    0x1               build/debug/production/_ext/870548313/usb_device.o
USBStatusStageEnabledFlag2
                    0x4               build/debug/production/_ext/870548313/usb_device.o
BaudRateGen         0x4               build/debug/production/_ext/1379786196/usb_function_cdc.o
cgtETU              0x2               build/debug/production/_ext/2096855388/SClib.o
TmpBits             0x800             build/debug/production/src/main.o
pCDCSrc             0x4               build/debug/production/_ext/1379786196/usb_function_cdc.o
tempCWDobj          0x44              build/debug/production/_ext/71113213/FSIO.o
fileFoundString     0x20a             build/debug/production/_ext/71113213/FSIO.o
oneETUtimeinMicroSeconds
                    0x2               build/debug/production/_ext/2096855388/SCpic32.o
shortPacketStatus   0x1               build/debug/production/_ext/870548313/usb_device.o
pBDTEntryOut        0x10              build/debug/production/_ext/870548313/usb_device.o
EMU_ThisBit         0x1               build/debug/production/src/main.o
HW_Bits             0x4               build/debug/production/src/isr.o
scTA3               0x1               build/debug/production/_ext/2096855388/SClib.o
scTA2               0x1               build/debug/production/_ext/2096855388/SClib.o
DataBuff            0x2000            build/debug/production/src/main.o
pCDCDst             0x4               build/debug/production/_ext/1379786196/usb_function_cdc.o
scTA1               0x1               build/debug/production/_ext/2096855388/SClib.o
gFATBuffer          0x200             build/debug/production/_ext/71113213/FSIO.o
USTATcopy           0x1               build/debug/production/_ext/870548313/usb_device.o
cardResponse        0x4               build/debug/production/src/iso7816.o
CDCDataOutHandle    0x4               build/debug/production/_ext/1379786196/usb_function_cdc.o
SetupPkt            0x8               build/debug/production/_ext/870548313/usb_device.o
scCardATR           0x21              build/debug/production/_ext/2096855388/SClib.o
lfnData             0x606             build/debug/production/_ext/71113213/FSIO.o
asciiFilename       0x4               build/debug/production/_ext/71113213/FSIO.o
gFileSlotOpen       0x3               build/debug/production/_ext/71113213/FSIO.o
Comms_Out_Buffer    0x80              build/debug/production/src/main.o
USBBusIsSuspended   0x4               build/debug/production/_ext/870548313/usb_device.o
RTC_date            0x4               build/debug/production/src/util.o
line_coding         0x8               build/debug/production/_ext/1379786196/usb_function_cdc.o
utf16Filename       0x4               build/debug/production/_ext/71113213/FSIO.o
rxETUtimeDivisorFactor
                    0x2               build/debug/production/_ext/2096855388/SCpic32.o
TempClusterCalc     0x4               build/debug/production/_ext/71113213/FSIO.o
MDD_SDSPI_finalLBA  0x4               build/debug/production/_ext/71113213/SD-SPI.o
ep_data_out         0x4               build/debug/production/_ext/870548313/usb_device.o
EMU_SubCarrier_T0   0x1               build/debug/production/src/main.o
FatRootDirClusterValue
                    0x4               build/debug/production/_ext/71113213/FSIO.o
pBDTEntryEP0OutNext
                    0x4               build/debug/production/_ext/870548313/usb_device.o
cdc_tx_len          0x1               build/debug/production/_ext/1379786196/usb_function_cdc.o
gTimeCrtTime        0x2               build/debug/production/_ext/71113213/FSIO.o
dirCleared          0x1               build/debug/production/_ext/71113213/FSIO.o
cardCommand         0x6               build/debug/production/src/iso7816.o
gDiskData           0x26              build/debug/production/_ext/71113213/FSIO.o
pBDTEntryIn         0x10              build/debug/production/_ext/870548313/usb_device.o
TmpBuff             0x1000            build/debug/production/src/main.o
scTD1               0x1               build/debug/production/_ext/2096855388/SClib.o
scTD2               0x1               build/debug/production/_ext/2096855388/SClib.o
cwd                 0x44              build/debug/production/_ext/71113213/FSIO.o
buttonPressed       0x4               build/debug/production/src/main.o
scTD3               0x1               build/debug/production/_ext/2096855388/SClib.o
recordSearchLength  0x2               build/debug/production/_ext/71113213/FSIO.o
EMU_SubCarrier_T1   0x1               build/debug/production/src/main.o
EMU_Data            0x4               build/debug/production/src/main.o
gFileArray          0xcc              build/debug/production/_ext/71113213/FSIO.o
cdc_data_rx         0x40              build/debug/production/_ext/1379786196/usb_function_cdc.o
controlTransferState
                    0x1               build/debug/production/_ext/870548313/usb_device.o
gTimeWrtTime        0x2               build/debug/production/_ext/71113213/FSIO.o
buttonCount         0x1               build/debug/production/src/main.o
scPPSresponse       0x7               build/debug/production/_ext/2096855388/SClib.o
dummy_encapsulated_cmd_response
                    0x8               build/debug/production/_ext/1379786196/usb_function_cdc.o
EMU_Reset_Data      0x4               build/debug/production/src/main.o
gSDMode             0x1               build/debug/production/_ext/71113213/SD-SPI.o
gTimeAccDate        0x2               build/debug/production/_ext/71113213/FSIO.o
EMU_Repeat          0x4               build/debug/production/src/main.o
recordSearchName    0x202             build/debug/production/_ext/71113213/FSIO.o
cdc_notice          0x8               build/debug/production/_ext/1379786196/usb_function_cdc.o
cgtInMicroSeconds   0x4               build/debug/production/_ext/2096855388/SClib.o
gTimeWrtDate        0x2               build/debug/production/_ext/71113213/FSIO.o
apduData            0xff              build/debug/production/src/iso7816.o
cdc_rx_len          0x1               build/debug/production/_ext/1379786196/usb_function_cdc.o
scTC1               0x1               build/debug/production/_ext/2096855388/SClib.o
defaultArray        0xa               build/debug/production/_ext/71113213/FSIO.o
scTC2               0x1               build/debug/production/_ext/2096855388/SClib.o
RTC_time            0x4               build/debug/production/src/util.o
scTC3               0x1               build/debug/production/_ext/2096855388/SClib.o
BDT                 0x80              build/debug/production/_ext/870548313/usb_device.o
gFileTemp           0x44              build/debug/production/_ext/71113213/FSIO.o
gMediaSectorSize    0x2               build/debug/production/_ext/71113213/SD-SPI.o
pBDTEntryEP0OutCurrent
                    0x4               build/debug/production/_ext/870548313/usb_device.o
pDst                0x4               build/debug/production/_ext/870548313/usb_device.o
RWD_Command_Buff    0x100             build/debug/production/src/main.o
endpoint_number     0x1               build/debug/production/_ext/870548313/usb_device.o
USBDeferINDataStagePackets
                    0x4               build/debug/production/_ext/870548313/usb_device.o
Comms_In_Buffer     0x80              build/debug/production/src/main.o
USBDeferOUTDataStagePackets
                    0x4               build/debug/production/_ext/870548313/usb_device.o
Hitag_Crypto_State  0x10              build/debug/production/src/hitag.o
stringPrinted       0x4               build/debug/production/src/main.o
USBDeviceState      0x4               build/debug/production/_ext/870548313/usb_device.o
cdc_trf_state       0x1               build/debug/production/_ext/1379786196/usb_function_cdc.o
inPipes             0x10              build/debug/production/_ext/870548313/usb_device.o
CtrlTrfData         0x40              build/debug/production/_ext/870548313/usb_device.o
FSerrno             0x1               build/debug/production/_ext/71113213/FSIO.o
control_signal_bitmap
                    0x4               build/debug/production/_ext/1379786196/usb_function_cdc.o
gTimeCrtDate        0x2               build/debug/production/_ext/71113213/FSIO.o
RFIDlerConfig       0xf8              build/debug/production/src/main.o
PSK_Min_Pulse       0x4               build/debug/production/src/isr.o
cdc_mem_type        0x1               build/debug/production/_ext/1379786196/usb_function_cdc.o
USBStatusStageTimeoutCounter
                    0x1               build/debug/production/_ext/870548313/usb_device.o
recordFoundName     0x202             build/debug/production/_ext/71113213/FSIO.o
scReferenceClock    0x4               build/debug/production/_ext/2096855388/SCpic32.o
scTB1               0x1               build/debug/production/_ext/2096855388/SClib.o
RemoteWakeup        0x4               build/debug/production/_ext/870548313/usb_device.o
USBAlternateInterface
                    0x1               build/debug/production/_ext/870548313/usb_device.o
scTB3               0x1               build/debug/production/_ext/2096855388/SClib.o
scTB2               0x1               build/debug/production/_ext/2096855388/SClib.o
tempDirectoryString
                    0x20a             build/debug/production/_ext/71113213/FSIO.o
EMU_DataBitRate     0x4               build/debug/production/src/main.o
t0WWTetu            0x4               build/debug/production/_ext/2096855388/SClib.o
RFIDlerVTag         0x1208            build/debug/production/src/main.o
cdc_data_tx         0x40              build/debug/production/_ext/1379786196/usb_function_cdc.o
outPipes            0xb               build/debug/production/_ext/870548313/usb_device.o
ep_data_in          0x4               build/debug/production/_ext/870548313/usb_device.o

Microchip PIC32 Memory-Usage Report

kseg0 Program-Memory Usage
section                    address  length [bytes]      (dec)  Description
-------                 ----------  -------------------------  -----------
.text                   0x9d006e00        0x18274       98932  App's exec code 
.rodata                 0x9d01f074         0x44d0       17616  Read-only const 
.text                   0x9d023544         0x7974       31092  App's exec code 
.text.vfprintf          0x9d02aeb8         0x1bc8        7112   
.text                   0x9d02ca80         0x979c       38812  App's exec code 
.text._vfprintf_cdnopux 0x9d03621c          0xae8        2792   
.text                   0x9d036d04         0x14c4        5316  App's exec code 
.text._vfscanf_cdfFnops 0x9d0381c8          0xa2c        2604   
.text                   0x9d038bf4         0x2664        9828  App's exec code 
.text._vfscanf_cdnopuxX 0x9d03b258          0x868        2152   
.text                   0x9d03bac0         0x1844        6212  App's exec code 
.rodata                 0x9d03d304          0x7d4        2004  Read-only const 
.text                   0x9d03dad8         0x2190        8592  App's exec code 
.text.dp32mul           0x9d03fc68          0x4b8        1208   
.text                   0x9d040120         0x1580        5504  App's exec code 
.text.dp32subadd        0x9d0416a0          0x430        1072   
.text                   0x9d041ad0          0x7d8        2008  App's exec code 
.text.__strtod          0x9d0422a8          0x3e4         996   
.rodata                 0x9d04268c          0x3b8         952  Read-only const 
.text                   0x9d042a44          0x3b0         944  App's exec code 
.dinit                  0x9d042df4          0x380         896   
.text.__strtof          0x9d043174          0x360         864   
.text                   0x9d0434d4          0x6a4        1700  App's exec code 
.text.dp32mul           0x9d043b78          0x32c         812   
.text                   0x9d043ea4          0xb2c        2860  App's exec code 
.text.scale             0x9d0449d0          0x2a0         672   
.text.fpsubadd          0x9d044c70          0x278         632   
.text.fp32div           0x9d044ee8          0x230         560   
.rodata                 0x9d045118          0x228         552  Read-only const 
.text.__floatdisf       0x9d045340          0x220         544   
.text                   0x9d045560          0x20c         524  App's exec code 
.rodata                 0x9d04576c          0x1fc         508  Read-only const 
.text                   0x9d045968          0x1d4         468  App's exec code 
.text.__ldexp           0x9d045b3c          0x1d4         468   
.text.fp32mul           0x9d045d10          0x1bc         444   
.text.fround            0x9d045ecc          0x1a4         420   
.text                   0x9d046070          0x1a0         416  App's exec code 
.text._filbuf           0x9d046210          0x188         392   
.text.read              0x9d046398          0x174         372   
.text.NVMProgram        0x9d04650c          0x16c         364   
.text                   0x9d046678          0x2d0         720  App's exec code 
.text.fputc             0x9d046948          0x15c         348   
.text.SpiChnOpen        0x9d046aa4          0x150         336   
.rodata                 0x9d046bf4          0x130         304  Read-only const 
.text._flsbuf           0x9d046d24          0x12c         300   
.text                   0x9d046e50          0x120         288  App's exec code 
.text._NVMOperation     0x9d046f70          0x114         276   
.text.fgetc             0x9d047084          0x108         264   
.rodata                 0x9d04718c          0x104         260  Read-only const 
.text.__ldexpf          0x9d047290          0x104         260   
.text.dptofp            0x9d047394          0x100         256   
.rodata                 0x9d047494          0x3a0         928  Read-only const 
.text.general_exception 0x9d047834           0xdc         220   
.rodata                 0x9d047910           0xd4         212  Read-only const 
.text                   0x9d0479e4           0xd4         212  App's exec code 
.rodata                 0x9d047ab8          0x198         408  Read-only const 
.text.SpiChnClose       0x9d047c50           0xbc         188   
.text                   0x9d047d0c           0xb8         184  App's exec code 
.text._mon_putc         0x9d047dc4           0xb4         180   
.text.fptodp            0x9d047e78           0xac         172   
.text                   0x9d047f24           0xa8         168  App's exec code 
.text.atoi              0x9d047fcc           0xa8         168   
.rodata                 0x9d048074           0xa4         164  Read-only const 
.text                   0x9d048118          0x144         324  App's exec code 
.rodata                 0x9d04825c           0xa0         160  Read-only const 
.text.range             0x9d0482fc          0x140         320   
.text.fpcmp             0x9d04843c           0x9c         156   
.text                   0x9d0484d8           0x98         152  App's exec code 
.text.rand              0x9d048570           0x98         152   
.rodata                 0x9d048608           0x94         148  Read-only const 
.text.fflush            0x9d04869c           0x94         148   
.text.write             0x9d048730           0x94         148   
.text.libm              0x9d0487c4           0x88         136   
.rodata                 0x9d04884c          0x104         260  Read-only const 
.text.fptoli            0x9d048950           0x80         128   
.text.fptoul            0x9d0489d0           0x7c         124   
.text.SoftReset         0x9d048a4c           0x78         120   
.text.strncmp           0x9d048ac4           0x78         120   
.text.litodp            0x9d048b3c           0x78         120   
.text.ungetc            0x9d048bb4           0x74         116   
.text                   0x9d048c28           0x6c         108  App's exec code 
.rodata                 0x9d048c94           0x68         104  Read-only const 
.text._sprintf_cdnopuxX 0x9d048cfc           0x68         104   
.text.sprintf           0x9d048d64           0x68         104   
.rodata                 0x9d048dcc           0xcc         204  Read-only const 
.text.OpenSPI1          0x9d048e98           0x60          96   
.text.wspace            0x9d048ef8           0xc0         192   
.text.sitofp            0x9d048fb8           0x60          96   
.text.strncpy           0x9d049018           0x58          88   
.rodata                 0x9d049070           0x54          84  Read-only const 
.text._sscanf_cdfFnopsu 0x9d0490c4           0x54          84   
.text.INTEnable         0x9d049118           0x50          80   
.text.main_entry        0x9d049168           0x4c          76   
.rodata                 0x9d0491b4           0x4c          76  Read-only const 
.text                   0x9d049200           0x4c          76  App's exec code 
.text._bootstrap_except 0x9d04924c           0x48          72   
.text._general_exceptio 0x9d049294           0x48          72   
.rodata                 0x9d0492dc           0x48          72  Read-only const 
.text                   0x9d049324           0xcc         204  App's exec code 
.rodata                 0x9d0493f0           0x80         128  Read-only const 
.text.PORTSetPinsDigita 0x9d049470           0x3c          60   
.text.PORTSetPinsDigita 0x9d0494ac           0x3c          60   
.text.INTSetVectorPrior 0x9d0494e8           0x38          56   
.text.INTSetVectorSubPr 0x9d049520           0x38          56   
.text.NVMWriteRow       0x9d049558           0x38          56   
.vector_default         0x9d049590           0x38          56   
.text.INTEnableSystemMu 0x9d0495c8           0x34          52   
.text.INTConfigureSyste 0x9d0495fc           0x30          48   
.text.INTGetVectorPrior 0x9d04962c           0x2c          44   
.text.INTGetVectorSubPr 0x9d049658           0x2c          44   
.text.NVMErasePage      0x9d049684           0x2c          44   
.text.INTClearFlag      0x9d0496b0           0x28          40   
.text.INTSetFlag        0x9d0496d8           0x28          40   
.text.INTGetFlag        0x9d049700           0x28          40   
.text.INTGetEnable      0x9d049728           0x28          40   
.text.PORTResetPins     0x9d049750           0x28          40   
.text.strtod            0x9d049778           0x28          40   
.text.tolower           0x9d0497a0           0x24          36   
.text.toupper           0x9d0497c4           0x24          36   
.rodata                 0x9d0497e8           0x20          32  Read-only const 
.text.getcSPI1          0x9d049808           0x20          32   
.rodata                 0x9d049828           0x1c          28  Read-only const 
.text.INTRestoreInterru 0x9d049844           0x1c          28   
.text.srand             0x9d049860           0x1c          28   
.text._dstrtod          0x9d04987c           0x1c          28   
.text.strtof            0x9d049898           0x1c          28   
.text.strtodf           0x9d0498b4           0x1c          28   
.text.negdf2            0x9d0498d0           0x1c          28   
.rodata                 0x9d0498ec           0x18          24  Read-only const 
.text.CheKseg0CacheOff  0x9d049904           0x18          24   
.text.CheKseg0CacheOn   0x9d04991c           0x18          24   
.text                   0x9d049934           0x18          24  App's exec code 
.text.isalnum           0x9d04994c           0x18          24   
.text.isalpha           0x9d049964           0x18          24   
.text.iscntrl           0x9d04997c           0x18          24   
.text.isdigit           0x9d049994           0x18          24   
.text.isgraph           0x9d0499ac           0x18          24   
.text.islower           0x9d0499c4           0x18          24   
.text.isprint           0x9d0499dc           0x18          24   
.text.ispunct           0x9d0499f4           0x18          24   
.text.isspace           0x9d049a0c           0x18          24   
.text.isupper           0x9d049a24           0x18          24   
.text.isxdigit          0x9d049a3c           0x18          24   
.rodata                 0x9d049a54           0x2c          44  Read-only const 
.text.negsf2            0x9d049a80           0x14          20   
.rodata                 0x9d049a94           0x2c          44  Read-only const 
.text.INTEnableInterrup 0x9d049ac0            0x8           8   
.text.INTDisableInterru 0x9d049ac8            0x8           8   
.text._on_reset         0x9d049ad0            0x8           8   
.text._on_bootstrap     0x9d049ad8            0x8           8   
.text.isascii           0x9d049ae0            0x8           8   
.text.toascii           0x9d049ae8            0x8           8   
.text._tolower          0x9d049af0            0x8           8   
.text._toupper          0x9d049af8            0x8           8   
.rodata                 0x9d049b00            0x8           8  Read-only const 
      Total kseg0_program_mem used  :     0x42d08      273672  55.2% of 0x79200

kseg0 Boot-Memory Usage
section                    address  length [bytes]      (dec)  Description
-------                 ----------  -------------------------  -----------
         Total kseg0_boot_mem used  :           0           0  <1% of 0x970

Exception-Memory Usage 
section                    address  length [bytes]      (dec)  Description
-------                 ----------  -------------------------  -----------
.app_excpt              0x9d005180           0x10          16  General-Exception 
.vector_0               0x9d005200            0x8           8  Interrupt Vector 0 
.vector_1               0x9d005220            0x8           8  Interrupt Vector 1 
.vector_2               0x9d005240            0x8           8  Interrupt Vector 2 
.vector_3               0x9d005260            0x8           8  Interrupt Vector 3 
.vector_4               0x9d005280            0x8           8  Interrupt Vector 4 
.vector_5               0x9d0052a0            0x8           8  Interrupt Vector 5 
.vector_6               0x9d0052c0            0x8           8  Interrupt Vector 6 
.vector_7               0x9d0052e0            0x8           8  Interrupt Vector 7 
.vector_8               0x9d005300            0x8           8  Interrupt Vector 8 
.vector_9               0x9d005320            0x8           8  Interrupt Vector 9 
.vector_10              0x9d005340            0x8           8  Interrupt Vector 10 
.vector_11              0x9d005360            0x8           8  Interrupt Vector 11 
.vector_12              0x9d005380            0x8           8  Interrupt Vector 12 
.vector_13              0x9d0053a0            0x8           8  Interrupt Vector 13 
.vector_14              0x9d0053c0            0x8           8  Interrupt Vector 14 
.vector_15              0x9d0053e0            0x8           8  Interrupt Vector 15 
.vector_16              0x9d005400            0x8           8  Interrupt Vector 16 
.vector_17              0x9d005420            0x8           8  Interrupt Vector 17 
.vector_18              0x9d005440            0x8           8  Interrupt Vector 18 
.vector_19              0x9d005460            0x8           8  Interrupt Vector 19 
.vector_20              0x9d005480            0x8           8  Interrupt Vector 20 
.vector_21              0x9d0054a0            0x8           8  Interrupt Vector 21 
.vector_22              0x9d0054c0            0x8           8  Interrupt Vector 22 
.vector_23              0x9d0054e0            0x8           8  Interrupt Vector 23 
.vector_24              0x9d005500            0x8           8  Interrupt Vector 24 
.vector_25              0x9d005520            0x8           8  Interrupt Vector 25 
.vector_26              0x9d005540            0x8           8  Interrupt Vector 26 
.vector_27              0x9d005560            0x8           8  Interrupt Vector 27 
.vector_28              0x9d005580            0x8           8  Interrupt Vector 28 
.vector_29              0x9d0055a0            0x8           8  Interrupt Vector 29 
.vector_30              0x9d0055c0            0x8           8  Interrupt Vector 30 
.vector_31              0x9d0055e0            0x8           8  Interrupt Vector 31 
.vector_32              0x9d005600            0x8           8  Interrupt Vector 32 
.vector_33              0x9d005620            0x8           8  Interrupt Vector 33 
.vector_34              0x9d005640            0x8           8  Interrupt Vector 34 
.vector_35              0x9d005660            0x8           8  Interrupt Vector 35 
.vector_36              0x9d005680            0x8           8  Interrupt Vector 36 
.vector_37              0x9d0056a0            0x8           8  Interrupt Vector 37 
.vector_38              0x9d0056c0            0x8           8  Interrupt Vector 38 
.vector_39              0x9d0056e0            0x8           8  Interrupt Vector 39 
.vector_40              0x9d005700            0x8           8  Interrupt Vector 40 
.vector_41              0x9d005720            0x8           8  Interrupt Vector 41 
.vector_42              0x9d005740            0x8           8  Interrupt Vector 42 
.vector_43              0x9d005760            0x8           8  Interrupt Vector 43 
.vector_44              0x9d005780            0x8           8  Interrupt Vector 44 
.vector_45              0x9d0057a0            0x8           8  Interrupt Vector 45 
.vector_46              0x9d0057c0            0x8           8  Interrupt Vector 46 
.vector_47              0x9d0057e0            0x8           8  Interrupt Vector 47 
.vector_48              0x9d005800            0x8           8  Interrupt Vector 48 
.vector_49              0x9d005820            0x8           8  Interrupt Vector 49 
.vector_50              0x9d005840            0x8           8  Interrupt Vector 50 
.vector_51              0x9d005860            0x8           8  Interrupt Vector 51 
.vector_52              0x9d005880            0x8           8  Interrupt Vector 52 
.vector_53              0x9d0058a0            0x8           8  Interrupt Vector 53 
.vector_54              0x9d0058c0            0x8           8  Interrupt Vector 54 
.vector_55              0x9d0058e0            0x8           8  Interrupt Vector 55 
.vector_56              0x9d005900            0x8           8  Interrupt Vector 56 
.vector_57              0x9d005920            0x8           8  Interrupt Vector 57 
.vector_58              0x9d005940            0x8           8  Interrupt Vector 58 
.vector_59              0x9d005960            0x8           8  Interrupt Vector 59 
.vector_60              0x9d005980            0x8           8  Interrupt Vector 60 
.vector_61              0x9d0059a0            0x8           8  Interrupt Vector 61 
.vector_62              0x9d0059c0            0x8           8  Interrupt Vector 62 
.vector_63              0x9d0059e0            0x8           8  Interrupt Vector 63 
          Total exception_mem used  :       0x210         528  12.9% of 0x1000

kseg1 Boot-Memory Usage
section                    address  length [bytes]      (dec)  Description
-------                 ----------  -------------------------  -----------
.reset                  0x9d006000          0x1e8         488  Reset handler 
.bev_excpt              0x9d006380           0x10          16  BEV-Exception 
         Total kseg1_boot_mem used  :       0x1f8         504  43.2% of 0x490
        --------------------------------------------------------------------------
         Total Program Memory used  :     0x43110      274704  54.5% of 0x7b000
        --------------------------------------------------------------------------


kseg1 Data-Memory Usage
section                    address  length [bytes]      (dec)  Description
-------                 ----------  -------------------------  -----------
.eh_frame               0xa0000004           0x30          48   
.sdata                  0xa0000034           0x40          64  Small init data 
.sbss                   0xa0000074          0x218         536  Small uninit data 
.bss                    0xa000028c            0x4           4  Uninitialized data 
.bss                    0xa0000290          0x128         296  Uninitialized data 
.bss                    0xa00003b8           0x40          64  Uninitialized data 
.bss                    0xa0000400         0x6770       26480  Uninitialized data 
.bss                    0xa0006b70          0x380         896  Uninitialized data 
.data                   0xa0006ef0           0xec         236  Initialized data 
.bss                    0xa0006fdc           0x28          40  Uninitialized data 
.data                   0xa0007004           0x30          48  Initialized data 
.bss                    0xa0007034            0x4           4  Uninitialized data 
.bss                    0xa0007038           0x1c          28  Uninitialized data 
         Total kseg1_data_mem used  :      0x7048       28744  88.4% of 0x7f00
        --------------------------------------------------------------------------
            Total Data Memory used  :      0x7048       28744  88.4% of 0x7f00
        --------------------------------------------------------------------------


Dynamic Data-Memory Reservation
section                    address  length [bytes]      (dec)  Description
-------                 ----------  -------------------------  -----------
heap                    0xa0007058           0x10          16  Reserved for heap 
stack                   0xa0007080          0xe78        3704  Reserved for stack 

        --------------------------------------------------------------------------

Discarded input sections

 .reginfo       0x00000000       0x18 /opt/microchip/xc32/v1.32/bin/bin/../../lib/gcc/pic32mx/4.5.2/../../../../pic32mx/lib/debug-exception-return.o
 .reginfo       0x00000000       0x18 build/debug/production/_ext/71113213/SD-SPI.o
 .reginfo       0x00000000       0x18 build/debug/production/_ext/71113213/FSIO.o
 .reginfo       0x00000000       0x18 build/debug/production/_ext/2096855388/SClib.o
 .reginfo       0x00000000       0x18 build/debug/production/_ext/2096855388/SCpic32.o
 .reginfo       0x00000000       0x18 build/debug/production/_ext/870548313/usb_device.o
 .reginfo       0x00000000       0x18 build/debug/production/_ext/1379786196/usb_function_cdc.o
 .reginfo       0x00000000       0x18 build/debug/production/src/indala.o
 .reginfo       0x00000000       0x18 build/debug/production/src/main.o
 .reginfo       0x00000000       0x18 build/debug/production/src/psk.o
 .reginfo       0x00000000       0x18 build/debug/production/src/usb_descriptors.o
 .reginfo       0x00000000       0x18 build/debug/production/src/util.o
 .reginfo       0x00000000       0x18 build/debug/production/src/emulate.o
 .reginfo       0x00000000       0x18 build/debug/production/src/ask.o
 .reginfo       0x00000000       0x18 build/debug/production/src/fsk.o
 .reginfo       0x00000000       0x18 build/debug/production/src/clock.o
 .reginfo       0x00000000       0x18 build/debug/production/src/rwd.o
 .reginfo       0x00000000       0x18 build/debug/production/src/detect.o
 .reginfo       0x00000000       0x18 build/debug/production/src/hitagcrypto.o
 .reginfo       0x00000000       0x18 build/debug/production/src/wiegand.o
 .reginfo       0x00000000       0x18 build/debug/production/src/comms.o
 .reginfo       0x00000000       0x18 build/debug/production/src/nvm.o
 .reginfo       0x00000000       0x18 build/debug/production/src/mcp414x.o
 .reginfo       0x00000000       0x18 build/debug/production/src/spi.o
 .reginfo       0x00000000       0x18 build/debug/production/src/uart3.o
 .reginfo       0x00000000       0x18 build/debug/production/src/tags.o
 .reginfo       0x00000000       0x18 build/debug/production/src/unique.o
 .reginfo       0x00000000       0x18 build/debug/production/src/led.o
 .reginfo       0x00000000       0x18 build/debug/production/src/em.o
 .reginfo       0x00000000       0x18 build/debug/production/src/hid.o
 .reginfo       0x00000000       0x18 build/debug/production/src/read.o
 .reginfo       0x00000000       0x18 build/debug/production/src/isr.o
 .reginfo       0x00000000       0x18 build/debug/production/src/auto.o
 .reginfo       0x00000000       0x18 build/debug/production/src/fdxb.o
 .reginfo       0x00000000       0x18 build/debug/production/src/hitag.o
 .reginfo       0x00000000       0x18 build/debug/production/src/uid.o
 .reginfo       0x00000000       0x18 build/debug/production/src/login.o
 .reginfo       0x00000000       0x18 build/debug/production/src/write.o
 .reginfo       0x00000000       0x18 build/debug/production/src/auth.o
 .reginfo       0x00000000       0x18 build/debug/production/src/q5.o
 .reginfo       0x00000000       0x18 build/debug/production/src/vtag.o
 .reginfo       0x00000000       0x18 build/debug/production/src/config.o
 .reginfo       0x00000000       0x18 build/debug/production/src/select.o
 .reginfo       0x00000000       0x18 build/debug/production/src/sdcard.o
 .reginfo       0x00000000       0x18 build/debug/production/src/debug_pins.o
 .reginfo       0x00000000       0x18 build/debug/production/src/awid.o
 .reginfo       0x00000000       0x18 build/debug/production/src/analogue.o
 .reginfo       0x00000000       0x18 build/debug/production/src/iso7816.o
 .reginfo       0x00000000       0x18 /opt/microchip/xc32/v1.32/pic32mx/lib/libmchp_peripheral_32MX795F512L.a(soft_reset_lib.o)
 .pdr           0x00000000       0x20 /opt/microchip/xc32/v1.32/pic32mx/lib/libmchp_peripheral_32MX795F512L.a(soft_reset_lib.o)
 .reginfo       0x00000000       0x18 /opt/microchip/xc32/v1.32/pic32mx/lib/libmchp_peripheral_32MX795F512L.a(pcache.o)
 .pdr           0x00000000       0x40 /opt/microchip/xc32/v1.32/pic32mx/lib/libmchp_peripheral_32MX795F512L.a(pcache.o)
 .reginfo       0x00000000       0x18 /opt/microchip/xc32/v1.32/pic32mx/lib/libmchp_peripheral_32MX795F512L.a(int_configure_system_lib.o)
 .pdr           0x00000000       0x20 /opt/microchip/xc32/v1.32/pic32mx/lib/libmchp_peripheral_32MX795F512L.a(int_configure_system_lib.o)
 .reginfo       0x00000000       0x18 /opt/microchip/xc32/v1.32/pic32mx/lib/libmchp_peripheral_32MX795F512L.a(int_enable_interrupts_lib.o)
 .pdr           0x00000000       0x20 /opt/microchip/xc32/v1.32/pic32mx/lib/libmchp_peripheral_32MX795F512L.a(int_enable_interrupts_lib.o)
 .reginfo       0x00000000       0x18 /opt/microchip/xc32/v1.32/pic32mx/lib/libmchp_peripheral_32MX795F512L.a(int_disable_interrupts_lib.o)
 .pdr           0x00000000       0x20 /opt/microchip/xc32/v1.32/pic32mx/lib/libmchp_peripheral_32MX795F512L.a(int_disable_interrupts_lib.o)
 .reginfo       0x00000000       0x18 /opt/microchip/xc32/v1.32/pic32mx/lib/libmchp_peripheral_32MX795F512L.a(int_restore_interrupts_lib.o)
 .pdr           0x00000000       0x20 /opt/microchip/xc32/v1.32/pic32mx/lib/libmchp_peripheral_32MX795F512L.a(int_restore_interrupts_lib.o)
 .reginfo       0x00000000       0x18 /opt/microchip/xc32/v1.32/pic32mx/lib/libmchp_peripheral_32MX795F512L.a(int_enable_mv_int_lib.o)
 .pdr           0x00000000       0x20 /opt/microchip/xc32/v1.32/pic32mx/lib/libmchp_peripheral_32MX795F512L.a(int_enable_mv_int_lib.o)
 .reginfo       0x00000000       0x18 /opt/microchip/xc32/v1.32/pic32mx/lib/libmchp_peripheral_32MX795F512L.a(int_tbl_lib.o)
 .pdr           0x00000000      0x120 /opt/microchip/xc32/v1.32/pic32mx/lib/libmchp_peripheral_32MX795F512L.a(int_tbl_lib.o)
 .reginfo       0x00000000       0x18 /opt/microchip/xc32/v1.32/pic32mx/lib/libmchp_peripheral_32MX795F512L.a(spi_chn_close_lib.o)
 .pdr           0x00000000       0x20 /opt/microchip/xc32/v1.32/pic32mx/lib/libmchp_peripheral_32MX795F512L.a(spi_chn_close_lib.o)
 .reginfo       0x00000000       0x18 /opt/microchip/xc32/v1.32/pic32mx/lib/libmchp_peripheral_32MX795F512L.a(spi_chn_open_lib.o)
 .pdr           0x00000000       0x20 /opt/microchip/xc32/v1.32/pic32mx/lib/libmchp_peripheral_32MX795F512L.a(spi_chn_open_lib.o)
 .reginfo       0x00000000       0x18 /opt/microchip/xc32/v1.32/pic32mx/lib/libmchp_peripheral_32MX795F512L.a(spi_io_tbl_libp.o)
 .pdr           0x00000000        0x0 /opt/microchip/xc32/v1.32/pic32mx/lib/libmchp_peripheral_32MX795F512L.a(spi_io_tbl_libp.o)
 .reginfo       0x00000000       0x18 /opt/microchip/xc32/v1.32/pic32mx/lib/libmchp_peripheral_32MX795F512L.a(spi_map_tbl_libp.o)
 .pdr           0x00000000        0x0 /opt/microchip/xc32/v1.32/pic32mx/lib/libmchp_peripheral_32MX795F512L.a(spi_map_tbl_libp.o)
 .reginfo       0x00000000       0x18 /opt/microchip/xc32/v1.32/pic32mx/lib/libmchp_peripheral_32MX795F512L.a(spi_getc_spi1_lib_legacy.o)
 .pdr           0x00000000       0x20 /opt/microchip/xc32/v1.32/pic32mx/lib/libmchp_peripheral_32MX795F512L.a(spi_getc_spi1_lib_legacy.o)
 .reginfo       0x00000000       0x18 /opt/microchip/xc32/v1.32/pic32mx/lib/libmchp_peripheral_32MX795F512L.a(spi_open_spi1_lib_legacy.o)
 .pdr           0x00000000       0x20 /opt/microchip/xc32/v1.32/pic32mx/lib/libmchp_peripheral_32MX795F512L.a(spi_open_spi1_lib_legacy.o)
 .reginfo       0x00000000       0x18 /opt/microchip/xc32/v1.32/pic32mx/lib/libmchp_peripheral_32MX795F512L.a(spi_brg_tbl_lib_legacy.o)
 .pdr           0x00000000        0x0 /opt/microchip/xc32/v1.32/pic32mx/lib/libmchp_peripheral_32MX795F512L.a(spi_brg_tbl_lib_legacy.o)
 .reginfo       0x00000000       0x18 /opt/microchip/xc32/v1.32/pic32mx/lib/libmchp_peripheral_32MX795F512L.a(nvm_erase_page_lib.o)
 .pdr           0x00000000       0x20 /opt/microchip/xc32/v1.32/pic32mx/lib/libmchp_peripheral_32MX795F512L.a(nvm_erase_page_lib.o)
 .reginfo       0x00000000       0x18 /opt/microchip/xc32/v1.32/pic32mx/lib/libmchp_peripheral_32MX795F512L.a(nvm_operation_lib.o)
 .pdr           0x00000000       0x20 /opt/microchip/xc32/v1.32/pic32mx/lib/libmchp_peripheral_32MX795F512L.a(nvm_operation_lib.o)
 .reginfo       0x00000000       0x18 /opt/microchip/xc32/v1.32/pic32mx/lib/libmchp_peripheral_32MX795F512L.a(nvm_program_lib.o)
 .pdr           0x00000000       0x20 /opt/microchip/xc32/v1.32/pic32mx/lib/libmchp_peripheral_32MX795F512L.a(nvm_program_lib.o)
 .reginfo       0x00000000       0x18 /opt/microchip/xc32/v1.32/pic32mx/lib/libmchp_peripheral_32MX795F512L.a(nvm_write_row_lib.o)
 .pdr           0x00000000       0x20 /opt/microchip/xc32/v1.32/pic32mx/lib/libmchp_peripheral_32MX795F512L.a(nvm_write_row_lib.o)
 .reginfo       0x00000000       0x18 /opt/microchip/xc32/v1.32/pic32mx/lib/libmchp_peripheral_32MX795F512L.a(port_reset_pins_lib.o)
 .pdr           0x00000000       0x20 /opt/microchip/xc32/v1.32/pic32mx/lib/libmchp_peripheral_32MX795F512L.a(port_reset_pins_lib.o)
 .reginfo       0x00000000       0x18 /opt/microchip/xc32/v1.32/pic32mx/lib/libmchp_peripheral_32MX795F512L.a(port_set_pins_digital_in_lib.o)
 .pdr           0x00000000       0x20 /opt/microchip/xc32/v1.32/pic32mx/lib/libmchp_peripheral_32MX795F512L.a(port_set_pins_digital_in_lib.o)
 .reginfo       0x00000000       0x18 /opt/microchip/xc32/v1.32/pic32mx/lib/libmchp_peripheral_32MX795F512L.a(port_set_pins_digital_out_lib.o)
 .pdr           0x00000000       0x20 /opt/microchip/xc32/v1.32/pic32mx/lib/libmchp_peripheral_32MX795F512L.a(port_set_pins_digital_out_lib.o)
 .reginfo       0x00000000       0x18 /opt/microchip/xc32/v1.32/pic32mx/lib/libmchp_peripheral_32MX795F512L.a(_ports_tbl_libp.o)
 .pdr           0x00000000        0x0 /opt/microchip/xc32/v1.32/pic32mx/lib/libmchp_peripheral_32MX795F512L.a(_ports_tbl_libp.o)
 .reginfo       0x00000000       0x18 /opt/microchip/xc32/v1.32/bin/bin/../../lib/gcc/pic32mx/4.5.2/../../../../pic32mx/lib/./proc/32MX795F512L/default_isr_vectors.o
 .discard       0x00000000      0x100 /opt/microchip/xc32/v1.32/bin/bin/../../lib/gcc/pic32mx/4.5.2/../../../../pic32mx/lib/./proc/32MX795F512L/default_isr_vectors.o
 .reginfo       0x00000000       0x18 /opt/microchip/xc32/v1.32/bin/bin/../../lib/gcc/pic32mx/4.5.2/../../../../pic32mx/lib/pic32_software_reset.o
 .reginfo       0x00000000       0x18 /opt/microchip/xc32/v1.32/bin/bin/../../lib/gcc/pic32mx/4.5.2/../../../../pic32mx/lib/./proc/32MX795F512L/processor.o
 .reginfo       0x00000000       0x18 /opt/microchip/xc32/v1.32/bin/bin/../../lib/gcc/pic32mx/4.5.2/libgcc.a(_udivdi3.o)
 .reginfo       0x00000000       0x18 /opt/microchip/xc32/v1.32/bin/bin/../../lib/gcc/pic32mx/4.5.2/../../../../pic32mx/lib/libpic32.a(memcmp.o)
 .reginfo       0x00000000       0x18 /opt/microchip/xc32/v1.32/bin/bin/../../lib/gcc/pic32mx/4.5.2/../../../../pic32mx/lib/libpic32.a(memcpy.o)
 .reginfo       0x00000000       0x18 /opt/microchip/xc32/v1.32/bin/bin/../../lib/gcc/pic32mx/4.5.2/../../../../pic32mx/lib/libpic32.a(memset.o)
 .reginfo       0x00000000       0x18 /opt/microchip/xc32/v1.32/bin/bin/../../lib/gcc/pic32mx/4.5.2/../../../../pic32mx/lib/libpic32.a(strcmp.o)
 .reginfo       0x00000000       0x18 /opt/microchip/xc32/v1.32/bin/bin/../../lib/gcc/pic32mx/4.5.2/../../../../pic32mx/lib/libpic32.a(strcpy.o)
 .reginfo       0x00000000       0x18 /opt/microchip/xc32/v1.32/bin/bin/../../lib/gcc/pic32mx/4.5.2/../../../../pic32mx/lib/libpic32.a(strlen.o)
 .reginfo       0x00000000       0x18 /opt/microchip/xc32/v1.32/bin/bin/../../lib/gcc/pic32mx/4.5.2/../../../../pic32mx/lib/libpic32.a(default-bootstrap-exception-handler.o)
 .reginfo       0x00000000       0x18 /opt/microchip/xc32/v1.32/bin/bin/../../lib/gcc/pic32mx/4.5.2/../../../../pic32mx/lib/libpic32.a(default-on-reset.o)
 .reginfo       0x00000000       0x18 /opt/microchip/xc32/v1.32/bin/bin/../../lib/gcc/pic32mx/4.5.2/../../../../pic32mx/lib/libpic32.a(default-on-bootstrap.o)
 .reginfo       0x00000000       0x18 /opt/microchip/xc32/v1.32/bin/bin/../../lib/gcc/pic32mx/4.5.2/../../../../pic32mx/lib/libpic32.a(default-nmi-handler.o)
 .reginfo       0x00000000       0x18 /opt/microchip/xc32/v1.32/bin/bin/../../lib/gcc/pic32mx/4.5.2/../../../../pic32mx/lib/libpic32.a(general-exception.o)
 .reginfo       0x00000000       0x18 /opt/microchip/xc32/v1.32/bin/bin/../../lib/gcc/pic32mx/4.5.2/../../../../pic32mx/lib/libpic32.a(vector0.o)
 .reginfo       0x00000000       0x18 /opt/microchip/xc32/v1.32/bin/bin/../../lib/gcc/pic32mx/4.5.2/../../../../pic32mx/lib/libpic32.a(vector1.o)
 .reginfo       0x00000000       0x18 /opt/microchip/xc32/v1.32/bin/bin/../../lib/gcc/pic32mx/4.5.2/../../../../pic32mx/lib/libpic32.a(vector2.o)
 .reginfo       0x00000000       0x18 /opt/microchip/xc32/v1.32/bin/bin/../../lib/gcc/pic32mx/4.5.2/../../../../pic32mx/lib/libpic32.a(vector3.o)
 .reginfo       0x00000000       0x18 /opt/microchip/xc32/v1.32/bin/bin/../../lib/gcc/pic32mx/4.5.2/../../../../pic32mx/lib/libpic32.a(vector5.o)
 .reginfo       0x00000000       0x18 /opt/microchip/xc32/v1.32/bin/bin/../../lib/gcc/pic32mx/4.5.2/../../../../pic32mx/lib/libpic32.a(vector6.o)
 .reginfo       0x00000000       0x18 /opt/microchip/xc32/v1.32/bin/bin/../../lib/gcc/pic32mx/4.5.2/../../../../pic32mx/lib/libpic32.a(vector7.o)
 .reginfo       0x00000000       0x18 /opt/microchip/xc32/v1.32/bin/bin/../../lib/gcc/pic32mx/4.5.2/../../../../pic32mx/lib/libpic32.a(vector8.o)
 .reginfo       0x00000000       0x18 /opt/microchip/xc32/v1.32/bin/bin/../../lib/gcc/pic32mx/4.5.2/../../../../pic32mx/lib/libpic32.a(vector9.o)
 .reginfo       0x00000000       0x18 /opt/microchip/xc32/v1.32/bin/bin/../../lib/gcc/pic32mx/4.5.2/../../../../pic32mx/lib/libpic32.a(vector10.o)
 .reginfo       0x00000000       0x18 /opt/microchip/xc32/v1.32/bin/bin/../../lib/gcc/pic32mx/4.5.2/../../../../pic32mx/lib/libpic32.a(vector11.o)
 .reginfo       0x00000000       0x18 /opt/microchip/xc32/v1.32/bin/bin/../../lib/gcc/pic32mx/4.5.2/../../../../pic32mx/lib/libpic32.a(vector13.o)
 .reginfo       0x00000000       0x18 /opt/microchip/xc32/v1.32/bin/bin/../../lib/gcc/pic32mx/4.5.2/../../../../pic32mx/lib/libpic32.a(vector14.o)
 .reginfo       0x00000000       0x18 /opt/microchip/xc32/v1.32/bin/bin/../../lib/gcc/pic32mx/4.5.2/../../../../pic32mx/lib/libpic32.a(vector15.o)
 .reginfo       0x00000000       0x18 /opt/microchip/xc32/v1.32/bin/bin/../../lib/gcc/pic32mx/4.5.2/../../../../pic32mx/lib/libpic32.a(vector17.o)
 .reginfo       0x00000000       0x18 /opt/microchip/xc32/v1.32/bin/bin/../../lib/gcc/pic32mx/4.5.2/../../../../pic32mx/lib/libpic32.a(vector18.o)
 .reginfo       0x00000000       0x18 /opt/microchip/xc32/v1.32/bin/bin/../../lib/gcc/pic32mx/4.5.2/../../../../pic32mx/lib/libpic32.a(vector19.o)
 .reginfo       0x00000000       0x18 /opt/microchip/xc32/v1.32/bin/bin/../../lib/gcc/pic32mx/4.5.2/../../../../pic32mx/lib/libpic32.a(vector20.o)
 .reginfo       0x00000000       0x18 /opt/microchip/xc32/v1.32/bin/bin/../../lib/gcc/pic32mx/4.5.2/../../../../pic32mx/lib/libpic32.a(vector21.o)
 .reginfo       0x00000000       0x18 /opt/microchip/xc32/v1.32/bin/bin/../../lib/gcc/pic32mx/4.5.2/../../../../pic32mx/lib/libpic32.a(vector23.o)
 .reginfo       0x00000000       0x18 /opt/microchip/xc32/v1.32/bin/bin/../../lib/gcc/pic32mx/4.5.2/../../../../pic32mx/lib/libpic32.a(vector24.o)
 .reginfo       0x00000000       0x18 /opt/microchip/xc32/v1.32/bin/bin/../../lib/gcc/pic32mx/4.5.2/../../../../pic32mx/lib/libpic32.a(vector25.o)
 .reginfo       0x00000000       0x18 /opt/microchip/xc32/v1.32/bin/bin/../../lib/gcc/pic32mx/4.5.2/../../../../pic32mx/lib/libpic32.a(vector26.o)
 .reginfo       0x00000000       0x18 /opt/microchip/xc32/v1.32/bin/bin/../../lib/gcc/pic32mx/4.5.2/../../../../pic32mx/lib/libpic32.a(vector27.o)
 .reginfo       0x00000000       0x18 /opt/microchip/xc32/v1.32/bin/bin/../../lib/gcc/pic32mx/4.5.2/../../../../pic32mx/lib/libpic32.a(vector28.o)
 .reginfo       0x00000000       0x18 /opt/microchip/xc32/v1.32/bin/bin/../../lib/gcc/pic32mx/4.5.2/../../../../pic32mx/lib/libpic32.a(vector29.o)
 .reginfo       0x00000000       0x18 /opt/microchip/xc32/v1.32/bin/bin/../../lib/gcc/pic32mx/4.5.2/../../../../pic32mx/lib/libpic32.a(vector30.o)
 .reginfo       0x00000000       0x18 /opt/microchip/xc32/v1.32/bin/bin/../../lib/gcc/pic32mx/4.5.2/../../../../pic32mx/lib/libpic32.a(vector31.o)
 .reginfo       0x00000000       0x18 /opt/microchip/xc32/v1.32/bin/bin/../../lib/gcc/pic32mx/4.5.2/../../../../pic32mx/lib/libpic32.a(vector32.o)
 .reginfo       0x00000000       0x18 /opt/microchip/xc32/v1.32/bin/bin/../../lib/gcc/pic32mx/4.5.2/../../../../pic32mx/lib/libpic32.a(vector33.o)
 .reginfo       0x00000000       0x18 /opt/microchip/xc32/v1.32/bin/bin/../../lib/gcc/pic32mx/4.5.2/../../../../pic32mx/lib/libpic32.a(vector34.o)
 .reginfo       0x00000000       0x18 /opt/microchip/xc32/v1.32/bin/bin/../../lib/gcc/pic32mx/4.5.2/../../../../pic32mx/lib/libpic32.a(vector35.o)
 .reginfo       0x00000000       0x18 /opt/microchip/xc32/v1.32/bin/bin/../../lib/gcc/pic32mx/4.5.2/../../../../pic32mx/lib/libpic32.a(vector36.o)
 .reginfo       0x00000000       0x18 /opt/microchip/xc32/v1.32/bin/bin/../../lib/gcc/pic32mx/4.5.2/../../../../pic32mx/lib/libpic32.a(vector37.o)
 .reginfo       0x00000000       0x18 /opt/microchip/xc32/v1.32/bin/bin/../../lib/gcc/pic32mx/4.5.2/../../../../pic32mx/lib/libpic32.a(vector38.o)
 .reginfo       0x00000000       0x18 /opt/microchip/xc32/v1.32/bin/bin/../../lib/gcc/pic32mx/4.5.2/../../../../pic32mx/lib/libpic32.a(vector39.o)
 .reginfo       0x00000000       0x18 /opt/microchip/xc32/v1.32/bin/bin/../../lib/gcc/pic32mx/4.5.2/../../../../pic32mx/lib/libpic32.a(vector40.o)
 .reginfo       0x00000000       0x18 /opt/microchip/xc32/v1.32/bin/bin/../../lib/gcc/pic32mx/4.5.2/../../../../pic32mx/lib/libpic32.a(vector41.o)
 .reginfo       0x00000000       0x18 /opt/microchip/xc32/v1.32/bin/bin/../../lib/gcc/pic32mx/4.5.2/../../../../pic32mx/lib/libpic32.a(vector42.o)
 .reginfo       0x00000000       0x18 /opt/microchip/xc32/v1.32/bin/bin/../../lib/gcc/pic32mx/4.5.2/../../../../pic32mx/lib/libpic32.a(vector43.o)
 .reginfo       0x00000000       0x18 /opt/microchip/xc32/v1.32/bin/bin/../../lib/gcc/pic32mx/4.5.2/../../../../pic32mx/lib/libpic32.a(vector44.o)
 .reginfo       0x00000000       0x18 /opt/microchip/xc32/v1.32/bin/bin/../../lib/gcc/pic32mx/4.5.2/../../../../pic32mx/lib/libpic32.a(vector46.o)
 .reginfo       0x00000000       0x18 /opt/microchip/xc32/v1.32/bin/bin/../../lib/gcc/pic32mx/4.5.2/../../../../pic32mx/lib/libpic32.a(vector47.o)
 .reginfo       0x00000000       0x18 /opt/microchip/xc32/v1.32/bin/bin/../../lib/gcc/pic32mx/4.5.2/../../../../pic32mx/lib/libpic32.a(vector48.o)
 .reginfo       0x00000000       0x18 /opt/microchip/xc32/v1.32/bin/bin/../../lib/gcc/pic32mx/4.5.2/../../../../pic32mx/lib/libpic32.a(vector49.o)
 .reginfo       0x00000000       0x18 /opt/microchip/xc32/v1.32/bin/bin/../../lib/gcc/pic32mx/4.5.2/../../../../pic32mx/lib/libpic32.a(vector50.o)
 .reginfo       0x00000000       0x18 /opt/microchip/xc32/v1.32/bin/bin/../../lib/gcc/pic32mx/4.5.2/../../../../pic32mx/lib/libpic32.a(vector51.o)
 .reginfo       0x00000000       0x18 /opt/microchip/xc32/v1.32/bin/bin/../../lib/gcc/pic32mx/4.5.2/../../../../pic32mx/lib/libpic32.a(vector52.o)
 .reginfo       0x00000000       0x18 /opt/microchip/xc32/v1.32/bin/bin/../../lib/gcc/pic32mx/4.5.2/../../../../pic32mx/lib/libpic32.a(vector53.o)
 .reginfo       0x00000000       0x18 /opt/microchip/xc32/v1.32/bin/bin/../../lib/gcc/pic32mx/4.5.2/../../../../pic32mx/lib/libpic32.a(vector54.o)
 .reginfo       0x00000000       0x18 /opt/microchip/xc32/v1.32/bin/bin/../../lib/gcc/pic32mx/4.5.2/../../../../pic32mx/lib/libpic32.a(vector55.o)
 .reginfo       0x00000000       0x18 /opt/microchip/xc32/v1.32/bin/bin/../../lib/gcc/pic32mx/4.5.2/../../../../pic32mx/lib/libpic32.a(vector56.o)
 .reginfo       0x00000000       0x18 /opt/microchip/xc32/v1.32/bin/bin/../../lib/gcc/pic32mx/4.5.2/../../../../pic32mx/lib/libpic32.a(vector57.o)
 .reginfo       0x00000000       0x18 /opt/microchip/xc32/v1.32/bin/bin/../../lib/gcc/pic32mx/4.5.2/../../../../pic32mx/lib/libpic32.a(vector58.o)
 .reginfo       0x00000000       0x18 /opt/microchip/xc32/v1.32/bin/bin/../../lib/gcc/pic32mx/4.5.2/../../../../pic32mx/lib/libpic32.a(vector59.o)
 .reginfo       0x00000000       0x18 /opt/microchip/xc32/v1.32/bin/bin/../../lib/gcc/pic32mx/4.5.2/../../../../pic32mx/lib/libpic32.a(vector60.o)
 .reginfo       0x00000000       0x18 /opt/microchip/xc32/v1.32/bin/bin/../../lib/gcc/pic32mx/4.5.2/../../../../pic32mx/lib/libpic32.a(vector61.o)
 .reginfo       0x00000000       0x18 /opt/microchip/xc32/v1.32/bin/bin/../../lib/gcc/pic32mx/4.5.2/../../../../pic32mx/lib/libpic32.a(vector62.o)
 .reginfo       0x00000000       0x18 /opt/microchip/xc32/v1.32/bin/bin/../../lib/gcc/pic32mx/4.5.2/../../../../pic32mx/lib/libpic32.a(vector63.o)
 .reginfo       0x00000000       0x18 /opt/microchip/xc32/v1.32/bin/bin/../../lib/gcc/pic32mx/4.5.2/../../../../pic32mx/lib/libpic32.a(default-general-exception-handler.o)
 .reginfo       0x00000000       0x18 /opt/microchip/xc32/v1.32/bin/bin/../../lib/gcc/pic32mx/4.5.2/../../../../pic32mx/lib/libpic32.a(defaultinterrupt.o)
 .reginfo       0x00000000       0x18 /opt/microchip/xc32/v1.32/bin/bin/../../lib/gcc/pic32mx/4.5.2/../../../../pic32mx/lib/libm.a(fp32div.o)
 .reginfo       0x00000000       0x18 /opt/microchip/xc32/v1.32/bin/bin/../../lib/gcc/pic32mx/4.5.2/../../../../pic32mx/lib/libm.a(fp32mul.o)
 .reginfo       0x00000000       0x18 /opt/microchip/xc32/v1.32/bin/bin/../../lib/gcc/pic32mx/4.5.2/../../../../pic32mx/lib/libm.a(fp32subadd.o)
 .reginfo       0x00000000       0x18 /opt/microchip/xc32/v1.32/bin/bin/../../lib/gcc/pic32mx/4.5.2/../../../../pic32mx/lib/libm.a(fpcmp.o)
 .reginfo       0x00000000       0x18 /opt/microchip/xc32/v1.32/bin/bin/../../lib/gcc/pic32mx/4.5.2/../../../../pic32mx/lib/libm.a(fptoli.o)
 .reginfo       0x00000000       0x18 /opt/microchip/xc32/v1.32/bin/bin/../../lib/gcc/pic32mx/4.5.2/../../../../pic32mx/lib/libm.a(fptoul.o)
 .reginfo       0x00000000       0x18 /opt/microchip/xc32/v1.32/bin/bin/../../lib/gcc/pic32mx/4.5.2/../../../../pic32mx/lib/libc.a(ctypef.o)
 .reginfo       0x00000000       0x18 /opt/microchip/xc32/v1.32/bin/bin/../../lib/gcc/pic32mx/4.5.2/../../../../pic32mx/lib/libc.a(rand.o)
 .reginfo       0x00000000       0x18 /opt/microchip/xc32/v1.32/bin/bin/../../lib/gcc/pic32mx/4.5.2/../../../../pic32mx/lib/libc.a(strncmp.o)
 .reginfo       0x00000000       0x18 /opt/microchip/xc32/v1.32/bin/bin/../../lib/gcc/pic32mx/4.5.2/../../../../pic32mx/lib/libc.a(strncpy.o)
 .reginfo       0x00000000       0x18 /opt/microchip/xc32/v1.32/bin/bin/../../lib/gcc/pic32mx/4.5.2/../../../../pic32mx/lib/libc.a(sprintf_cdnopuxX.eo)
 .reginfo       0x00000000       0x18 /opt/microchip/xc32/v1.32/bin/bin/../../lib/gcc/pic32mx/4.5.2/../../../../pic32mx/lib/libc.a(sprintf.o)
 .reginfo       0x00000000       0x18 /opt/microchip/xc32/v1.32/bin/bin/../../lib/gcc/pic32mx/4.5.2/../../../../pic32mx/lib/libc.a(sscanf_cdfFnopsuxX.eo)
 .reginfo       0x00000000       0x18 /opt/microchip/xc32/v1.32/bin/bin/../../lib/gcc/pic32mx/4.5.2/../../../../pic32mx/lib/libc.a(ctype.o)
 .reginfo       0x00000000       0x18 /opt/microchip/xc32/v1.32/bin/bin/../../lib/gcc/pic32mx/4.5.2/../../../../pic32mx/lib/libc.a(doprnt_cdnopuxX.eo)
 .reginfo       0x00000000       0x18 /opt/microchip/xc32/v1.32/bin/bin/../../lib/gcc/pic32mx/4.5.2/../../../../pic32mx/lib/libc.a(doprnt.o)
 .reginfo       0x00000000       0x18 /opt/microchip/xc32/v1.32/bin/bin/../../lib/gcc/pic32mx/4.5.2/../../../../pic32mx/lib/libc.a(doscan_cdfFnopsuxX.eo)
 .reginfo       0x00000000       0x18 /opt/microchip/xc32/v1.32/bin/bin/../../lib/gcc/pic32mx/4.5.2/../../../../pic32mx/lib/libc.a(doscan_cdnopuxX.eo)
 .reginfo       0x00000000       0x18 /opt/microchip/xc32/v1.32/bin/bin/../../lib/gcc/pic32mx/4.5.2/../../../../pic32mx/lib/libc.a(fgetc.o)
 .reginfo       0x00000000       0x18 /opt/microchip/xc32/v1.32/bin/bin/../../lib/gcc/pic32mx/4.5.2/../../../../pic32mx/lib/libc.a(_fputc_simple.o)
 .reginfo       0x00000000       0x18 /opt/microchip/xc32/v1.32/bin/bin/../../lib/gcc/pic32mx/4.5.2/../../../../pic32mx/lib/libc.a(atoi.o)
 .reginfo       0x00000000       0x18 /opt/microchip/xc32/v1.32/bin/bin/../../lib/gcc/pic32mx/4.5.2/../../../../pic32mx/lib/libc.a(powersf.o)
 .reginfo       0x00000000       0x18 /opt/microchip/xc32/v1.32/bin/bin/../../lib/gcc/pic32mx/4.5.2/../../../../pic32mx/lib/libc.a(strtod.o)
 .reginfo       0x00000000       0x18 /opt/microchip/xc32/v1.32/bin/bin/../../lib/gcc/pic32mx/4.5.2/../../../../pic32mx/lib/libc.a(strtof.o)
 .reginfo       0x00000000       0x18 /opt/microchip/xc32/v1.32/bin/bin/../../lib/gcc/pic32mx/4.5.2/../../../../pic32mx/lib/libc.a(ungetc.o)
 .reginfo       0x00000000       0x18 /opt/microchip/xc32/v1.32/bin/bin/../../lib/gcc/pic32mx/4.5.2/../../../../pic32mx/lib/libc.a(_iob.o)
 .reginfo       0x00000000       0x18 /opt/microchip/xc32/v1.32/bin/bin/../../lib/gcc/pic32mx/4.5.2/../../../../pic32mx/lib/libc.a(filbuf.o)
 .reginfo       0x00000000       0x18 /opt/microchip/xc32/v1.32/bin/bin/../../lib/gcc/pic32mx/4.5.2/../../../../pic32mx/lib/libc.a(_flsbuf_simple.o)
 .reginfo       0x00000000       0x18 /opt/microchip/xc32/v1.32/bin/bin/../../lib/gcc/pic32mx/4.5.2/../../../../pic32mx/lib/libc.a(fflush.o)
 .reginfo       0x00000000       0x18 /opt/microchip/xc32/v1.32/bin/bin/../../lib/gcc/pic32mx/4.5.2/../../../../pic32mx/lib/libpic32.a(read.o)
 .reginfo       0x00000000       0x18 /opt/microchip/xc32/v1.32/bin/bin/../../lib/gcc/pic32mx/4.5.2/../../../../pic32mx/lib/libpic32.a(write.o)
 .reginfo       0x00000000       0x18 /opt/microchip/xc32/v1.32/bin/bin/../../lib/gcc/pic32mx/4.5.2/../../../../pic32mx/lib/libpic32.a(xc32_uart.o)
 .reginfo       0x00000000       0x18 /opt/microchip/xc32/v1.32/bin/bin/../../lib/gcc/pic32mx/4.5.2/../../../../pic32mx/lib/libpic32.a(_mon_putc.o)
 .reginfo       0x00000000       0x18 /opt/microchip/xc32/v1.32/bin/bin/../../lib/gcc/pic32mx/4.5.2/../../../../pic32mx/lib/libm.a(dptofp.o)
 .reginfo       0x00000000       0x18 /opt/microchip/xc32/v1.32/bin/bin/../../lib/gcc/pic32mx/4.5.2/../../../../pic32mx/lib/libm.a(fpfrexp.o)
 .reginfo       0x00000000       0x18 /opt/microchip/xc32/v1.32/bin/bin/../../lib/gcc/pic32mx/4.5.2/../../../../pic32mx/lib/libm.a(fptodp.o)
 .reginfo       0x00000000       0x18 /opt/microchip/xc32/v1.32/bin/bin/../../lib/gcc/pic32mx/4.5.2/../../../../pic32mx/lib/libm.a(__strtod.o)
 .reginfo       0x00000000       0x18 /opt/microchip/xc32/v1.32/bin/bin/../../lib/gcc/pic32mx/4.5.2/../../../../pic32mx/lib/libm.a(__strtof.o)
 .reginfo       0x00000000       0x18 /opt/microchip/xc32/v1.32/bin/bin/../../lib/gcc/pic32mx/4.5.2/../../../../pic32mx/lib/libm.a(dp32div.o)
 .reginfo       0x00000000       0x18 /opt/microchip/xc32/v1.32/bin/bin/../../lib/gcc/pic32mx/4.5.2/../../../../pic32mx/lib/libm.a(dp32mul.o)
 .reginfo       0x00000000       0x18 /opt/microchip/xc32/v1.32/bin/bin/../../lib/gcc/pic32mx/4.5.2/../../../../pic32mx/lib/libm.a(dp32subadd.o)
 .reginfo       0x00000000       0x18 /opt/microchip/xc32/v1.32/bin/bin/../../lib/gcc/pic32mx/4.5.2/../../../../pic32mx/lib/libm.a(litodp.o)
 .reginfo       0x00000000       0x18 /opt/microchip/xc32/v1.32/bin/bin/../../lib/gcc/pic32mx/4.5.2/../../../../pic32mx/lib/libm.a(negdf2.o)
 .reginfo       0x00000000       0x18 /opt/microchip/xc32/v1.32/bin/bin/../../lib/gcc/pic32mx/4.5.2/../../../../pic32mx/lib/libm.a(negsf2.o)
 .reginfo       0x00000000       0x18 /opt/microchip/xc32/v1.32/bin/bin/../../lib/gcc/pic32mx/4.5.2/../../../../pic32mx/lib/libm.a(sitofp.o)
 .reginfo       0x00000000       0x18 /opt/microchip/xc32/v1.32/bin/bin/../../lib/gcc/pic32mx/4.5.2/../../../../pic32mx/lib/libe.a(_floatdisf.o)
 .reginfo       0x00000000       0x18 /opt/microchip/xc32/v1.32/bin/bin/../../lib/gcc/pic32mx/4.5.2/../../../../pic32mx/lib/libe.a(_ldexp.o)
 .reginfo       0x00000000       0x18 /opt/microchip/xc32/v1.32/bin/bin/../../lib/gcc/pic32mx/4.5.2/../../../../pic32mx/lib/libe.a(_ldexpf.o)
 .reginfo       0x00000000       0x18 /opt/microchip/xc32/v1.32/bin/bin/../../lib/gcc/pic32mx/4.5.2/libgcc.a(_lshrdi3.o)
 .reginfo       0x00000000       0x18 /opt/microchip/xc32/v1.32/bin/bin/../../lib/gcc/pic32mx/4.5.2/libgcc.a(_ashldi3.o)
 .reginfo       0x00000000       0x18 /opt/microchip/xc32/v1.32/bin/bin/../../lib/gcc/pic32mx/4.5.2/libgcc.a(_floatundisf.o)
 .reginfo       0x00000000       0x18 /opt/microchip/xc32/v1.32/bin/bin/../../lib/gcc/pic32mx/4.5.2/libgcc.a(_umoddi3.o)
 .reginfo       0x00000000       0x18 /opt/microchip/xc32/v1.32/bin/bin/../../lib/gcc/pic32mx/4.5.2/libgcc.a(floatunsisf.o)
 .reginfo       0x00000000       0x18 /opt/microchip/xc32/v1.32/bin/bin/../../lib/gcc/pic32mx/4.5.2/../../../../pic32mx/lib/libc.a(errno.o)

Memory Configuration

Name             Origin             Length             Attributes
kseg0_program_mem 0x9d006e00         0x00079200         xr
kseg0_boot_mem   0x9d006490         0x00000970
exception_mem    0x9d005000         0x00001000
kseg1_boot_mem   0x9d006000         0x00000490
debug_exec_mem   0xbfc02000         0x00000ff0
config3          0xbfc02ff0         0x00000004
config2          0xbfc02ff4         0x00000004
config1          0xbfc02ff8         0x00000004
config0          0xbfc02ffc         0x00000004
boot_software_key 0xa0000000         0x00000004
kseg1_data_mem   0xa0000004         0x00007f00         w !x
sfrs             0xbf800000         0x00100000
configsfrs       0xbfc02ff0         0x00000010
*default*        0x00000000         0xffffffff

Linker script and memory map

LOAD /opt/microchip/xc32/v1.32/bin/bin/../../lib/gcc/pic32mx/4.5.2/../../../../pic32mx/lib/./proc/32MX795F512L/crt0_mips32r2.o
LOAD /opt/microchip/xc32/v1.32/bin/bin/../../lib/gcc/pic32mx/4.5.2/../../../../pic32mx/lib/debug-exception-return.o
LOAD build/debug/production/_ext/71113213/SD-SPI.o
LOAD build/debug/production/_ext/71113213/FSIO.o
LOAD build/debug/production/_ext/2096855388/SClib.o
LOAD build/debug/production/_ext/2096855388/SCpic32.o
LOAD build/debug/production/_ext/870548313/usb_device.o
LOAD build/debug/production/_ext/1379786196/usb_function_cdc.o
LOAD build/debug/production/src/indala.o
LOAD build/debug/production/src/main.o
LOAD build/debug/production/src/psk.o
LOAD build/debug/production/src/usb_descriptors.o
LOAD build/debug/production/src/util.o
LOAD build/debug/production/src/emulate.o
LOAD build/debug/production/src/ask.o
LOAD build/debug/production/src/fsk.o
LOAD build/debug/production/src/clock.o
LOAD build/debug/production/src/rwd.o
LOAD build/debug/production/src/detect.o
LOAD build/debug/production/src/hitagcrypto.o
LOAD build/debug/production/src/wiegand.o
LOAD build/debug/production/src/comms.o
LOAD build/debug/production/src/nvm.o
LOAD build/debug/production/src/mcp414x.o
LOAD build/debug/production/src/spi.o
LOAD build/debug/production/src/uart3.o
LOAD build/debug/production/src/tags.o
LOAD build/debug/production/src/unique.o
LOAD build/debug/production/src/led.o
LOAD build/debug/production/src/em.o
LOAD build/debug/production/src/hid.o
LOAD build/debug/production/src/read.o
LOAD build/debug/production/src/isr.o
LOAD build/debug/production/src/auto.o
LOAD build/debug/production/src/fdxb.o
LOAD build/debug/production/src/hitag.o
LOAD build/debug/production/src/uid.o
LOAD build/debug/production/src/login.o
LOAD build/debug/production/src/write.o
LOAD build/debug/production/src/auth.o
LOAD build/debug/production/src/q5.o
LOAD build/debug/production/src/vtag.o
LOAD build/debug/production/src/config.o
LOAD build/debug/production/src/select.o
LOAD build/debug/production/src/sdcard.o
LOAD build/debug/production/src/debug_pins.o
LOAD build/debug/production/src/awid.o
LOAD build/debug/production/src/analogue.o
LOAD build/debug/production/src/iso7816.o
LOAD /opt/microchip/xc32/v1.32/pic32mx/lib/libmchp_peripheral_32MX795F512L.a
                0x00000001                __MPLAB_BUILD = 0x1
LOAD /opt/microchip/xc32/v1.32/bin/bin/../../lib/gcc/pic32mx/4.5.2/../../../../pic32mx/lib/./proc/32MX795F512L/default_isr_vectors.o
LOAD /opt/microchip/xc32/v1.32/bin/bin/../../lib/gcc/pic32mx/4.5.2/../../../../pic32mx/lib/pic32_software_reset.o
                0x00000400                PROVIDE (_min_stack_size, 0x400)
LOAD /opt/microchip/xc32/v1.32/bin/bin/../../lib/gcc/pic32mx/4.5.2/../../../../pic32mx/lib/./proc/32MX795F512L/processor.o
                0x00000000                _ramfunc_begin = 0x0
                0x00000001                PROVIDE (_vector_spacing, 0x1)
                0x9d005000                _ebase_address = 0x9d005000
                0x9d006000                _RESET_ADDR = 0x9d006000
                0x9d006380                _BEV_EXCPT_ADDR = 0x9d006380
                0x9d006480                _DBG_EXCPT_ADDR = 0x9d006480
                0xbfc02000                _DBG_CODE_ADDR = 0xbfc02000
                0x00000ff0                _DBG_CODE_SIZE = 0xff0
                0x9d005180                _GEN_EXCPT_ADDR = (_ebase_address + 0x180)

.boot_software_key
 *(.boot_software_key)

.config_BFC02FF0
 *(.config_BFC02FF0)

.config_BFC02FF4
 *(.config_BFC02FF4)

.config_BFC02FF8
 *(.config_BFC02FF8)

.config_BFC02FFC
                0xbfc02ffc        0x4
 *(.config_BFC02FFC)
 .config_BFC02FFC
                0xbfc02ffc        0x4 build/debug/production/src/main.o
                0xbfc02000                PROVIDE (_DBG_CODE_ADDR, 0xbfc02000)
                0x00000ff0                PROVIDE (_DBG_CODE_SIZE, 0xff0)

.reset          0x9d006000      0x1e8
 *(.reset)
 .reset         0x9d006000      0x1e8 /opt/microchip/xc32/v1.32/bin/bin/../../lib/gcc/pic32mx/4.5.2/../../../../pic32mx/lib/./proc/32MX795F512L/crt0_mips32r2.o
                0x9d006000                _reset
 *(.reset.startup)

.bev_excpt      0x9d006380       0x10
 *(.bev_handler)
 .bev_handler   0x9d006380       0x10 /opt/microchip/xc32/v1.32/bin/bin/../../lib/gcc/pic32mx/4.5.2/../../../../pic32mx/lib/./proc/32MX795F512L/crt0_mips32r2.o

.dbg_excpt      0x9d006480        0x0
                0x9d006480                . = (. + DEFINED (_DEBUGGER)?0x8:0x0)

.dbg_code       0xbfc02000        0x0
                0xbfc02000                . = (. + DEFINED (_DEBUGGER)?_DBG_CODE_SIZE:0x0)

.app_excpt      0x9d005180       0x10
 *(.gen_handler)
 .gen_handler   0x9d005180       0x10 /opt/microchip/xc32/v1.32/bin/bin/../../lib/gcc/pic32mx/4.5.2/../../../../pic32mx/lib/./proc/32MX795F512L/crt0_mips32r2.o

.vector_0       0x9d005200        0x8
 *(.vector_0)
 .vector_0      0x9d005200        0x8 /opt/microchip/xc32/v1.32/bin/bin/../../lib/gcc/pic32mx/4.5.2/../../../../pic32mx/lib/libpic32.a(vector0.o)
                0x9d005200                __vector_dispatch_0
                0x00000001                ASSERT (((_vector_spacing == 0x0) || (SIZEOF (.vector_0) <= (_vector_spacing << 0x5))), function at exception vector 0 too large)

.vector_1       0x9d005220        0x8
 *(.vector_1)
 .vector_1      0x9d005220        0x8 /opt/microchip/xc32/v1.32/bin/bin/../../lib/gcc/pic32mx/4.5.2/../../../../pic32mx/lib/libpic32.a(vector1.o)
                0x9d005220                __vector_dispatch_1
                0x00000001                ASSERT (((_vector_spacing == 0x0) || (SIZEOF (.vector_1) <= (_vector_spacing << 0x5))), function at exception vector 1 too large)

.vector_2       0x9d005240        0x8
 *(.vector_2)
 .vector_2      0x9d005240        0x8 /opt/microchip/xc32/v1.32/bin/bin/../../lib/gcc/pic32mx/4.5.2/../../../../pic32mx/lib/libpic32.a(vector2.o)
                0x9d005240                __vector_dispatch_2
                0x00000001                ASSERT (((_vector_spacing == 0x0) || (SIZEOF (.vector_2) <= (_vector_spacing << 0x5))), function at exception vector 2 too large)

.vector_3       0x9d005260        0x8
 *(.vector_3)
 .vector_3      0x9d005260        0x8 /opt/microchip/xc32/v1.32/bin/bin/../../lib/gcc/pic32mx/4.5.2/../../../../pic32mx/lib/libpic32.a(vector3.o)
                0x9d005260                __vector_dispatch_3
                0x00000001                ASSERT (((_vector_spacing == 0x0) || (SIZEOF (.vector_3) <= (_vector_spacing << 0x5))), function at exception vector 3 too large)

.vector_4       0x9d005280        0x8
 *(.vector_4)
 .vector_4      0x9d005280        0x8 build/debug/production/_ext/2096855388/SCpic32.o
                0x9d005280                __vector_dispatch_4
                0x00000001                ASSERT (((_vector_spacing == 0x0) || (SIZEOF (.vector_4) <= (_vector_spacing << 0x5))), function at exception vector 4 too large)

.vector_5       0x9d0052a0        0x8
 *(.vector_5)
 .vector_5      0x9d0052a0        0x8 /opt/microchip/xc32/v1.32/bin/bin/../../lib/gcc/pic32mx/4.5.2/../../../../pic32mx/lib/libpic32.a(vector5.o)
                0x9d0052a0                __vector_dispatch_5
                0x00000001                ASSERT (((_vector_spacing == 0x0) || (SIZEOF (.vector_5) <= (_vector_spacing << 0x5))), function at exception vector 5 too large)

.vector_6       0x9d0052c0        0x8
 *(.vector_6)
 .vector_6      0x9d0052c0        0x8 /opt/microchip/xc32/v1.32/bin/bin/../../lib/gcc/pic32mx/4.5.2/../../../../pic32mx/lib/libpic32.a(vector6.o)
                0x9d0052c0                __vector_dispatch_6
                0x00000001                ASSERT (((_vector_spacing == 0x0) || (SIZEOF (.vector_6) <= (_vector_spacing << 0x5))), function at exception vector 6 too large)

.vector_7       0x9d0052e0        0x8
 *(.vector_7)
 .vector_7      0x9d0052e0        0x8 /opt/microchip/xc32/v1.32/bin/bin/../../lib/gcc/pic32mx/4.5.2/../../../../pic32mx/lib/libpic32.a(vector7.o)
                0x9d0052e0                __vector_dispatch_7
                0x00000001                ASSERT (((_vector_spacing == 0x0) || (SIZEOF (.vector_7) <= (_vector_spacing << 0x5))), function at exception vector 7 too large)

.vector_8       0x9d005300        0x8
 *(.vector_8)
 .vector_8      0x9d005300        0x8 /opt/microchip/xc32/v1.32/bin/bin/../../lib/gcc/pic32mx/4.5.2/../../../../pic32mx/lib/libpic32.a(vector8.o)
                0x9d005300                __vector_dispatch_8
                0x00000001                ASSERT (((_vector_spacing == 0x0) || (SIZEOF (.vector_8) <= (_vector_spacing << 0x5))), function at exception vector 8 too large)

.vector_9       0x9d005320        0x8
 *(.vector_9)
 .vector_9      0x9d005320        0x8 /opt/microchip/xc32/v1.32/bin/bin/../../lib/gcc/pic32mx/4.5.2/../../../../pic32mx/lib/libpic32.a(vector9.o)
                0x9d005320                __vector_dispatch_9
                0x00000001                ASSERT (((_vector_spacing == 0x0) || (SIZEOF (.vector_9) <= (_vector_spacing << 0x5))), function at exception vector 9 too large)

.vector_10      0x9d005340        0x8
 *(.vector_10)
 .vector_10     0x9d005340        0x8 /opt/microchip/xc32/v1.32/bin/bin/../../lib/gcc/pic32mx/4.5.2/../../../../pic32mx/lib/libpic32.a(vector10.o)
                0x9d005340                __vector_dispatch_10
                0x00000001                ASSERT (((_vector_spacing == 0x0) || (SIZEOF (.vector_10) <= (_vector_spacing << 0x5))), function at exception vector 10 too large)

.vector_11      0x9d005360        0x8
 *(.vector_11)
 .vector_11     0x9d005360        0x8 /opt/microchip/xc32/v1.32/bin/bin/../../lib/gcc/pic32mx/4.5.2/../../../../pic32mx/lib/libpic32.a(vector11.o)
                0x9d005360                __vector_dispatch_11
                0x00000001                ASSERT (((_vector_spacing == 0x0) || (SIZEOF (.vector_11) <= (_vector_spacing << 0x5))), function at exception vector 11 too large)

.vector_12      0x9d005380        0x8
 *(.vector_12)
 .vector_12     0x9d005380        0x8 build/debug/production/src/isr.o
                0x9d005380                __vector_dispatch_12
                0x00000001                ASSERT (((_vector_spacing == 0x0) || (SIZEOF (.vector_12) <= (_vector_spacing << 0x5))), function at exception vector 12 too large)

.vector_13      0x9d0053a0        0x8
 *(.vector_13)
 .vector_13     0x9d0053a0        0x8 /opt/microchip/xc32/v1.32/bin/bin/../../lib/gcc/pic32mx/4.5.2/../../../../pic32mx/lib/libpic32.a(vector13.o)
                0x9d0053a0                __vector_dispatch_13
                0x00000001                ASSERT (((_vector_spacing == 0x0) || (SIZEOF (.vector_13) <= (_vector_spacing << 0x5))), function at exception vector 13 too large)

.vector_14      0x9d0053c0        0x8
 *(.vector_14)
 .vector_14     0x9d0053c0        0x8 /opt/microchip/xc32/v1.32/bin/bin/../../lib/gcc/pic32mx/4.5.2/../../../../pic32mx/lib/libpic32.a(vector14.o)
                0x9d0053c0                __vector_dispatch_14
                0x00000001                ASSERT (((_vector_spacing == 0x0) || (SIZEOF (.vector_14) <= (_vector_spacing << 0x5))), function at exception vector 14 too large)

.vector_15      0x9d0053e0        0x8
 *(.vector_15)
 .vector_15     0x9d0053e0        0x8 /opt/microchip/xc32/v1.32/bin/bin/../../lib/gcc/pic32mx/4.5.2/../../../../pic32mx/lib/libpic32.a(vector15.o)
                0x9d0053e0                __vector_dispatch_15
                0x00000001                ASSERT (((_vector_spacing == 0x0) || (SIZEOF (.vector_15) <= (_vector_spacing << 0x5))), function at exception vector 15 too large)

.vector_16      0x9d005400        0x8
 *(.vector_16)
 .vector_16     0x9d005400        0x8 build/debug/production/src/isr.o
                0x9d005400                __vector_dispatch_16
                0x00000001                ASSERT (((_vector_spacing == 0x0) || (SIZEOF (.vector_16) <= (_vector_spacing << 0x5))), function at exception vector 16 too large)

.vector_17      0x9d005420        0x8
 *(.vector_17)
 .vector_17     0x9d005420        0x8 /opt/microchip/xc32/v1.32/bin/bin/../../lib/gcc/pic32mx/4.5.2/../../../../pic32mx/lib/libpic32.a(vector17.o)
                0x9d005420                __vector_dispatch_17
                0x00000001                ASSERT (((_vector_spacing == 0x0) || (SIZEOF (.vector_17) <= (_vector_spacing << 0x5))), function at exception vector 17 too large)

.vector_18      0x9d005440        0x8
 *(.vector_18)
 .vector_18     0x9d005440        0x8 /opt/microchip/xc32/v1.32/bin/bin/../../lib/gcc/pic32mx/4.5.2/../../../../pic32mx/lib/libpic32.a(vector18.o)
                0x9d005440                __vector_dispatch_18
                0x00000001                ASSERT (((_vector_spacing == 0x0) || (SIZEOF (.vector_18) <= (_vector_spacing << 0x5))), function at exception vector 18 too large)

.vector_19      0x9d005460        0x8
 *(.vector_19)
 .vector_19     0x9d005460        0x8 /opt/microchip/xc32/v1.32/bin/bin/../../lib/gcc/pic32mx/4.5.2/../../../../pic32mx/lib/libpic32.a(vector19.o)
                0x9d005460                __vector_dispatch_19
                0x00000001                ASSERT (((_vector_spacing == 0x0) || (SIZEOF (.vector_19) <= (_vector_spacing << 0x5))), function at exception vector 19 too large)

.vector_20      0x9d005480        0x8
 *(.vector_20)
 .vector_20     0x9d005480        0x8 /opt/microchip/xc32/v1.32/bin/bin/../../lib/gcc/pic32mx/4.5.2/../../../../pic32mx/lib/libpic32.a(vector20.o)
                0x9d005480                __vector_dispatch_20
                0x00000001                ASSERT (((_vector_spacing == 0x0) || (SIZEOF (.vector_20) <= (_vector_spacing << 0x5))), function at exception vector 20 too large)

.vector_21      0x9d0054a0        0x8
 *(.vector_21)
 .vector_21     0x9d0054a0        0x8 /opt/microchip/xc32/v1.32/bin/bin/../../lib/gcc/pic32mx/4.5.2/../../../../pic32mx/lib/libpic32.a(vector21.o)
                0x9d0054a0                __vector_dispatch_21
                0x00000001                ASSERT (((_vector_spacing == 0x0) || (SIZEOF (.vector_21) <= (_vector_spacing << 0x5))), function at exception vector 21 too large)

.vector_22      0x9d0054c0        0x8
 *(.vector_22)
 .vector_22     0x9d0054c0        0x8 build/debug/production/src/isr.o
                0x9d0054c0                __vector_dispatch_22
                0x00000001                ASSERT (((_vector_spacing == 0x0) || (SIZEOF (.vector_22) <= (_vector_spacing << 0x5))), function at exception vector 22 too large)

.vector_23      0x9d0054e0        0x8
 *(.vector_23)
 .vector_23     0x9d0054e0        0x8 /opt/microchip/xc32/v1.32/bin/bin/../../lib/gcc/pic32mx/4.5.2/../../../../pic32mx/lib/libpic32.a(vector23.o)
                0x9d0054e0                __vector_dispatch_23
                0x00000001                ASSERT (((_vector_spacing == 0x0) || (SIZEOF (.vector_23) <= (_vector_spacing << 0x5))), function at exception vector 23 too large)

.vector_24      0x9d005500        0x8
 *(.vector_24)
 .vector_24     0x9d005500        0x8 /opt/microchip/xc32/v1.32/bin/bin/../../lib/gcc/pic32mx/4.5.2/../../../../pic32mx/lib/libpic32.a(vector24.o)
                0x9d005500                __vector_dispatch_24
                0x00000001                ASSERT (((_vector_spacing == 0x0) || (SIZEOF (.vector_24) <= (_vector_spacing << 0x5))), function at exception vector 24 too large)

.vector_25      0x9d005520        0x8
 *(.vector_25)
 .vector_25     0x9d005520        0x8 /opt/microchip/xc32/v1.32/bin/bin/../../lib/gcc/pic32mx/4.5.2/../../../../pic32mx/lib/libpic32.a(vector25.o)
                0x9d005520                __vector_dispatch_25
                0x00000001                ASSERT (((_vector_spacing == 0x0) || (SIZEOF (.vector_25) <= (_vector_spacing << 0x5))), function at exception vector 25 too large)

.vector_26      0x9d005540        0x8
 *(.vector_26)
 .vector_26     0x9d005540        0x8 /opt/microchip/xc32/v1.32/bin/bin/../../lib/gcc/pic32mx/4.5.2/../../../../pic32mx/lib/libpic32.a(vector26.o)
                0x9d005540                __vector_dispatch_26
                0x00000001                ASSERT (((_vector_spacing == 0x0) || (SIZEOF (.vector_26) <= (_vector_spacing << 0x5))), function at exception vector 26 too large)

.vector_27      0x9d005560        0x8
 *(.vector_27)
 .vector_27     0x9d005560        0x8 /opt/microchip/xc32/v1.32/bin/bin/../../lib/gcc/pic32mx/4.5.2/../../../../pic32mx/lib/libpic32.a(vector27.o)
                0x9d005560                __vector_dispatch_27
                0x00000001                ASSERT (((_vector_spacing == 0x0) || (SIZEOF (.vector_27) <= (_vector_spacing << 0x5))), function at exception vector 27 too large)

.vector_28      0x9d005580        0x8
 *(.vector_28)
 .vector_28     0x9d005580        0x8 /opt/microchip/xc32/v1.32/bin/bin/../../lib/gcc/pic32mx/4.5.2/../../../../pic32mx/lib/libpic32.a(vector28.o)
                0x9d005580                __vector_dispatch_28
                0x00000001                ASSERT (((_vector_spacing == 0x0) || (SIZEOF (.vector_28) <= (_vector_spacing << 0x5))), function at exception vector 28 too large)

.vector_29      0x9d0055a0        0x8
 *(.vector_29)
 .vector_29     0x9d0055a0        0x8 /opt/microchip/xc32/v1.32/bin/bin/../../lib/gcc/pic32mx/4.5.2/../../../../pic32mx/lib/libpic32.a(vector29.o)
                0x9d0055a0                __vector_dispatch_29
                0x00000001                ASSERT (((_vector_spacing == 0x0) || (SIZEOF (.vector_29) <= (_vector_spacing << 0x5))), function at exception vector 29 too large)

.vector_30      0x9d0055c0        0x8
 *(.vector_30)
 .vector_30     0x9d0055c0        0x8 /opt/microchip/xc32/v1.32/bin/bin/../../lib/gcc/pic32mx/4.5.2/../../../../pic32mx/lib/libpic32.a(vector30.o)
                0x9d0055c0                __vector_dispatch_30
                0x00000001                ASSERT (((_vector_spacing == 0x0) || (SIZEOF (.vector_30) <= (_vector_spacing << 0x5))), function at exception vector 30 too large)

.vector_31      0x9d0055e0        0x8
 *(.vector_31)
 .vector_31     0x9d0055e0        0x8 /opt/microchip/xc32/v1.32/bin/bin/../../lib/gcc/pic32mx/4.5.2/../../../../pic32mx/lib/libpic32.a(vector31.o)
                0x9d0055e0                __vector_dispatch_31
                0x00000001                ASSERT (((_vector_spacing == 0x0) || (SIZEOF (.vector_31) <= (_vector_spacing << 0x5))), function at exception vector 31 too large)

.vector_32      0x9d005600        0x8
 *(.vector_32)
 .vector_32     0x9d005600        0x8 /opt/microchip/xc32/v1.32/bin/bin/../../lib/gcc/pic32mx/4.5.2/../../../../pic32mx/lib/libpic32.a(vector32.o)
                0x9d005600                __vector_dispatch_32
                0x00000001                ASSERT (((_vector_spacing == 0x0) || (SIZEOF (.vector_32) <= (_vector_spacing << 0x5))), function at exception vector 32 too large)

.vector_33      0x9d005620        0x8
 *(.vector_33)
 .vector_33     0x9d005620        0x8 /opt/microchip/xc32/v1.32/bin/bin/../../lib/gcc/pic32mx/4.5.2/../../../../pic32mx/lib/libpic32.a(vector33.o)
                0x9d005620                __vector_dispatch_33
                0x00000001                ASSERT (((_vector_spacing == 0x0) || (SIZEOF (.vector_33) <= (_vector_spacing << 0x5))), function at exception vector 33 too large)

.vector_34      0x9d005640        0x8
 *(.vector_34)
 .vector_34     0x9d005640        0x8 /opt/microchip/xc32/v1.32/bin/bin/../../lib/gcc/pic32mx/4.5.2/../../../../pic32mx/lib/libpic32.a(vector34.o)
                0x9d005640                __vector_dispatch_34
                0x00000001                ASSERT (((_vector_spacing == 0x0) || (SIZEOF (.vector_34) <= (_vector_spacing << 0x5))), function at exception vector 34 too large)

.vector_35      0x9d005660        0x8
 *(.vector_35)
 .vector_35     0x9d005660        0x8 /opt/microchip/xc32/v1.32/bin/bin/../../lib/gcc/pic32mx/4.5.2/../../../../pic32mx/lib/libpic32.a(vector35.o)
                0x9d005660                __vector_dispatch_35
                0x00000001                ASSERT (((_vector_spacing == 0x0) || (SIZEOF (.vector_35) <= (_vector_spacing << 0x5))), function at exception vector 35 too large)

.vector_36      0x9d005680        0x8
 *(.vector_36)
 .vector_36     0x9d005680        0x8 /opt/microchip/xc32/v1.32/bin/bin/../../lib/gcc/pic32mx/4.5.2/../../../../pic32mx/lib/libpic32.a(vector36.o)
                0x9d005680                __vector_dispatch_36
                0x00000001                ASSERT (((_vector_spacing == 0x0) || (SIZEOF (.vector_36) <= (_vector_spacing << 0x5))), function at exception vector 36 too large)

.vector_37      0x9d0056a0        0x8
 *(.vector_37)
 .vector_37     0x9d0056a0        0x8 /opt/microchip/xc32/v1.32/bin/bin/../../lib/gcc/pic32mx/4.5.2/../../../../pic32mx/lib/libpic32.a(vector37.o)
                0x9d0056a0                __vector_dispatch_37
                0x00000001                ASSERT (((_vector_spacing == 0x0) || (SIZEOF (.vector_37) <= (_vector_spacing << 0x5))), function at exception vector 37 too large)

.vector_38      0x9d0056c0        0x8
 *(.vector_38)
 .vector_38     0x9d0056c0        0x8 /opt/microchip/xc32/v1.32/bin/bin/../../lib/gcc/pic32mx/4.5.2/../../../../pic32mx/lib/libpic32.a(vector38.o)
                0x9d0056c0                __vector_dispatch_38
                0x00000001                ASSERT (((_vector_spacing == 0x0) || (SIZEOF (.vector_38) <= (_vector_spacing << 0x5))), function at exception vector 38 too large)

.vector_39      0x9d0056e0        0x8
 *(.vector_39)
 .vector_39     0x9d0056e0        0x8 /opt/microchip/xc32/v1.32/bin/bin/../../lib/gcc/pic32mx/4.5.2/../../../../pic32mx/lib/libpic32.a(vector39.o)
                0x9d0056e0                __vector_dispatch_39
                0x00000001                ASSERT (((_vector_spacing == 0x0) || (SIZEOF (.vector_39) <= (_vector_spacing << 0x5))), function at exception vector 39 too large)

.vector_40      0x9d005700        0x8
 *(.vector_40)
 .vector_40     0x9d005700        0x8 /opt/microchip/xc32/v1.32/bin/bin/../../lib/gcc/pic32mx/4.5.2/../../../../pic32mx/lib/libpic32.a(vector40.o)
                0x9d005700                __vector_dispatch_40
                0x00000001                ASSERT (((_vector_spacing == 0x0) || (SIZEOF (.vector_40) <= (_vector_spacing << 0x5))), function at exception vector 40 too large)

.vector_41      0x9d005720        0x8
 *(.vector_41)
 .vector_41     0x9d005720        0x8 /opt/microchip/xc32/v1.32/bin/bin/../../lib/gcc/pic32mx/4.5.2/../../../../pic32mx/lib/libpic32.a(vector41.o)
                0x9d005720                __vector_dispatch_41
                0x00000001                ASSERT (((_vector_spacing == 0x0) || (SIZEOF (.vector_41) <= (_vector_spacing << 0x5))), function at exception vector 41 too large)

.vector_42      0x9d005740        0x8
 *(.vector_42)
 .vector_42     0x9d005740        0x8 /opt/microchip/xc32/v1.32/bin/bin/../../lib/gcc/pic32mx/4.5.2/../../../../pic32mx/lib/libpic32.a(vector42.o)
                0x9d005740                __vector_dispatch_42
                0x00000001                ASSERT (((_vector_spacing == 0x0) || (SIZEOF (.vector_42) <= (_vector_spacing << 0x5))), function at exception vector 42 too large)

.vector_43      0x9d005760        0x8
 *(.vector_43)
 .vector_43     0x9d005760        0x8 /opt/microchip/xc32/v1.32/bin/bin/../../lib/gcc/pic32mx/4.5.2/../../../../pic32mx/lib/libpic32.a(vector43.o)
                0x9d005760                __vector_dispatch_43
                0x00000001                ASSERT (((_vector_spacing == 0x0) || (SIZEOF (.vector_43) <= (_vector_spacing << 0x5))), function at exception vector 43 too large)

.vector_44      0x9d005780        0x8
 *(.vector_44)
 .vector_44     0x9d005780        0x8 /opt/microchip/xc32/v1.32/bin/bin/../../lib/gcc/pic32mx/4.5.2/../../../../pic32mx/lib/libpic32.a(vector44.o)
                0x9d005780                __vector_dispatch_44
                0x00000001                ASSERT (((_vector_spacing == 0x0) || (SIZEOF (.vector_44) <= (_vector_spacing << 0x5))), function at exception vector 44 too large)

.vector_45      0x9d0057a0        0x8
 *(.vector_45)
 .vector_45     0x9d0057a0        0x8 build/debug/production/_ext/870548313/usb_device.o
                0x9d0057a0                __vector_dispatch_45
                0x00000001                ASSERT (((_vector_spacing == 0x0) || (SIZEOF (.vector_45) <= (_vector_spacing << 0x5))), function at exception vector 45 too large)

.vector_46      0x9d0057c0        0x8
 *(.vector_46)
 .vector_46     0x9d0057c0        0x8 /opt/microchip/xc32/v1.32/bin/bin/../../lib/gcc/pic32mx/4.5.2/../../../../pic32mx/lib/libpic32.a(vector46.o)
                0x9d0057c0                __vector_dispatch_46
                0x00000001                ASSERT (((_vector_spacing == 0x0) || (SIZEOF (.vector_46) <= (_vector_spacing << 0x5))), function at exception vector 46 too large)

.vector_47      0x9d0057e0        0x8
 *(.vector_47)
 .vector_47     0x9d0057e0        0x8 /opt/microchip/xc32/v1.32/bin/bin/../../lib/gcc/pic32mx/4.5.2/../../../../pic32mx/lib/libpic32.a(vector47.o)
                0x9d0057e0                __vector_dispatch_47
                0x00000001                ASSERT (((_vector_spacing == 0x0) || (SIZEOF (.vector_47) <= (_vector_spacing << 0x5))), function at exception vector 47 too large)

.vector_48      0x9d005800        0x8
 *(.vector_48)
 .vector_48     0x9d005800        0x8 /opt/microchip/xc32/v1.32/bin/bin/../../lib/gcc/pic32mx/4.5.2/../../../../pic32mx/lib/libpic32.a(vector48.o)
                0x9d005800                __vector_dispatch_48
                0x00000001                ASSERT (((_vector_spacing == 0x0) || (SIZEOF (.vector_48) <= (_vector_spacing << 0x5))), function at exception vector 48 too large)

.vector_49      0x9d005820        0x8
 *(.vector_49)
 .vector_49     0x9d005820        0x8 /opt/microchip/xc32/v1.32/bin/bin/../../lib/gcc/pic32mx/4.5.2/../../../../pic32mx/lib/libpic32.a(vector49.o)
                0x9d005820                __vector_dispatch_49
                0x00000001                ASSERT (((_vector_spacing == 0x0) || (SIZEOF (.vector_49) <= (_vector_spacing << 0x5))), function at exception vector 49 too large)

.vector_50      0x9d005840        0x8
 *(.vector_50)
 .vector_50     0x9d005840        0x8 /opt/microchip/xc32/v1.32/bin/bin/../../lib/gcc/pic32mx/4.5.2/../../../../pic32mx/lib/libpic32.a(vector50.o)
                0x9d005840                __vector_dispatch_50
                0x00000001                ASSERT (((_vector_spacing == 0x0) || (SIZEOF (.vector_50) <= (_vector_spacing << 0x5))), function at exception vector 50 too large)

.vector_51      0x9d005860        0x8
 *(.vector_51)
 .vector_51     0x9d005860        0x8 /opt/microchip/xc32/v1.32/bin/bin/../../lib/gcc/pic32mx/4.5.2/../../../../pic32mx/lib/libpic32.a(vector51.o)
                0x9d005860                __vector_dispatch_51
                0x00000001                ASSERT (((_vector_spacing == 0x0) || (SIZEOF (.vector_51) <= (_vector_spacing << 0x5))), function at exception vector 51 too large)

.vector_52      0x9d005880        0x8
 *(.vector_52)
 .vector_52     0x9d005880        0x8 /opt/microchip/xc32/v1.32/bin/bin/../../lib/gcc/pic32mx/4.5.2/../../../../pic32mx/lib/libpic32.a(vector52.o)
                0x9d005880                __vector_dispatch_52
                0x00000001                ASSERT (((_vector_spacing == 0x0) || (SIZEOF (.vector_52) <= (_vector_spacing << 0x5))), function at exception vector 52 too large)

.vector_53      0x9d0058a0        0x8
 *(.vector_53)
 .vector_53     0x9d0058a0        0x8 /opt/microchip/xc32/v1.32/bin/bin/../../lib/gcc/pic32mx/4.5.2/../../../../pic32mx/lib/libpic32.a(vector53.o)
                0x9d0058a0                __vector_dispatch_53
                0x00000001                ASSERT (((_vector_spacing == 0x0) || (SIZEOF (.vector_53) <= (_vector_spacing << 0x5))), function at exception vector 53 too large)

.vector_54      0x9d0058c0        0x8
 *(.vector_54)
 .vector_54     0x9d0058c0        0x8 /opt/microchip/xc32/v1.32/bin/bin/../../lib/gcc/pic32mx/4.5.2/../../../../pic32mx/lib/libpic32.a(vector54.o)
                0x9d0058c0                __vector_dispatch_54
                0x00000001                ASSERT (((_vector_spacing == 0x0) || (SIZEOF (.vector_54) <= (_vector_spacing << 0x5))), function at exception vector 54 too large)

.vector_55      0x9d0058e0        0x8
 *(.vector_55)
 .vector_55     0x9d0058e0        0x8 /opt/microchip/xc32/v1.32/bin/bin/../../lib/gcc/pic32mx/4.5.2/../../../../pic32mx/lib/libpic32.a(vector55.o)
                0x9d0058e0                __vector_dispatch_55
                0x00000001                ASSERT (((_vector_spacing == 0x0) || (SIZEOF (.vector_55) <= (_vector_spacing << 0x5))), function at exception vector 55 too large)

.vector_56      0x9d005900        0x8
 *(.vector_56)
 .vector_56     0x9d005900        0x8 /opt/microchip/xc32/v1.32/bin/bin/../../lib/gcc/pic32mx/4.5.2/../../../../pic32mx/lib/libpic32.a(vector56.o)
                0x9d005900                __vector_dispatch_56
                0x00000001                ASSERT (((_vector_spacing == 0x0) || (SIZEOF (.vector_56) <= (_vector_spacing << 0x5))), function at exception vector 56 too large)

.vector_57      0x9d005920        0x8
 *(.vector_57)
 .vector_57     0x9d005920        0x8 /opt/microchip/xc32/v1.32/bin/bin/../../lib/gcc/pic32mx/4.5.2/../../../../pic32mx/lib/libpic32.a(vector57.o)
                0x9d005920                __vector_dispatch_57
                0x00000001                ASSERT (((_vector_spacing == 0x0) || (SIZEOF (.vector_57) <= (_vector_spacing << 0x5))), function at exception vector 57 too large)

.vector_58      0x9d005940        0x8
 *(.vector_58)
 .vector_58     0x9d005940        0x8 /opt/microchip/xc32/v1.32/bin/bin/../../lib/gcc/pic32mx/4.5.2/../../../../pic32mx/lib/libpic32.a(vector58.o)
                0x9d005940                __vector_dispatch_58
                0x00000001                ASSERT (((_vector_spacing == 0x0) || (SIZEOF (.vector_58) <= (_vector_spacing << 0x5))), function at exception vector 58 too large)

.vector_59      0x9d005960        0x8
 *(.vector_59)
 .vector_59     0x9d005960        0x8 /opt/microchip/xc32/v1.32/bin/bin/../../lib/gcc/pic32mx/4.5.2/../../../../pic32mx/lib/libpic32.a(vector59.o)
                0x9d005960                __vector_dispatch_59
                0x00000001                ASSERT (((_vector_spacing == 0x0) || (SIZEOF (.vector_59) <= (_vector_spacing << 0x5))), function at exception vector 59 too large)

.vector_60      0x9d005980        0x8
 *(.vector_60)
 .vector_60     0x9d005980        0x8 /opt/microchip/xc32/v1.32/bin/bin/../../lib/gcc/pic32mx/4.5.2/../../../../pic32mx/lib/libpic32.a(vector60.o)
                0x9d005980                __vector_dispatch_60
                0x00000001                ASSERT (((_vector_spacing == 0x0) || (SIZEOF (.vector_60) <= (_vector_spacing << 0x5))), function at exception vector 60 too large)

.vector_61      0x9d0059a0        0x8
 *(.vector_61)
 .vector_61     0x9d0059a0        0x8 /opt/microchip/xc32/v1.32/bin/bin/../../lib/gcc/pic32mx/4.5.2/../../../../pic32mx/lib/libpic32.a(vector61.o)
                0x9d0059a0                __vector_dispatch_61
                0x00000001                ASSERT (((_vector_spacing == 0x0) || (SIZEOF (.vector_61) <= (_vector_spacing << 0x5))), function at exception vector 61 too large)

.vector_62      0x9d0059c0        0x8
 *(.vector_62)
 .vector_62     0x9d0059c0        0x8 /opt/microchip/xc32/v1.32/bin/bin/../../lib/gcc/pic32mx/4.5.2/../../../../pic32mx/lib/libpic32.a(vector62.o)
                0x9d0059c0                __vector_dispatch_62
                0x00000001                ASSERT (((_vector_spacing == 0x0) || (SIZEOF (.vector_62) <= (_vector_spacing << 0x5))), function at exception vector 62 too large)

.vector_63      0x9d0059e0        0x8
 *(.vector_63)
 .vector_63     0x9d0059e0        0x8 /opt/microchip/xc32/v1.32/bin/bin/../../lib/gcc/pic32mx/4.5.2/../../../../pic32mx/lib/libpic32.a(vector63.o)
                0x9d0059e0                __vector_dispatch_63
                0x00000001                ASSERT (((_vector_spacing == 0x0) || (SIZEOF (.vector_63) <= (_vector_spacing << 0x5))), function at exception vector 63 too large)

.startup
 *(.startup)

.text           0x9d006e00        0x0
 *(.stub .gnu.linkonce.t.*)
 *(.text.*personality*)
 *(.mips16.fn.*)
 *(.mips16.call.*)
 *(.gnu.warning)
                0x9d006e00                . = ALIGN (0x4)

.init           0x9d006e00        0x0
 *crti.o(.init)
 *crtbegin.o(.init)
 *(EXCLUDE_FILE(*crtn.o *crtend?.o *crtend.o) .init)
 *crtend.o(.init)
 *crtn.o(.init)
                0x9d006e00                . = ALIGN (0x4)

.fini           0x9d006e00        0x0
 *(.fini)
                0x9d006e00                . = ALIGN (0x4)

.preinit_array  0x9d006e00        0x0
                0x9d006e00                PROVIDE (__preinit_array_start, .)
 *(.preinit_array)
                0x9d006e00                PROVIDE (__preinit_array_end, .)
                0x9d006e00                . = ALIGN (0x4)

.init_array     0x9d006e00        0x0
                0x9d006e00                PROVIDE (__init_array_start, .)
 *(SORT(.init_array.*))
 *(.init_array)
                0x9d006e00                PROVIDE (__init_array_end, .)
                0x9d006e00                . = ALIGN (0x4)

.fini_array     0x9d006e00        0x0
                0x9d006e00                PROVIDE (__fini_array_start, .)
 *(SORT(.fini_array.*))
 *(.fini_array)
                0x9d006e00                PROVIDE (__fini_array_end, .)
                0x9d006e00                . = ALIGN (0x4)

.ctors          0x9d006e00        0x0
 *crtbegin.o(.ctors)
 *crtbegin?.o(.ctors)
 *(EXCLUDE_FILE(*crtend?.o *crtend.o) .ctors)
 *(SORT(.ctors.*))
 *(.ctors)
                0x9d006e00                . = ALIGN (0x4)

.dtors          0x9d006e00        0x0
 *crtbegin.o(.dtors)
 *crtbegin?.o(.dtors)
 *(EXCLUDE_FILE(*crtend?.o *crtend.o) .dtors)
 *(SORT(.dtors.*))
 *(.dtors)
                0x9d006e00                . = ALIGN (0x4)

.rodata         0x9d006e00        0x0
 *(.gnu.linkonce.r.*)
 *(.rodata1)
                0x9d006e00                . = ALIGN (0x4)

.sdata2         0x9d006490        0x0
 *(.sdata2 .sdata2.* .gnu.linkonce.s2.*)
                0x9d006490                . = ALIGN (0x4)

.sbss2          0x9d006490        0x0
 *(.sbss2 .sbss2.* .gnu.linkonce.sb2.*)
                0x9d006490                . = ALIGN (0x4)

.eh_frame_hdr
 *(.eh_frame_hdr)
                0x9d006490                . = ALIGN (0x4)

.eh_frame
 *(.eh_frame)
                0x9d006490                . = ALIGN (0x4)

.gcc_except_table
 *(.gcc_except_table .gcc_except_table.*)
                0x9d006490                . = ALIGN (0x4)

.dbg_data       0xa0000004        0x0
                0xa0000004                . = (. + DEFINED (_DEBUGGER)?0x200:0x0)

.jcr            0xa0000004        0x0
 *(.jcr)
                0xa0000004                . = ALIGN (0x4)

.eh_frame       0xa0000004       0x30
 *(.eh_frame)
 .eh_frame      0xa0000004       0x20 /opt/microchip/xc32/v1.32/bin/bin/../../lib/gcc/pic32mx/4.5.2/libgcc.a(_udivdi3.o)
 .eh_frame      0xa0000024       0x10 /opt/microchip/xc32/v1.32/bin/bin/../../lib/gcc/pic32mx/4.5.2/libgcc.a(_umoddi3.o)
                0xa0000034                . = ALIGN (0x4)

.gcc_except_table
 *(.gcc_except_table .gcc_except_table.*)
                0xa0000034                . = ALIGN (0x4)

.persist        0xa0000034        0x0
                0xa0000034                _persist_begin = .
 *(.persist .persist.*)
 *(.pbss .pbss.*)
                0xa0000034                . = ALIGN (0x4)
                0xa0000034                _persist_end = .

.data           0xa0000034        0x0
 *(.gnu.linkonce.d.*)
 *(.data1)
                0xa0000034                . = ALIGN (0x4)
                0xa0000034                . = .
                0xa0008030                _gp = (ALIGN (0x10) + 0x7ff0)

.got            0xa0000034        0x0
 *(.got.plt)
 *(.got)
                0xa0000034                . = ALIGN (0x4)

.sdata          0xa0000034       0x40
                0xa0000034                _sdata_begin = .
 *(.sdata .sdata.* .gnu.linkonce.s.*)
 .sdata         0xa0000034        0xc build/debug/production/_ext/71113213/FSIO.o
                0xa0000034                gLastFATSectorRead
                0xa0000038                gLastDataSectorRead
                0xa000003c                cwdptr
 .sdata         0xa0000040        0x8 build/debug/production/_ext/2096855388/SClib.o
                0xa0000040                factorF
                0xa0000044                factorDNumerator
                0xa0000045                factorDdenominator
 .sdata         0xa0000048       0x18 build/debug/production/src/main.o
                0xa0000048                RWD_Command_ThisBit
                0xa000004c                OnOff
                0xa0000054                HighLow
 .sdata         0xa0000060        0x1 build/debug/production/src/isr.o
 *fill*         0xa0000061        0x3 
 .sdata         0xa0000064        0x8 build/debug/production/src/hitag.o
                0xa0000064                Hitag2Sync
 .sdata         0xa000006c        0x4 /opt/microchip/xc32/v1.32/bin/bin/../../lib/gcc/pic32mx/4.5.2/../../../../pic32mx/lib/libc.a(_iob.o)
                0xa000006c                _Files
 .sdata         0xa0000070        0x4 /opt/microchip/xc32/v1.32/bin/bin/../../lib/gcc/pic32mx/4.5.2/../../../../pic32mx/lib/libpic32.a(xc32_uart.o)
                0xa0000070                __XC_UART
                0xa0000074                . = ALIGN (0x4)
                0xa0000074                _sdata_end = .

.lit8
 *(.lit8)

.lit4
 *(.lit4)
                0xa0000074                . = ALIGN (0x4)
                0xa0000074                _data_end = .
                0xa0000074                _bss_begin = .

.sbss           0xa0000074      0x218
                0xa0000074                _sbss_begin = .
 *(.dynsbss)
 *(.sbss .sbss.* .gnu.linkonce.sb.*)
 .sbss          0xa0000074       0x1c build/debug/production/_ext/71113213/SD-SPI.o
 .sbss          0xa0000090       0x14 build/debug/production/_ext/71113213/FSIO.o
                0xa0000090                gNeedFATWrite
                0xa0000094                gBufferOwner
                0xa0000098                gNeedDataWrite
                0xa0000099                nextClusterIsLast
                0xa000009a                gBufferZeroed
                0xa000009b                recache
                0xa000009c                utfModeFileName
                0xa00000a0                twoByteMode
 .sbss          0xa00000a4       0x14 build/debug/production/_ext/2096855388/SClib.o
                0xa00000a4                scATRLength
                0xa00000a8                scATR_HistoryBuffer
                0xa00000ac                scATR_HistoryLength
                0xa00000b0                gCardState
                0xa00000b4                scLastError
 .sbss          0xa00000b8        0x4 build/debug/production/_ext/2096855388/SCpic32.o
                0xa00000b8                delayLapsedFlag
 .sbss          0xa00000bc       0x64 build/debug/production/src/main.o
                0xa00000bc                EmulationMode
                0xa00000c0                SnifferMode
                0xa00000c4                WiegandOutput
                0xa00000c8                EMU_Background
                0xa00000cc                ReaderPeriod
                0xa00000d0                FakeRead
                0xa00000d4                RWD_State
                0xa00000d8                RWD_Fc
                0xa00000dc                RWD_Gap_Period
                0xa00000e0                RWD_Zero_Period
                0xa00000e4                RWD_One_Period
                0xa00000e8                RWD_Sleep_Period
                0xa00000ec                RWD_Wake_Period
                0xa00000f0                RWD_Wait_Switch_TX_RX
                0xa00000f4                RWD_Wait_Switch_RX_TX
                0xa00000f8                RWD_Post_Wait
                0xa00000fc                RWD_OC5_config
                0xa0000100                RWD_OC5_r
                0xa0000104                RWD_OC5_rs
                0xa0000108                DataBuffCount
                0xa000010c                Interface
                0xa000010d                CommsChannel
                0xa0000110                SoftwareKey
 .sbss          0xa0000120        0x4 build/debug/production/src/util.o
 .sbss          0xa0000124        0x4 build/debug/production/src/comms.o
 .sbss          0xa0000128       0x1c build/debug/production/src/isr.o
                0xa0000128                PSK_Read_Error
                0xa000012c                Manchester_Error
                0xa0000130                Manchester_Auto_Correct
 .sbss          0xa0000144        0x4 build/debug/production/src/hitag.o
                0xa0000144                CryptoActive
 .sbss          0xa0000148        0x4 build/debug/production/src/q5.o
                0xa0000148                PWD_Mode
 .sbss          0xa000014c        0x1 /opt/microchip/xc32/v1.32/bin/bin/../../lib/gcc/pic32mx/4.5.2/../../../../pic32mx/lib/libc.a(_iob.o)
                0xa000014c                _outdone
 *fill*         0xa000014d        0x3 
 .sbss          0xa0000150        0x4 /opt/microchip/xc32/v1.32/bin/bin/../../lib/gcc/pic32mx/4.5.2/../../../../pic32mx/lib/libc.a(errno.o)
                0xa0000150                errno
 *(.scommon)
 .scommon       0xa0000154        0x8 build/debug/production/_ext/71113213/SD-SPI.o
                0xa0000154                MDD_SDSPI_finalLBA
                0xa0000158                gSDMode
                0xa000015a                gMediaSectorSize
 .scommon       0xa000015c       0x28 build/debug/production/_ext/71113213/FSIO.o
                0xa000015c                fileNameLength
                0xa000015e                gTimeCrtMS
                0xa0000160                asciiFilename
                0xa0000164                gFileSlotOpen
                0xa0000168                utf16Filename
                0xa000016c                TempClusterCalc
                0xa0000170                FatRootDirClusterValue
                0xa0000174                gTimeCrtTime
                0xa0000176                dirCleared
                0xa0000178                recordSearchLength
                0xa000017a                gTimeWrtTime
                0xa000017c                gTimeAccDate
                0xa000017e                gTimeWrtDate
                0xa0000180                FSerrno
                0xa0000182                gTimeCrtDate
 .scommon       0xa0000184       0x24 build/debug/production/_ext/2096855388/SClib.o
                0xa0000184                scPPSresponseLength
                0xa0000186                cgtETU
                0xa0000188                scTA3
                0xa0000189                scTA2
                0xa000018a                scTA1
                0xa000018b                scTD1
                0xa000018c                scTD2
                0xa000018d                scTD3
                0xa0000190                scPPSresponse
                0xa0000198                cgtInMicroSeconds
                0xa000019c                scTC1
                0xa000019d                scTC2
                0xa000019e                scTC3
                0xa000019f                scTB1
                0xa00001a0                scTB3
                0xa00001a1                scTB2
                0xa00001a4                t0WWTetu
 .scommon       0xa00001a8        0xc build/debug/production/_ext/2096855388/SCpic32.o
                0xa00001a8                baudRate
                0xa00001ac                oneETUtimeinMicroSeconds
                0xa00001ae                rxETUtimeDivisorFactor
                0xa00001b0                scReferenceClock
 .scommon       0xa00001b4       0x5c build/debug/production/_ext/870548313/usb_device.o
                0xa00001b4                BothEP0OutUOWNsSet
                0xa00001b8                USBDeferStatusStagePacket
                0xa00001bc                USBStatusStageEnabledFlag1
                0xa00001c0                USBActiveConfiguration
                0xa00001c4                USBStatusStageEnabledFlag2
                0xa00001c8                shortPacketStatus
                0xa00001cc                USTATcopy
                0xa00001d0                SetupPkt
                0xa00001d8                USBBusIsSuspended
                0xa00001dc                ep_data_out
                0xa00001e0                pBDTEntryEP0OutNext
                0xa00001e4                controlTransferState
                0xa00001e8                pBDTEntryEP0OutCurrent
                0xa00001ec                pDst
                0xa00001f0                endpoint_number
                0xa00001f4                USBDeferINDataStagePackets
                0xa00001f8                USBDeferOUTDataStagePackets
                0xa00001fc                USBDeviceState
                0xa0000200                USBStatusStageTimeoutCounter
                0xa0000204                RemoteWakeup
                0xa0000208                USBAlternateInterface
                0xa000020c                ep_data_in
 .scommon       0xa0000210       0x39 build/debug/production/_ext/1379786196/usb_function_cdc.o
                0xa0000210                CDCDataInHandle
                0xa0000214                BaudRateGen
                0xa0000218                pCDCSrc
                0xa000021c                pCDCDst
                0xa0000220                CDCDataOutHandle
                0xa0000224                line_coding
                0xa000022c                cdc_tx_len
                0xa0000230                dummy_encapsulated_cmd_response
                0xa0000238                cdc_notice
                0xa0000240                cdc_rx_len
                0xa0000241                cdc_trf_state
                0xa0000244                control_signal_bitmap
                0xa0000248                cdc_mem_type
 *fill*         0xa0000249        0x3 
 .scommon       0xa000024c       0x24 build/debug/production/src/main.o
                0xa000024c                EMU_ThisBit
                0xa000024d                EMU_SubCarrier_T0
                0xa0000250                buttonPressed
                0xa0000254                EMU_SubCarrier_T1
                0xa0000258                EMU_Data
                0xa000025c                buttonCount
                0xa0000260                EMU_Reset_Data
                0xa0000264                EMU_Repeat
                0xa0000268                stringPrinted
                0xa000026c                EMU_DataBitRate
 .scommon       0xa0000270        0x8 build/debug/production/src/util.o
                0xa0000270                RTC_date
                0xa0000274                RTC_time
 .scommon       0xa0000278        0x8 build/debug/production/src/isr.o
                0xa0000278                HW_Bits
                0xa000027c                PSK_Min_Pulse
 .scommon       0xa0000280        0xa build/debug/production/src/iso7816.o
                0xa0000280                cardResponse
                0xa0000284                cardCommand
                0xa000028a                _sbss_end = .
                0xa000028c                . = ALIGN (0x4)
 *fill*         0xa000028a        0x2 

.bss            0xa0000400     0x6770
 *(.dynbss)
 *(COMMON)
 COMMON         0xa0000400     0x13f2 build/debug/production/_ext/71113213/FSIO.o
                0xa0000400                gDataBuffer
                0xa0000600                tempCWDobj
                0xa0000644                fileFoundString
                0xa0000850                gFATBuffer
                0xa0000a50                lfnData
                0xa0001058                gDiskData
                0xa0001080                cwd
                0xa00010c4                gFileArray
                0xa0001190                recordSearchName
                0xa0001394                defaultArray
                0xa00013a0                gFileTemp
                0xa00013e4                recordFoundName
                0xa00015e8                tempDirectoryString
 *fill*         0xa00017f2        0x2 
 COMMON         0xa00017f4       0x21 build/debug/production/_ext/2096855388/SClib.o
                0xa00017f4                scCardATR
 *fill*         0xa0001815      0x1eb 
 COMMON         0xa0001a00      0x2db build/debug/production/_ext/870548313/usb_device.o
                0xa0001a00                pBDTEntryOut
                0xa0001a10                pBDTEntryIn
                0xa0001c00                BDT
                0xa0001c80                inPipes
                0xa0001c90                CtrlTrfData
                0xa0001cd0                outPipes
 *fill*         0xa0001cdb        0x1 
 COMMON         0xa0001cdc       0x80 build/debug/production/_ext/1379786196/usb_function_cdc.o
                0xa0001cdc                cdc_data_rx
                0xa0001d1c                cdc_data_tx
 COMMON         0xa0001d5c     0x4d00 build/debug/production/src/main.o
                0xa0001d5c                TmpBits
                0xa000255c                DataBuff
                0xa000455c                Comms_Out_Buffer
                0xa00045dc                TmpBuff
                0xa00055dc                RWD_Command_Buff
                0xa00056dc                Comms_In_Buffer
                0xa000575c                RFIDlerConfig
                0xa0005854                RFIDlerVTag
 *fill*         0xa0006a5c        0x4 
 COMMON         0xa0006a60       0x10 build/debug/production/src/hitag.o
                0xa0006a60                Hitag_Crypto_State
 COMMON         0xa0006a70       0xff build/debug/production/src/iso7816.o
                0xa0006a70                apduData
                0xa0006b70                . = ALIGN ((. != 0x0)?0x4:0x1)
 *fill*         0xa0006b6f        0x1 
                0xa0006b70                . = ALIGN (0x4)
                0xa0006b70                _end = .
                0xa0006b70                _bss_end = .
                0x00007f00                _bmxdudba_address = 0x7f00
                0x00007f00                _bmxdupba_address = 0x7f00

/DISCARD/
 *(.pdr)
 *(.rel.dyn)
 *(.note.GNU-stack)
 *(.note.GNU-stack)
 *(.gnu_debuglink)
 *(.gnu.lto_*)
 *(.discard)

.gptab.sdata
 *(.gptab.data)
 *(.gptab.sdata)

.gptab.sbss
 *(.gptab.bss)
 *(.gptab.sbss)

.mdebug.abi32   0xa0006b70        0x0
 *(.mdebug.abi32)
 .mdebug.abi32  0xa0006b70        0x0 build/debug/production/_ext/71113213/SD-SPI.o
 .mdebug.abi32  0xa0006b70        0x0 build/debug/production/_ext/71113213/FSIO.o
 .mdebug.abi32  0xa0006b70        0x0 build/debug/production/_ext/2096855388/SClib.o
 .mdebug.abi32  0xa0006b70        0x0 build/debug/production/_ext/2096855388/SCpic32.o
 .mdebug.abi32  0xa0006b70        0x0 build/debug/production/_ext/870548313/usb_device.o
 .mdebug.abi32  0xa0006b70        0x0 build/debug/production/_ext/1379786196/usb_function_cdc.o
 .mdebug.abi32  0xa0006b70        0x0 build/debug/production/src/indala.o
 .mdebug.abi32  0xa0006b70        0x0 build/debug/production/src/main.o
 .mdebug.abi32  0xa0006b70        0x0 build/debug/production/src/psk.o
 .mdebug.abi32  0xa0006b70        0x0 build/debug/production/src/usb_descriptors.o
 .mdebug.abi32  0xa0006b70        0x0 build/debug/production/src/util.o
 .mdebug.abi32  0xa0006b70        0x0 build/debug/production/src/emulate.o
 .mdebug.abi32  0xa0006b70        0x0 build/debug/production/src/ask.o
 .mdebug.abi32  0xa0006b70        0x0 build/debug/production/src/fsk.o
 .mdebug.abi32  0xa0006b70        0x0 build/debug/production/src/clock.o
 .mdebug.abi32  0xa0006b70        0x0 build/debug/production/src/rwd.o
 .mdebug.abi32  0xa0006b70        0x0 build/debug/production/src/detect.o
 .mdebug.abi32  0xa0006b70        0x0 build/debug/production/src/hitagcrypto.o
 .mdebug.abi32  0xa0006b70        0x0 build/debug/production/src/wiegand.o
 .mdebug.abi32  0xa0006b70        0x0 build/debug/production/src/comms.o
 .mdebug.abi32  0xa0006b70        0x0 build/debug/production/src/nvm.o
 .mdebug.abi32  0xa0006b70        0x0 build/debug/production/src/mcp414x.o
 .mdebug.abi32  0xa0006b70        0x0 build/debug/production/src/spi.o
 .mdebug.abi32  0xa0006b70        0x0 build/debug/production/src/uart3.o
 .mdebug.abi32  0xa0006b70        0x0 build/debug/production/src/tags.o
 .mdebug.abi32  0xa0006b70        0x0 build/debug/production/src/unique.o
 .mdebug.abi32  0xa0006b70        0x0 build/debug/production/src/led.o
 .mdebug.abi32  0xa0006b70        0x0 build/debug/production/src/em.o
 .mdebug.abi32  0xa0006b70        0x0 build/debug/production/src/hid.o
 .mdebug.abi32  0xa0006b70        0x0 build/debug/production/src/read.o
 .mdebug.abi32  0xa0006b70        0x0 build/debug/production/src/isr.o
 .mdebug.abi32  0xa0006b70        0x0 build/debug/production/src/auto.o
 .mdebug.abi32  0xa0006b70        0x0 build/debug/production/src/fdxb.o
 .mdebug.abi32  0xa0006b70        0x0 build/debug/production/src/hitag.o
 .mdebug.abi32  0xa0006b70        0x0 build/debug/production/src/uid.o
 .mdebug.abi32  0xa0006b70        0x0 build/debug/production/src/login.o
 .mdebug.abi32  0xa0006b70        0x0 build/debug/production/src/write.o
 .mdebug.abi32  0xa0006b70        0x0 build/debug/production/src/auth.o
 .mdebug.abi32  0xa0006b70        0x0 build/debug/production/src/q5.o
 .mdebug.abi32  0xa0006b70        0x0 build/debug/production/src/vtag.o
 .mdebug.abi32  0xa0006b70        0x0 build/debug/production/src/config.o
 .mdebug.abi32  0xa0006b70        0x0 build/debug/production/src/select.o
 .mdebug.abi32  0xa0006b70        0x0 build/debug/production/src/sdcard.o
 .mdebug.abi32  0xa0006b70        0x0 build/debug/production/src/debug_pins.o
 .mdebug.abi32  0xa0006b70        0x0 build/debug/production/src/awid.o
 .mdebug.abi32  0xa0006b70        0x0 build/debug/production/src/analogue.o
 .mdebug.abi32  0xa0006b70        0x0 build/debug/production/src/iso7816.o
 .mdebug.abi32  0xa0006b70        0x0 /opt/microchip/xc32/v1.32/pic32mx/lib/libmchp_peripheral_32MX795F512L.a(soft_reset_lib.o)
 .mdebug.abi32  0xa0006b70        0x0 /opt/microchip/xc32/v1.32/pic32mx/lib/libmchp_peripheral_32MX795F512L.a(pcache.o)
 .mdebug.abi32  0xa0006b70        0x0 /opt/microchip/xc32/v1.32/pic32mx/lib/libmchp_peripheral_32MX795F512L.a(int_configure_system_lib.o)
 .mdebug.abi32  0xa0006b70        0x0 /opt/microchip/xc32/v1.32/pic32mx/lib/libmchp_peripheral_32MX795F512L.a(int_enable_interrupts_lib.o)
 .mdebug.abi32  0xa0006b70        0x0 /opt/microchip/xc32/v1.32/pic32mx/lib/libmchp_peripheral_32MX795F512L.a(int_disable_interrupts_lib.o)
 .mdebug.abi32  0xa0006b70        0x0 /opt/microchip/xc32/v1.32/pic32mx/lib/libmchp_peripheral_32MX795F512L.a(int_restore_interrupts_lib.o)
 .mdebug.abi32  0xa0006b70        0x0 /opt/microchip/xc32/v1.32/pic32mx/lib/libmchp_peripheral_32MX795F512L.a(int_enable_mv_int_lib.o)
 .mdebug.abi32  0xa0006b70        0x0 /opt/microchip/xc32/v1.32/pic32mx/lib/libmchp_peripheral_32MX795F512L.a(int_tbl_lib.o)
 .mdebug.abi32  0xa0006b70        0x0 /opt/microchip/xc32/v1.32/pic32mx/lib/libmchp_peripheral_32MX795F512L.a(spi_chn_close_lib.o)
 .mdebug.abi32  0xa0006b70        0x0 /opt/microchip/xc32/v1.32/pic32mx/lib/libmchp_peripheral_32MX795F512L.a(spi_chn_open_lib.o)
 .mdebug.abi32  0xa0006b70        0x0 /opt/microchip/xc32/v1.32/pic32mx/lib/libmchp_peripheral_32MX795F512L.a(spi_io_tbl_libp.o)
 .mdebug.abi32  0xa0006b70        0x0 /opt/microchip/xc32/v1.32/pic32mx/lib/libmchp_peripheral_32MX795F512L.a(spi_map_tbl_libp.o)
 .mdebug.abi32  0xa0006b70        0x0 /opt/microchip/xc32/v1.32/pic32mx/lib/libmchp_peripheral_32MX795F512L.a(spi_getc_spi1_lib_legacy.o)
 .mdebug.abi32  0xa0006b70        0x0 /opt/microchip/xc32/v1.32/pic32mx/lib/libmchp_peripheral_32MX795F512L.a(spi_open_spi1_lib_legacy.o)
 .mdebug.abi32  0xa0006b70        0x0 /opt/microchip/xc32/v1.32/pic32mx/lib/libmchp_peripheral_32MX795F512L.a(spi_brg_tbl_lib_legacy.o)
 .mdebug.abi32  0xa0006b70        0x0 /opt/microchip/xc32/v1.32/pic32mx/lib/libmchp_peripheral_32MX795F512L.a(nvm_erase_page_lib.o)
 .mdebug.abi32  0xa0006b70        0x0 /opt/microchip/xc32/v1.32/pic32mx/lib/libmchp_peripheral_32MX795F512L.a(nvm_operation_lib.o)
 .mdebug.abi32  0xa0006b70        0x0 /opt/microchip/xc32/v1.32/pic32mx/lib/libmchp_peripheral_32MX795F512L.a(nvm_program_lib.o)
 .mdebug.abi32  0xa0006b70        0x0 /opt/microchip/xc32/v1.32/pic32mx/lib/libmchp_peripheral_32MX795F512L.a(nvm_write_row_lib.o)
 .mdebug.abi32  0xa0006b70        0x0 /opt/microchip/xc32/v1.32/pic32mx/lib/libmchp_peripheral_32MX795F512L.a(port_reset_pins_lib.o)
 .mdebug.abi32  0xa0006b70        0x0 /opt/microchip/xc32/v1.32/pic32mx/lib/libmchp_peripheral_32MX795F512L.a(port_set_pins_digital_in_lib.o)
 .mdebug.abi32  0xa0006b70        0x0 /opt/microchip/xc32/v1.32/pic32mx/lib/libmchp_peripheral_32MX795F512L.a(port_set_pins_digital_out_lib.o)
 .mdebug.abi32  0xa0006b70        0x0 /opt/microchip/xc32/v1.32/pic32mx/lib/libmchp_peripheral_32MX795F512L.a(_ports_tbl_libp.o)
 .mdebug.abi32  0xa0006b70        0x0 /opt/microchip/xc32/v1.32/bin/bin/../../lib/gcc/pic32mx/4.5.2/libgcc.a(_udivdi3.o)
 .mdebug.abi32  0xa0006b70        0x0 /opt/microchip/xc32/v1.32/bin/bin/../../lib/gcc/pic32mx/4.5.2/../../../../pic32mx/lib/libpic32.a(default-bootstrap-exception-handler.o)
 .mdebug.abi32  0xa0006b70        0x0 /opt/microchip/xc32/v1.32/bin/bin/../../lib/gcc/pic32mx/4.5.2/../../../../pic32mx/lib/libpic32.a(default-on-reset.o)
 .mdebug.abi32  0xa0006b70        0x0 /opt/microchip/xc32/v1.32/bin/bin/../../lib/gcc/pic32mx/4.5.2/../../../../pic32mx/lib/libpic32.a(default-on-bootstrap.o)
 .mdebug.abi32  0xa0006b70        0x0 /opt/microchip/xc32/v1.32/bin/bin/../../lib/gcc/pic32mx/4.5.2/../../../../pic32mx/lib/libpic32.a(default-general-exception-handler.o)
 .mdebug.abi32  0xa0006b70        0x0 /opt/microchip/xc32/v1.32/bin/bin/../../lib/gcc/pic32mx/4.5.2/../../../../pic32mx/lib/libpic32.a(defaultinterrupt.o)
 .mdebug.abi32  0xa0006b70        0x0 /opt/microchip/xc32/v1.32/bin/bin/../../lib/gcc/pic32mx/4.5.2/../../../../pic32mx/lib/libc.a(ctypef.o)
 .mdebug.abi32  0xa0006b70        0x0 /opt/microchip/xc32/v1.32/bin/bin/../../lib/gcc/pic32mx/4.5.2/../../../../pic32mx/lib/libc.a(rand.o)
 .mdebug.abi32  0xa0006b70        0x0 /opt/microchip/xc32/v1.32/bin/bin/../../lib/gcc/pic32mx/4.5.2/../../../../pic32mx/lib/libc.a(strncmp.o)
 .mdebug.abi32  0xa0006b70        0x0 /opt/microchip/xc32/v1.32/bin/bin/../../lib/gcc/pic32mx/4.5.2/../../../../pic32mx/lib/libc.a(strncpy.o)
 .mdebug.abi32  0xa0006b70        0x0 /opt/microchip/xc32/v1.32/bin/bin/../../lib/gcc/pic32mx/4.5.2/../../../../pic32mx/lib/libc.a(sprintf_cdnopuxX.eo)
 .mdebug.abi32  0xa0006b70        0x0 /opt/microchip/xc32/v1.32/bin/bin/../../lib/gcc/pic32mx/4.5.2/../../../../pic32mx/lib/libc.a(sprintf.o)
 .mdebug.abi32  0xa0006b70        0x0 /opt/microchip/xc32/v1.32/bin/bin/../../lib/gcc/pic32mx/4.5.2/../../../../pic32mx/lib/libc.a(sscanf_cdfFnopsuxX.eo)
 .mdebug.abi32  0xa0006b70        0x0 /opt/microchip/xc32/v1.32/bin/bin/../../lib/gcc/pic32mx/4.5.2/../../../../pic32mx/lib/libc.a(ctype.o)
 .mdebug.abi32  0xa0006b70        0x0 /opt/microchip/xc32/v1.32/bin/bin/../../lib/gcc/pic32mx/4.5.2/../../../../pic32mx/lib/libc.a(doprnt_cdnopuxX.eo)
 .mdebug.abi32  0xa0006b70        0x0 /opt/microchip/xc32/v1.32/bin/bin/../../lib/gcc/pic32mx/4.5.2/../../../../pic32mx/lib/libc.a(doprnt.o)
 .mdebug.abi32  0xa0006b70        0x0 /opt/microchip/xc32/v1.32/bin/bin/../../lib/gcc/pic32mx/4.5.2/../../../../pic32mx/lib/libc.a(doscan_cdfFnopsuxX.eo)
 .mdebug.abi32  0xa0006b70        0x0 /opt/microchip/xc32/v1.32/bin/bin/../../lib/gcc/pic32mx/4.5.2/../../../../pic32mx/lib/libc.a(doscan_cdnopuxX.eo)
 .mdebug.abi32  0xa0006b70        0x0 /opt/microchip/xc32/v1.32/bin/bin/../../lib/gcc/pic32mx/4.5.2/../../../../pic32mx/lib/libc.a(fgetc.o)
 .mdebug.abi32  0xa0006b70        0x0 /opt/microchip/xc32/v1.32/bin/bin/../../lib/gcc/pic32mx/4.5.2/../../../../pic32mx/lib/libc.a(_fputc_simple.o)
 .mdebug.abi32  0xa0006b70        0x0 /opt/microchip/xc32/v1.32/bin/bin/../../lib/gcc/pic32mx/4.5.2/../../../../pic32mx/lib/libc.a(atoi.o)
 .mdebug.abi32  0xa0006b70        0x0 /opt/microchip/xc32/v1.32/bin/bin/../../lib/gcc/pic32mx/4.5.2/../../../../pic32mx/lib/libc.a(powersf.o)
 .mdebug.abi32  0xa0006b70        0x0 /opt/microchip/xc32/v1.32/bin/bin/../../lib/gcc/pic32mx/4.5.2/../../../../pic32mx/lib/libc.a(strtod.o)
 .mdebug.abi32  0xa0006b70        0x0 /opt/microchip/xc32/v1.32/bin/bin/../../lib/gcc/pic32mx/4.5.2/../../../../pic32mx/lib/libc.a(strtof.o)
 .mdebug.abi32  0xa0006b70        0x0 /opt/microchip/xc32/v1.32/bin/bin/../../lib/gcc/pic32mx/4.5.2/../../../../pic32mx/lib/libc.a(ungetc.o)
 .mdebug.abi32  0xa0006b70        0x0 /opt/microchip/xc32/v1.32/bin/bin/../../lib/gcc/pic32mx/4.5.2/../../../../pic32mx/lib/libc.a(_iob.o)
 .mdebug.abi32  0xa0006b70        0x0 /opt/microchip/xc32/v1.32/bin/bin/../../lib/gcc/pic32mx/4.5.2/../../../../pic32mx/lib/libc.a(filbuf.o)
 .mdebug.abi32  0xa0006b70        0x0 /opt/microchip/xc32/v1.32/bin/bin/../../lib/gcc/pic32mx/4.5.2/../../../../pic32mx/lib/libc.a(_flsbuf_simple.o)
 .mdebug.abi32  0xa0006b70        0x0 /opt/microchip/xc32/v1.32/bin/bin/../../lib/gcc/pic32mx/4.5.2/../../../../pic32mx/lib/libc.a(fflush.o)
 .mdebug.abi32  0xa0006b70        0x0 /opt/microchip/xc32/v1.32/bin/bin/../../lib/gcc/pic32mx/4.5.2/../../../../pic32mx/lib/libpic32.a(read.o)
 .mdebug.abi32  0xa0006b70        0x0 /opt/microchip/xc32/v1.32/bin/bin/../../lib/gcc/pic32mx/4.5.2/../../../../pic32mx/lib/libpic32.a(write.o)
 .mdebug.abi32  0xa0006b70        0x0 /opt/microchip/xc32/v1.32/bin/bin/../../lib/gcc/pic32mx/4.5.2/../../../../pic32mx/lib/libpic32.a(xc32_uart.o)
 .mdebug.abi32  0xa0006b70        0x0 /opt/microchip/xc32/v1.32/bin/bin/../../lib/gcc/pic32mx/4.5.2/../../../../pic32mx/lib/libpic32.a(_mon_putc.o)
 .mdebug.abi32  0xa0006b70        0x0 /opt/microchip/xc32/v1.32/bin/bin/../../lib/gcc/pic32mx/4.5.2/../../../../pic32mx/lib/libm.a(__strtod.o)
 .mdebug.abi32  0xa0006b70        0x0 /opt/microchip/xc32/v1.32/bin/bin/../../lib/gcc/pic32mx/4.5.2/../../../../pic32mx/lib/libm.a(__strtof.o)
 .mdebug.abi32  0xa0006b70        0x0 /opt/microchip/xc32/v1.32/bin/bin/../../lib/gcc/pic32mx/4.5.2/../../../../pic32mx/lib/libe.a(_floatdisf.o)
 .mdebug.abi32  0xa0006b70        0x0 /opt/microchip/xc32/v1.32/bin/bin/../../lib/gcc/pic32mx/4.5.2/../../../../pic32mx/lib/libe.a(_ldexp.o)
 .mdebug.abi32  0xa0006b70        0x0 /opt/microchip/xc32/v1.32/bin/bin/../../lib/gcc/pic32mx/4.5.2/../../../../pic32mx/lib/libe.a(_ldexpf.o)
 .mdebug.abi32  0xa0006b70        0x0 /opt/microchip/xc32/v1.32/bin/bin/../../lib/gcc/pic32mx/4.5.2/libgcc.a(_lshrdi3.o)
 .mdebug.abi32  0xa0006b70        0x0 /opt/microchip/xc32/v1.32/bin/bin/../../lib/gcc/pic32mx/4.5.2/libgcc.a(_ashldi3.o)
 .mdebug.abi32  0xa0006b70        0x0 /opt/microchip/xc32/v1.32/bin/bin/../../lib/gcc/pic32mx/4.5.2/libgcc.a(_floatundisf.o)
 .mdebug.abi32  0xa0006b70        0x0 /opt/microchip/xc32/v1.32/bin/bin/../../lib/gcc/pic32mx/4.5.2/libgcc.a(_umoddi3.o)
 .mdebug.abi32  0xa0006b70        0x0 /opt/microchip/xc32/v1.32/bin/bin/../../lib/gcc/pic32mx/4.5.2/libgcc.a(floatunsisf.o)
 .mdebug.abi32  0xa0006b70        0x0 /opt/microchip/xc32/v1.32/bin/bin/../../lib/gcc/pic32mx/4.5.2/../../../../pic32mx/lib/libc.a(errno.o)

.mdebug.abiN32
 *(.mdebug.abiN32)

.mdebug.abi64
 *(.mdebug.abi64)

.mdebug.abiO64
 *(.mdebug.abiO64)

.mdebug.eabi32
 *(.mdebug.eabi32)

.mdebug.eabi64
 *(.mdebug.eabi64)

.gcc_compiled_long32
 *(.gcc_compiled_long32)

.gcc_compiled_long64
 *(.gcc_compiled_long64)

.stab
 *(.stab)

.stabstr
 *(.stabstr)

.stab.excl
 *(.stab.excl)

.stab.exclstr
 *(.stab.exclstr)

.stab.index
 *(.stab.index)

.stab.indexstr
 *(.stab.indexstr)

.comment        0x00000000      0x3a8
 *(.comment)
 .comment       0x00000000       0x3c build/debug/production/_ext/71113213/SD-SPI.o
                                 0x3d (size before relaxing)
 .comment       0x00000000       0x3d build/debug/production/_ext/71113213/FSIO.o
 .comment       0x00000000       0x3d build/debug/production/_ext/2096855388/SClib.o
 .comment       0x00000000       0x3d build/debug/production/_ext/2096855388/SCpic32.o
 .comment       0x00000000       0x3d build/debug/production/_ext/870548313/usb_device.o
 .comment       0x00000000       0x3d build/debug/production/_ext/1379786196/usb_function_cdc.o
 .comment       0x00000000       0x3d build/debug/production/src/indala.o
 .comment       0x00000000       0x3d build/debug/production/src/main.o
 .comment       0x00000000       0x3d build/debug/production/src/psk.o
 .comment       0x00000000       0x3d build/debug/production/src/usb_descriptors.o
 .comment       0x00000000       0x3d build/debug/production/src/util.o
 .comment       0x00000000       0x3d build/debug/production/src/emulate.o
 .comment       0x00000000       0x3d build/debug/production/src/ask.o
 .comment       0x00000000       0x3d build/debug/production/src/fsk.o
 .comment       0x00000000       0x3d build/debug/production/src/clock.o
 .comment       0x00000000       0x3d build/debug/production/src/rwd.o
 .comment       0x00000000       0x3d build/debug/production/src/detect.o
 .comment       0x00000000       0x3d build/debug/production/src/hitagcrypto.o
 .comment       0x00000000       0x3d build/debug/production/src/wiegand.o
 .comment       0x00000000       0x3d build/debug/production/src/comms.o
 .comment       0x00000000       0x3d build/debug/production/src/nvm.o
 .comment       0x00000000       0x3d build/debug/production/src/mcp414x.o
 .comment       0x00000000       0x3d build/debug/production/src/spi.o
 .comment       0x00000000       0x3d build/debug/production/src/uart3.o
 .comment       0x00000000       0x3d build/debug/production/src/tags.o
 .comment       0x00000000       0x3d build/debug/production/src/unique.o
 .comment       0x00000000       0x3d build/debug/production/src/led.o
 .comment       0x00000000       0x3d build/debug/production/src/em.o
 .comment       0x00000000       0x3d build/debug/production/src/hid.o
 .comment       0x00000000       0x3d build/debug/production/src/read.o
 .comment       0x00000000       0x3d build/debug/production/src/isr.o
 .comment       0x00000000       0x3d build/debug/production/src/auto.o
 .comment       0x00000000       0x3d build/debug/production/src/fdxb.o
 .comment       0x00000000       0x3d build/debug/production/src/hitag.o
 .comment       0x00000000       0x3d build/debug/production/src/uid.o
 .comment       0x00000000       0x3d build/debug/production/src/login.o
 .comment       0x00000000       0x3d build/debug/production/src/write.o
 .comment       0x00000000       0x3d build/debug/production/src/auth.o
 .comment       0x00000000       0x3d build/debug/production/src/q5.o
 .comment       0x00000000       0x3d build/debug/production/src/vtag.o
 .comment       0x00000000       0x3d build/debug/production/src/config.o
 .comment       0x00000000       0x3d build/debug/production/src/select.o
 .comment       0x00000000       0x3d build/debug/production/src/sdcard.o
 .comment       0x00000000       0x3d build/debug/production/src/debug_pins.o
 .comment       0x00000000       0x3d build/debug/production/src/awid.o
 .comment       0x00000000       0x3d build/debug/production/src/analogue.o
 .comment       0x00000000       0x3d build/debug/production/src/iso7816.o
 .comment       0x0000003c       0x3c /opt/microchip/xc32/v1.32/pic32mx/lib/libmchp_peripheral_32MX795F512L.a(soft_reset_lib.o)
                                 0x3d (size before relaxing)
 .comment       0x00000000       0x3d /opt/microchip/xc32/v1.32/pic32mx/lib/libmchp_peripheral_32MX795F512L.a(pcache.o)
 .comment       0x00000000       0x3d /opt/microchip/xc32/v1.32/pic32mx/lib/libmchp_peripheral_32MX795F512L.a(int_configure_system_lib.o)
 .comment       0x00000000       0x3d /opt/microchip/xc32/v1.32/pic32mx/lib/libmchp_peripheral_32MX795F512L.a(int_enable_interrupts_lib.o)
 .comment       0x00000000       0x3d /opt/microchip/xc32/v1.32/pic32mx/lib/libmchp_peripheral_32MX795F512L.a(int_disable_interrupts_lib.o)
 .comment       0x00000000       0x3d /opt/microchip/xc32/v1.32/pic32mx/lib/libmchp_peripheral_32MX795F512L.a(int_restore_interrupts_lib.o)
 .comment       0x00000000       0x3d /opt/microchip/xc32/v1.32/pic32mx/lib/libmchp_peripheral_32MX795F512L.a(int_enable_mv_int_lib.o)
 .comment       0x00000000       0x3d /opt/microchip/xc32/v1.32/pic32mx/lib/libmchp_peripheral_32MX795F512L.a(int_tbl_lib.o)
 .comment       0x00000000       0x3d /opt/microchip/xc32/v1.32/pic32mx/lib/libmchp_peripheral_32MX795F512L.a(spi_chn_close_lib.o)
 .comment       0x00000000       0x3d /opt/microchip/xc32/v1.32/pic32mx/lib/libmchp_peripheral_32MX795F512L.a(spi_chn_open_lib.o)
 .comment       0x00000000       0x3d /opt/microchip/xc32/v1.32/pic32mx/lib/libmchp_peripheral_32MX795F512L.a(spi_io_tbl_libp.o)
 .comment       0x00000000       0x3d /opt/microchip/xc32/v1.32/pic32mx/lib/libmchp_peripheral_32MX795F512L.a(spi_map_tbl_libp.o)
 .comment       0x00000000       0x3d /opt/microchip/xc32/v1.32/pic32mx/lib/libmchp_peripheral_32MX795F512L.a(spi_getc_spi1_lib_legacy.o)
 .comment       0x00000000       0x3d /opt/microchip/xc32/v1.32/pic32mx/lib/libmchp_peripheral_32MX795F512L.a(spi_open_spi1_lib_legacy.o)
 .comment       0x00000000       0x3d /opt/microchip/xc32/v1.32/pic32mx/lib/libmchp_peripheral_32MX795F512L.a(spi_brg_tbl_lib_legacy.o)
 .comment       0x00000000       0x3d /opt/microchip/xc32/v1.32/pic32mx/lib/libmchp_peripheral_32MX795F512L.a(nvm_erase_page_lib.o)
 .comment       0x00000000       0x3d /opt/microchip/xc32/v1.32/pic32mx/lib/libmchp_peripheral_32MX795F512L.a(nvm_operation_lib.o)
 .comment       0x00000000       0x3d /opt/microchip/xc32/v1.32/pic32mx/lib/libmchp_peripheral_32MX795F512L.a(nvm_program_lib.o)
 .comment       0x00000000       0x3d /opt/microchip/xc32/v1.32/pic32mx/lib/libmchp_peripheral_32MX795F512L.a(nvm_write_row_lib.o)
 .comment       0x00000000       0x3d /opt/microchip/xc32/v1.32/pic32mx/lib/libmchp_peripheral_32MX795F512L.a(port_reset_pins_lib.o)
 .comment       0x00000000       0x3d /opt/microchip/xc32/v1.32/pic32mx/lib/libmchp_peripheral_32MX795F512L.a(port_set_pins_digital_in_lib.o)
 .comment       0x00000000       0x3d /opt/microchip/xc32/v1.32/pic32mx/lib/libmchp_peripheral_32MX795F512L.a(port_set_pins_digital_out_lib.o)
 .comment       0x00000000       0x3d /opt/microchip/xc32/v1.32/pic32mx/lib/libmchp_peripheral_32MX795F512L.a(_ports_tbl_libp.o)
 .comment       0x00000000       0x3d /opt/microchip/xc32/v1.32/bin/bin/../../lib/gcc/pic32mx/4.5.2/libgcc.a(_udivdi3.o)
 .comment       0x00000078       0x18 /opt/microchip/xc32/v1.32/bin/bin/../../lib/gcc/pic32mx/4.5.2/../../../../pic32mx/lib/libpic32.a(memcmp.o)
                                 0x19 (size before relaxing)
 .comment       0x00000090       0x18 /opt/microchip/xc32/v1.32/bin/bin/../../lib/gcc/pic32mx/4.5.2/../../../../pic32mx/lib/libpic32.a(memset.o)
                                 0x19 (size before relaxing)
 .comment       0x000000a8       0x55 /opt/microchip/xc32/v1.32/bin/bin/../../lib/gcc/pic32mx/4.5.2/../../../../pic32mx/lib/libpic32.a(strcmp.o)
                                 0x56 (size before relaxing)
 .comment       0x000000fd       0x19 /opt/microchip/xc32/v1.32/bin/bin/../../lib/gcc/pic32mx/4.5.2/../../../../pic32mx/lib/libpic32.a(strcpy.o)
                                 0x1a (size before relaxing)
 .comment       0x00000116       0x19 /opt/microchip/xc32/v1.32/bin/bin/../../lib/gcc/pic32mx/4.5.2/../../../../pic32mx/lib/libpic32.a(strlen.o)
                                 0x1a (size before relaxing)
 .comment       0x00000000       0x3d /opt/microchip/xc32/v1.32/bin/bin/../../lib/gcc/pic32mx/4.5.2/../../../../pic32mx/lib/libpic32.a(default-bootstrap-exception-handler.o)
 .comment       0x00000000       0x3d /opt/microchip/xc32/v1.32/bin/bin/../../lib/gcc/pic32mx/4.5.2/../../../../pic32mx/lib/libpic32.a(default-on-reset.o)
 .comment       0x00000000       0x3d /opt/microchip/xc32/v1.32/bin/bin/../../lib/gcc/pic32mx/4.5.2/../../../../pic32mx/lib/libpic32.a(default-on-bootstrap.o)
 .comment       0x00000000       0x3d /opt/microchip/xc32/v1.32/bin/bin/../../lib/gcc/pic32mx/4.5.2/../../../../pic32mx/lib/libpic32.a(default-general-exception-handler.o)
 .comment       0x00000000       0x3d /opt/microchip/xc32/v1.32/bin/bin/../../lib/gcc/pic32mx/4.5.2/../../../../pic32mx/lib/libpic32.a(defaultinterrupt.o)
 .comment       0x0000012f       0x4f /opt/microchip/xc32/v1.32/bin/bin/../../lib/gcc/pic32mx/4.5.2/../../../../pic32mx/lib/libc.a(ctypef.o)
                                 0x8c (size before relaxing)
 .comment       0x00000000       0x3d /opt/microchip/xc32/v1.32/bin/bin/../../lib/gcc/pic32mx/4.5.2/../../../../pic32mx/lib/libc.a(rand.o)
 .comment       0x00000000       0x3d /opt/microchip/xc32/v1.32/bin/bin/../../lib/gcc/pic32mx/4.5.2/../../../../pic32mx/lib/libc.a(strncmp.o)
 .comment       0x00000000       0x3d /opt/microchip/xc32/v1.32/bin/bin/../../lib/gcc/pic32mx/4.5.2/../../../../pic32mx/lib/libc.a(strncpy.o)
 .comment       0x00000000       0x3d /opt/microchip/xc32/v1.32/bin/bin/../../lib/gcc/pic32mx/4.5.2/../../../../pic32mx/lib/libc.a(sprintf_cdnopuxX.eo)
 .comment       0x00000000       0x3d /opt/microchip/xc32/v1.32/bin/bin/../../lib/gcc/pic32mx/4.5.2/../../../../pic32mx/lib/libc.a(sprintf.o)
 .comment       0x00000000       0x3d /opt/microchip/xc32/v1.32/bin/bin/../../lib/gcc/pic32mx/4.5.2/../../../../pic32mx/lib/libc.a(sscanf_cdfFnopsuxX.eo)
 .comment       0x0000017e       0x4e /opt/microchip/xc32/v1.32/bin/bin/../../lib/gcc/pic32mx/4.5.2/../../../../pic32mx/lib/libc.a(ctype.o)
                                 0x8b (size before relaxing)
 .comment       0x00000000       0x3d /opt/microchip/xc32/v1.32/bin/bin/../../lib/gcc/pic32mx/4.5.2/../../../../pic32mx/lib/libc.a(doprnt_cdnopuxX.eo)
 .comment       0x00000000       0x3d /opt/microchip/xc32/v1.32/bin/bin/../../lib/gcc/pic32mx/4.5.2/../../../../pic32mx/lib/libc.a(doprnt.o)
 .comment       0x00000000       0x3d /opt/microchip/xc32/v1.32/bin/bin/../../lib/gcc/pic32mx/4.5.2/../../../../pic32mx/lib/libc.a(doscan_cdfFnopsuxX.eo)
 .comment       0x00000000       0x3d /opt/microchip/xc32/v1.32/bin/bin/../../lib/gcc/pic32mx/4.5.2/../../../../pic32mx/lib/libc.a(doscan_cdnopuxX.eo)
 .comment       0x00000000       0x3d /opt/microchip/xc32/v1.32/bin/bin/../../lib/gcc/pic32mx/4.5.2/../../../../pic32mx/lib/libc.a(fgetc.o)
 .comment       0x00000000       0x3d /opt/microchip/xc32/v1.32/bin/bin/../../lib/gcc/pic32mx/4.5.2/../../../../pic32mx/lib/libc.a(_fputc_simple.o)
 .comment       0x00000000       0x3d /opt/microchip/xc32/v1.32/bin/bin/../../lib/gcc/pic32mx/4.5.2/../../../../pic32mx/lib/libc.a(atoi.o)
 .comment       0x00000000       0x3d /opt/microchip/xc32/v1.32/bin/bin/../../lib/gcc/pic32mx/4.5.2/../../../../pic32mx/lib/libc.a(powersf.o)
 .comment       0x00000000       0x3d /opt/microchip/xc32/v1.32/bin/bin/../../lib/gcc/pic32mx/4.5.2/../../../../pic32mx/lib/libc.a(strtod.o)
 .comment       0x00000000       0x3d /opt/microchip/xc32/v1.32/bin/bin/../../lib/gcc/pic32mx/4.5.2/../../../../pic32mx/lib/libc.a(strtof.o)
 .comment       0x00000000       0x3d /opt/microchip/xc32/v1.32/bin/bin/../../lib/gcc/pic32mx/4.5.2/../../../../pic32mx/lib/libc.a(ungetc.o)
 .comment       0x00000000       0x3d /opt/microchip/xc32/v1.32/bin/bin/../../lib/gcc/pic32mx/4.5.2/../../../../pic32mx/lib/libc.a(_iob.o)
 .comment       0x00000000       0x3d /opt/microchip/xc32/v1.32/bin/bin/../../lib/gcc/pic32mx/4.5.2/../../../../pic32mx/lib/libc.a(filbuf.o)
 .comment       0x00000000       0x3d /opt/microchip/xc32/v1.32/bin/bin/../../lib/gcc/pic32mx/4.5.2/../../../../pic32mx/lib/libc.a(_flsbuf_simple.o)
 .comment       0x00000000       0x3d /opt/microchip/xc32/v1.32/bin/bin/../../lib/gcc/pic32mx/4.5.2/../../../../pic32mx/lib/libc.a(fflush.o)
 .comment       0x00000000       0x3d /opt/microchip/xc32/v1.32/bin/bin/../../lib/gcc/pic32mx/4.5.2/../../../../pic32mx/lib/libpic32.a(read.o)
 .comment       0x00000000       0x3d /opt/microchip/xc32/v1.32/bin/bin/../../lib/gcc/pic32mx/4.5.2/../../../../pic32mx/lib/libpic32.a(write.o)
 .comment       0x00000000       0x3d /opt/microchip/xc32/v1.32/bin/bin/../../lib/gcc/pic32mx/4.5.2/../../../../pic32mx/lib/libpic32.a(xc32_uart.o)
 .comment       0x00000000       0x3d /opt/microchip/xc32/v1.32/bin/bin/../../lib/gcc/pic32mx/4.5.2/../../../../pic32mx/lib/libpic32.a(_mon_putc.o)
 .comment       0x000001cc       0x9d /opt/microchip/xc32/v1.32/bin/bin/../../lib/gcc/pic32mx/4.5.2/../../../../pic32mx/lib/libm.a(__strtod.o)
                                 0xda (size before relaxing)
 .comment       0x00000269       0x4f /opt/microchip/xc32/v1.32/bin/bin/../../lib/gcc/pic32mx/4.5.2/../../../../pic32mx/lib/libm.a(__strtof.o)
                                 0xda (size before relaxing)
 .comment       0x000002b8       0x50 /opt/microchip/xc32/v1.32/bin/bin/../../lib/gcc/pic32mx/4.5.2/../../../../pic32mx/lib/libe.a(_floatdisf.o)
                                 0xdb (size before relaxing)
 .comment       0x00000308       0x50 /opt/microchip/xc32/v1.32/bin/bin/../../lib/gcc/pic32mx/4.5.2/../../../../pic32mx/lib/libe.a(_ldexp.o)
                                 0xdb (size before relaxing)
 .comment       0x00000358       0x50 /opt/microchip/xc32/v1.32/bin/bin/../../lib/gcc/pic32mx/4.5.2/../../../../pic32mx/lib/libe.a(_ldexpf.o)
                                 0xdb (size before relaxing)
 .comment       0x00000000       0x3d /opt/microchip/xc32/v1.32/bin/bin/../../lib/gcc/pic32mx/4.5.2/libgcc.a(_lshrdi3.o)
 .comment       0x00000000       0x3d /opt/microchip/xc32/v1.32/bin/bin/../../lib/gcc/pic32mx/4.5.2/libgcc.a(_ashldi3.o)
 .comment       0x00000000       0x3d /opt/microchip/xc32/v1.32/bin/bin/../../lib/gcc/pic32mx/4.5.2/libgcc.a(_floatundisf.o)
 .comment       0x00000000       0x3d /opt/microchip/xc32/v1.32/bin/bin/../../lib/gcc/pic32mx/4.5.2/libgcc.a(_umoddi3.o)
 .comment       0x00000000       0x3d /opt/microchip/xc32/v1.32/bin/bin/../../lib/gcc/pic32mx/4.5.2/libgcc.a(floatunsisf.o)
 .comment       0x00000000       0x3d /opt/microchip/xc32/v1.32/bin/bin/../../lib/gcc/pic32mx/4.5.2/../../../../pic32mx/lib/libc.a(errno.o)

.debug
 *(.debug)

.line
 *(.line)

.debug_srcinfo
 *(.debug_srcinfo)

.debug_sfnames
 *(.debug_sfnames)

.debug_aranges  0x00000000      0xe10
 *(.debug_aranges)
 .debug_aranges
                0x00000000       0x20 build/debug/production/_ext/71113213/SD-SPI.o
 .debug_aranges
                0x00000020       0x20 build/debug/production/_ext/71113213/FSIO.o
 .debug_aranges
                0x00000040       0x20 build/debug/production/_ext/2096855388/SClib.o
 .debug_aranges
                0x00000060       0x20 build/debug/production/_ext/2096855388/SCpic32.o
 .debug_aranges
                0x00000080       0x20 build/debug/production/_ext/870548313/usb_device.o
 .debug_aranges
                0x000000a0       0x20 build/debug/production/_ext/1379786196/usb_function_cdc.o
 .debug_aranges
                0x000000c0       0x20 build/debug/production/src/indala.o
 .debug_aranges
                0x000000e0       0x20 build/debug/production/src/main.o
 .debug_aranges
                0x00000100       0x20 build/debug/production/src/psk.o
 .debug_aranges
                0x00000120       0x20 build/debug/production/src/util.o
 .debug_aranges
                0x00000140       0x20 build/debug/production/src/emulate.o
 .debug_aranges
                0x00000160       0x20 build/debug/production/src/ask.o
 .debug_aranges
                0x00000180       0x20 build/debug/production/src/fsk.o
 .debug_aranges
                0x000001a0       0x20 build/debug/production/src/clock.o
 .debug_aranges
                0x000001c0       0x20 build/debug/production/src/rwd.o
 .debug_aranges
                0x000001e0       0x20 build/debug/production/src/detect.o
 .debug_aranges
                0x00000200       0x20 build/debug/production/src/hitagcrypto.o
 .debug_aranges
                0x00000220       0x20 build/debug/production/src/wiegand.o
 .debug_aranges
                0x00000240       0x20 build/debug/production/src/comms.o
 .debug_aranges
                0x00000260       0x20 build/debug/production/src/nvm.o
 .debug_aranges
                0x00000280       0x20 build/debug/production/src/mcp414x.o
 .debug_aranges
                0x000002a0       0x20 build/debug/production/src/spi.o
 .debug_aranges
                0x000002c0       0x20 build/debug/production/src/uart3.o
 .debug_aranges
                0x000002e0       0x20 build/debug/production/src/tags.o
 .debug_aranges
                0x00000300       0x20 build/debug/production/src/unique.o
 .debug_aranges
                0x00000320       0x20 build/debug/production/src/led.o
 .debug_aranges
                0x00000340       0x20 build/debug/production/src/em.o
 .debug_aranges
                0x00000360       0x20 build/debug/production/src/hid.o
 .debug_aranges
                0x00000380       0x20 build/debug/production/src/read.o
 .debug_aranges
                0x000003a0       0x20 build/debug/production/src/isr.o
 .debug_aranges
                0x000003c0       0x20 build/debug/production/src/auto.o
 .debug_aranges
                0x000003e0       0x20 build/debug/production/src/fdxb.o
 .debug_aranges
                0x00000400       0x20 build/debug/production/src/hitag.o
 .debug_aranges
                0x00000420       0x20 build/debug/production/src/uid.o
 .debug_aranges
                0x00000440       0x20 build/debug/production/src/login.o
 .debug_aranges
                0x00000460       0x20 build/debug/production/src/write.o
 .debug_aranges
                0x00000480       0x20 build/debug/production/src/auth.o
 .debug_aranges
                0x000004a0       0x20 build/debug/production/src/q5.o
 .debug_aranges
                0x000004c0       0x20 build/debug/production/src/vtag.o
 .debug_aranges
                0x000004e0       0x20 build/debug/production/src/config.o
 .debug_aranges
                0x00000500       0x20 build/debug/production/src/select.o
 .debug_aranges
                0x00000520       0x20 build/debug/production/src/sdcard.o
 .debug_aranges
                0x00000540       0x20 build/debug/production/src/debug_pins.o
 .debug_aranges
                0x00000560       0x20 build/debug/production/src/awid.o
 .debug_aranges
                0x00000580       0x20 build/debug/production/src/analogue.o
 .debug_aranges
                0x000005a0       0x20 build/debug/production/src/iso7816.o
 .debug_aranges
                0x000005c0       0x20 /opt/microchip/xc32/v1.32/pic32mx/lib/libmchp_peripheral_32MX795F512L.a(soft_reset_lib.o)
 .debug_aranges
                0x000005e0       0x28 /opt/microchip/xc32/v1.32/pic32mx/lib/libmchp_peripheral_32MX795F512L.a(pcache.o)
 .debug_aranges
                0x00000608       0x20 /opt/microchip/xc32/v1.32/pic32mx/lib/libmchp_peripheral_32MX795F512L.a(int_configure_system_lib.o)
 .debug_aranges
                0x00000628       0x20 /opt/microchip/xc32/v1.32/pic32mx/lib/libmchp_peripheral_32MX795F512L.a(int_enable_interrupts_lib.o)
 .debug_aranges
                0x00000648       0x20 /opt/microchip/xc32/v1.32/pic32mx/lib/libmchp_peripheral_32MX795F512L.a(int_disable_interrupts_lib.o)
 .debug_aranges
                0x00000668       0x20 /opt/microchip/xc32/v1.32/pic32mx/lib/libmchp_peripheral_32MX795F512L.a(int_restore_interrupts_lib.o)
 .debug_aranges
                0x00000688       0x20 /opt/microchip/xc32/v1.32/pic32mx/lib/libmchp_peripheral_32MX795F512L.a(int_enable_mv_int_lib.o)
 .debug_aranges
                0x000006a8       0x60 /opt/microchip/xc32/v1.32/pic32mx/lib/libmchp_peripheral_32MX795F512L.a(int_tbl_lib.o)
 .debug_aranges
                0x00000708       0x20 /opt/microchip/xc32/v1.32/pic32mx/lib/libmchp_peripheral_32MX795F512L.a(spi_chn_close_lib.o)
 .debug_aranges
                0x00000728       0x20 /opt/microchip/xc32/v1.32/pic32mx/lib/libmchp_peripheral_32MX795F512L.a(spi_chn_open_lib.o)
 .debug_aranges
                0x00000748       0x20 /opt/microchip/xc32/v1.32/pic32mx/lib/libmchp_peripheral_32MX795F512L.a(spi_getc_spi1_lib_legacy.o)
 .debug_aranges
                0x00000768       0x20 /opt/microchip/xc32/v1.32/pic32mx/lib/libmchp_peripheral_32MX795F512L.a(spi_open_spi1_lib_legacy.o)
 .debug_aranges
                0x00000788       0x20 /opt/microchip/xc32/v1.32/pic32mx/lib/libmchp_peripheral_32MX795F512L.a(nvm_erase_page_lib.o)
 .debug_aranges
                0x000007a8       0x20 /opt/microchip/xc32/v1.32/pic32mx/lib/libmchp_peripheral_32MX795F512L.a(nvm_operation_lib.o)
 .debug_aranges
                0x000007c8       0x20 /opt/microchip/xc32/v1.32/pic32mx/lib/libmchp_peripheral_32MX795F512L.a(nvm_program_lib.o)
 .debug_aranges
                0x000007e8       0x20 /opt/microchip/xc32/v1.32/pic32mx/lib/libmchp_peripheral_32MX795F512L.a(nvm_write_row_lib.o)
 .debug_aranges
                0x00000808       0x20 /opt/microchip/xc32/v1.32/pic32mx/lib/libmchp_peripheral_32MX795F512L.a(port_reset_pins_lib.o)
 .debug_aranges
                0x00000828       0x20 /opt/microchip/xc32/v1.32/pic32mx/lib/libmchp_peripheral_32MX795F512L.a(port_set_pins_digital_in_lib.o)
 .debug_aranges
                0x00000848       0x20 /opt/microchip/xc32/v1.32/pic32mx/lib/libmchp_peripheral_32MX795F512L.a(port_set_pins_digital_out_lib.o)
 .debug_aranges
                0x00000868       0x20 /opt/microchip/xc32/v1.32/bin/bin/../../lib/gcc/pic32mx/4.5.2/libgcc.a(_udivdi3.o)
 .debug_aranges
                0x00000888       0x20 /opt/microchip/xc32/v1.32/bin/bin/../../lib/gcc/pic32mx/4.5.2/../../../../pic32mx/lib/libpic32.a(default-bootstrap-exception-handler.o)
 .debug_aranges
                0x000008a8       0x20 /opt/microchip/xc32/v1.32/bin/bin/../../lib/gcc/pic32mx/4.5.2/../../../../pic32mx/lib/libpic32.a(default-on-reset.o)
 .debug_aranges
                0x000008c8       0x20 /opt/microchip/xc32/v1.32/bin/bin/../../lib/gcc/pic32mx/4.5.2/../../../../pic32mx/lib/libpic32.a(default-on-bootstrap.o)
 .debug_aranges
                0x000008e8       0x20 /opt/microchip/xc32/v1.32/bin/bin/../../lib/gcc/pic32mx/4.5.2/../../../../pic32mx/lib/libpic32.a(default-general-exception-handler.o)
 .debug_aranges
                0x00000908       0x20 /opt/microchip/xc32/v1.32/bin/bin/../../lib/gcc/pic32mx/4.5.2/../../../../pic32mx/lib/libpic32.a(defaultinterrupt.o)
 .debug_aranges
                0x00000928       0xa0 /opt/microchip/xc32/v1.32/bin/bin/../../lib/gcc/pic32mx/4.5.2/../../../../pic32mx/lib/libc.a(ctypef.o)
 .debug_aranges
                0x000009c8       0x28 /opt/microchip/xc32/v1.32/bin/bin/../../lib/gcc/pic32mx/4.5.2/../../../../pic32mx/lib/libc.a(rand.o)
 .debug_aranges
                0x000009f0       0x20 /opt/microchip/xc32/v1.32/bin/bin/../../lib/gcc/pic32mx/4.5.2/../../../../pic32mx/lib/libc.a(strncmp.o)
 .debug_aranges
                0x00000a10       0x20 /opt/microchip/xc32/v1.32/bin/bin/../../lib/gcc/pic32mx/4.5.2/../../../../pic32mx/lib/libc.a(strncpy.o)
 .debug_aranges
                0x00000a30       0x20 /opt/microchip/xc32/v1.32/bin/bin/../../lib/gcc/pic32mx/4.5.2/../../../../pic32mx/lib/libc.a(sprintf_cdnopuxX.eo)
 .debug_aranges
                0x00000a50       0x20 /opt/microchip/xc32/v1.32/bin/bin/../../lib/gcc/pic32mx/4.5.2/../../../../pic32mx/lib/libc.a(sprintf.o)
 .debug_aranges
                0x00000a70       0x20 /opt/microchip/xc32/v1.32/bin/bin/../../lib/gcc/pic32mx/4.5.2/../../../../pic32mx/lib/libc.a(sscanf_cdfFnopsuxX.eo)
 .debug_aranges
                0x00000a90       0x20 /opt/microchip/xc32/v1.32/bin/bin/../../lib/gcc/pic32mx/4.5.2/../../../../pic32mx/lib/libc.a(doprnt_cdnopuxX.eo)
 .debug_aranges
                0x00000ab0       0x30 /opt/microchip/xc32/v1.32/bin/bin/../../lib/gcc/pic32mx/4.5.2/../../../../pic32mx/lib/libc.a(doprnt.o)
 .debug_aranges
                0x00000ae0       0x30 /opt/microchip/xc32/v1.32/bin/bin/../../lib/gcc/pic32mx/4.5.2/../../../../pic32mx/lib/libc.a(doscan_cdfFnopsuxX.eo)
 .debug_aranges
                0x00000b10       0x30 /opt/microchip/xc32/v1.32/bin/bin/../../lib/gcc/pic32mx/4.5.2/../../../../pic32mx/lib/libc.a(doscan_cdnopuxX.eo)
 .debug_aranges
                0x00000b40       0x20 /opt/microchip/xc32/v1.32/bin/bin/../../lib/gcc/pic32mx/4.5.2/../../../../pic32mx/lib/libc.a(fgetc.o)
 .debug_aranges
                0x00000b60       0x20 /opt/microchip/xc32/v1.32/bin/bin/../../lib/gcc/pic32mx/4.5.2/../../../../pic32mx/lib/libc.a(_fputc_simple.o)
 .debug_aranges
                0x00000b80       0x20 /opt/microchip/xc32/v1.32/bin/bin/../../lib/gcc/pic32mx/4.5.2/../../../../pic32mx/lib/libc.a(atoi.o)
 .debug_aranges
                0x00000ba0       0x28 /opt/microchip/xc32/v1.32/bin/bin/../../lib/gcc/pic32mx/4.5.2/../../../../pic32mx/lib/libc.a(strtod.o)
 .debug_aranges
                0x00000bc8       0x28 /opt/microchip/xc32/v1.32/bin/bin/../../lib/gcc/pic32mx/4.5.2/../../../../pic32mx/lib/libc.a(strtof.o)
 .debug_aranges
                0x00000bf0       0x20 /opt/microchip/xc32/v1.32/bin/bin/../../lib/gcc/pic32mx/4.5.2/../../../../pic32mx/lib/libc.a(ungetc.o)
 .debug_aranges
                0x00000c10       0x20 /opt/microchip/xc32/v1.32/bin/bin/../../lib/gcc/pic32mx/4.5.2/../../../../pic32mx/lib/libc.a(filbuf.o)
 .debug_aranges
                0x00000c30       0x20 /opt/microchip/xc32/v1.32/bin/bin/../../lib/gcc/pic32mx/4.5.2/../../../../pic32mx/lib/libc.a(_flsbuf_simple.o)
 .debug_aranges
                0x00000c50       0x20 /opt/microchip/xc32/v1.32/bin/bin/../../lib/gcc/pic32mx/4.5.2/../../../../pic32mx/lib/libc.a(fflush.o)
 .debug_aranges
                0x00000c70       0x20 /opt/microchip/xc32/v1.32/bin/bin/../../lib/gcc/pic32mx/4.5.2/../../../../pic32mx/lib/libpic32.a(read.o)
 .debug_aranges
                0x00000c90       0x20 /opt/microchip/xc32/v1.32/bin/bin/../../lib/gcc/pic32mx/4.5.2/../../../../pic32mx/lib/libpic32.a(write.o)
 .debug_aranges
                0x00000cb0       0x20 /opt/microchip/xc32/v1.32/bin/bin/../../lib/gcc/pic32mx/4.5.2/../../../../pic32mx/lib/libpic32.a(_mon_putc.o)
 .debug_aranges
                0x00000cd0       0x20 /opt/microchip/xc32/v1.32/bin/bin/../../lib/gcc/pic32mx/4.5.2/../../../../pic32mx/lib/libm.a(__strtod.o)
 .debug_aranges
                0x00000cf0       0x20 /opt/microchip/xc32/v1.32/bin/bin/../../lib/gcc/pic32mx/4.5.2/../../../../pic32mx/lib/libm.a(__strtof.o)
 .debug_aranges
                0x00000d10       0x20 /opt/microchip/xc32/v1.32/bin/bin/../../lib/gcc/pic32mx/4.5.2/../../../../pic32mx/lib/libe.a(_floatdisf.o)
 .debug_aranges
                0x00000d30       0x20 /opt/microchip/xc32/v1.32/bin/bin/../../lib/gcc/pic32mx/4.5.2/../../../../pic32mx/lib/libe.a(_ldexp.o)
 .debug_aranges
                0x00000d50       0x20 /opt/microchip/xc32/v1.32/bin/bin/../../lib/gcc/pic32mx/4.5.2/../../../../pic32mx/lib/libe.a(_ldexpf.o)
 .debug_aranges
                0x00000d70       0x20 /opt/microchip/xc32/v1.32/bin/bin/../../lib/gcc/pic32mx/4.5.2/libgcc.a(_lshrdi3.o)
 .debug_aranges
                0x00000d90       0x20 /opt/microchip/xc32/v1.32/bin/bin/../../lib/gcc/pic32mx/4.5.2/libgcc.a(_ashldi3.o)
 .debug_aranges
                0x00000db0       0x20 /opt/microchip/xc32/v1.32/bin/bin/../../lib/gcc/pic32mx/4.5.2/libgcc.a(_floatundisf.o)
 .debug_aranges
                0x00000dd0       0x20 /opt/microchip/xc32/v1.32/bin/bin/../../lib/gcc/pic32mx/4.5.2/libgcc.a(_umoddi3.o)
 .debug_aranges
                0x00000df0       0x20 /opt/microchip/xc32/v1.32/bin/bin/../../lib/gcc/pic32mx/4.5.2/libgcc.a(floatunsisf.o)

.debug_pubnames
                0x00000000     0x374c
 *(.debug_pubnames)
 .debug_pubnames
                0x00000000      0x1fc build/debug/production/_ext/71113213/SD-SPI.o
 .debug_pubnames
                0x000001fc      0x730 build/debug/production/_ext/71113213/FSIO.o
 .debug_pubnames
                0x0000092c      0x201 build/debug/production/_ext/2096855388/SClib.o
 .debug_pubnames
                0x00000b2d      0x113 build/debug/production/_ext/2096855388/SCpic32.o
 .debug_pubnames
                0x00000c40      0x33a build/debug/production/_ext/870548313/usb_device.o
 .debug_pubnames
                0x00000f7a      0x1b2 build/debug/production/_ext/1379786196/usb_function_cdc.o
 .debug_pubnames
                0x0000112c       0x82 build/debug/production/src/indala.o
 .debug_pubnames
                0x000011ae      0x3e3 build/debug/production/src/main.o
 .debug_pubnames
                0x00001591       0xa5 build/debug/production/src/psk.o
 .debug_pubnames
                0x00001636       0x73 build/debug/production/src/usb_descriptors.o
 .debug_pubnames
                0x000016a9      0x46a build/debug/production/src/util.o
 .debug_pubnames
                0x00001b13       0x22 build/debug/production/src/emulate.o
 .debug_pubnames
                0x00001b35       0x9e build/debug/production/src/ask.o
 .debug_pubnames
                0x00001bd3       0xb8 build/debug/production/src/fsk.o
 .debug_pubnames
                0x00001c8b       0x74 build/debug/production/src/clock.o
 .debug_pubnames
                0x00001cff       0x3c build/debug/production/src/rwd.o
 .debug_pubnames
                0x00001d3b       0x2c build/debug/production/src/detect.o
 .debug_pubnames
                0x00001d67       0x79 build/debug/production/src/hitagcrypto.o
 .debug_pubnames
                0x00001de0       0xf7 build/debug/production/src/wiegand.o
 .debug_pubnames
                0x00001ed7       0xe5 build/debug/production/src/comms.o
 .debug_pubnames
                0x00001fbc       0x65 build/debug/production/src/nvm.o
 .debug_pubnames
                0x00002021       0xab build/debug/production/src/mcp414x.o
 .debug_pubnames
                0x000020cc       0x71 build/debug/production/src/spi.o
 .debug_pubnames
                0x0000213d       0xa2 build/debug/production/src/uart3.o
 .debug_pubnames
                0x000021df       0xb7 build/debug/production/src/tags.o
 .debug_pubnames
                0x00002296       0x7d build/debug/production/src/unique.o
 .debug_pubnames
                0x00002313       0x50 build/debug/production/src/led.o
 .debug_pubnames
                0x00002363       0x93 build/debug/production/src/em.o
 .debug_pubnames
                0x000023f6       0x63 build/debug/production/src/hid.o
 .debug_pubnames
                0x00002459       0x1f build/debug/production/src/read.o
 .debug_pubnames
                0x00002478       0xb1 build/debug/production/src/isr.o
 .debug_pubnames
                0x00002529       0x2b build/debug/production/src/auto.o
 .debug_pubnames
                0x00002554       0x73 build/debug/production/src/fdxb.o
 .debug_pubnames
                0x000025c7      0x2c8 build/debug/production/src/hitag.o
 .debug_pubnames
                0x0000288f       0x50 build/debug/production/src/uid.o
 .debug_pubnames
                0x000028df       0x20 build/debug/production/src/login.o
 .debug_pubnames
                0x000028ff       0x20 build/debug/production/src/write.o
 .debug_pubnames
                0x0000291f       0x1f build/debug/production/src/auth.o
 .debug_pubnames
                0x0000293e      0x14f build/debug/production/src/q5.o
 .debug_pubnames
                0x00002a8d       0xcc build/debug/production/src/vtag.o
 .debug_pubnames
                0x00002b59       0x7c build/debug/production/src/config.o
 .debug_pubnames
                0x00002bd5       0x21 build/debug/production/src/select.o
 .debug_pubnames
                0x00002bf6       0x22 build/debug/production/src/sdcard.o
 .debug_pubnames
                0x00002c18       0x69 build/debug/production/src/debug_pins.o
 .debug_pubnames
                0x00002c81       0x67 build/debug/production/src/awid.o
 .debug_pubnames
                0x00002ce8       0x5f build/debug/production/src/analogue.o
 .debug_pubnames
                0x00002d47       0x86 build/debug/production/src/iso7816.o
 .debug_pubnames
                0x00002dcd       0x20 /opt/microchip/xc32/v1.32/pic32mx/lib/libmchp_peripheral_32MX795F512L.a(soft_reset_lib.o)
 .debug_pubnames
                0x00002ded       0x3b /opt/microchip/xc32/v1.32/pic32mx/lib/libmchp_peripheral_32MX795F512L.a(pcache.o)
 .debug_pubnames
                0x00002e28       0x29 /opt/microchip/xc32/v1.32/pic32mx/lib/libmchp_peripheral_32MX795F512L.a(int_configure_system_lib.o)
 .debug_pubnames
                0x00002e51       0x2a /opt/microchip/xc32/v1.32/pic32mx/lib/libmchp_peripheral_32MX795F512L.a(int_enable_interrupts_lib.o)
 .debug_pubnames
                0x00002e7b       0x2b /opt/microchip/xc32/v1.32/pic32mx/lib/libmchp_peripheral_32MX795F512L.a(int_disable_interrupts_lib.o)
 .debug_pubnames
                0x00002ea6       0x2b /opt/microchip/xc32/v1.32/pic32mx/lib/libmchp_peripheral_32MX795F512L.a(int_restore_interrupts_lib.o)
 .debug_pubnames
                0x00002ed1       0x36 /opt/microchip/xc32/v1.32/pic32mx/lib/libmchp_peripheral_32MX795F512L.a(int_enable_mv_int_lib.o)
 .debug_pubnames
                0x00002f07       0xca /opt/microchip/xc32/v1.32/pic32mx/lib/libmchp_peripheral_32MX795F512L.a(int_tbl_lib.o)
 .debug_pubnames
                0x00002fd1       0x22 /opt/microchip/xc32/v1.32/pic32mx/lib/libmchp_peripheral_32MX795F512L.a(spi_chn_close_lib.o)
 .debug_pubnames
                0x00002ff3       0x21 /opt/microchip/xc32/v1.32/pic32mx/lib/libmchp_peripheral_32MX795F512L.a(spi_chn_open_lib.o)
 .debug_pubnames
                0x00003014       0x1f /opt/microchip/xc32/v1.32/pic32mx/lib/libmchp_peripheral_32MX795F512L.a(spi_getc_spi1_lib_legacy.o)
 .debug_pubnames
                0x00003033       0x1f /opt/microchip/xc32/v1.32/pic32mx/lib/libmchp_peripheral_32MX795F512L.a(spi_open_spi1_lib_legacy.o)
 .debug_pubnames
                0x00003052       0x23 /opt/microchip/xc32/v1.32/pic32mx/lib/libmchp_peripheral_32MX795F512L.a(nvm_erase_page_lib.o)
 .debug_pubnames
                0x00003075       0x24 /opt/microchip/xc32/v1.32/pic32mx/lib/libmchp_peripheral_32MX795F512L.a(nvm_operation_lib.o)
 .debug_pubnames
                0x00003099       0x21 /opt/microchip/xc32/v1.32/pic32mx/lib/libmchp_peripheral_32MX795F512L.a(nvm_program_lib.o)
 .debug_pubnames
                0x000030ba       0x22 /opt/microchip/xc32/v1.32/pic32mx/lib/libmchp_peripheral_32MX795F512L.a(nvm_write_row_lib.o)
 .debug_pubnames
                0x000030dc       0x24 /opt/microchip/xc32/v1.32/pic32mx/lib/libmchp_peripheral_32MX795F512L.a(port_reset_pins_lib.o)
 .debug_pubnames
                0x00003100       0x2b /opt/microchip/xc32/v1.32/pic32mx/lib/libmchp_peripheral_32MX795F512L.a(port_set_pins_digital_in_lib.o)
 .debug_pubnames
                0x0000312b       0x2c /opt/microchip/xc32/v1.32/pic32mx/lib/libmchp_peripheral_32MX795F512L.a(port_set_pins_digital_out_lib.o)
 .debug_pubnames
                0x00003157       0x20 /opt/microchip/xc32/v1.32/bin/bin/../../lib/gcc/pic32mx/4.5.2/libgcc.a(_udivdi3.o)
 .debug_pubnames
                0x00003177       0x33 /opt/microchip/xc32/v1.32/bin/bin/../../lib/gcc/pic32mx/4.5.2/../../../../pic32mx/lib/libpic32.a(default-bootstrap-exception-handler.o)
 .debug_pubnames
                0x000031aa       0x20 /opt/microchip/xc32/v1.32/bin/bin/../../lib/gcc/pic32mx/4.5.2/../../../../pic32mx/lib/libpic32.a(default-on-reset.o)
 .debug_pubnames
                0x000031ca       0x24 /opt/microchip/xc32/v1.32/bin/bin/../../lib/gcc/pic32mx/4.5.2/../../../../pic32mx/lib/libpic32.a(default-on-bootstrap.o)
 .debug_pubnames
                0x000031ee       0x31 /opt/microchip/xc32/v1.32/bin/bin/../../lib/gcc/pic32mx/4.5.2/../../../../pic32mx/lib/libpic32.a(default-general-exception-handler.o)
 .debug_pubnames
                0x0000321f       0x28 /opt/microchip/xc32/v1.32/bin/bin/../../lib/gcc/pic32mx/4.5.2/../../../../pic32mx/lib/libpic32.a(defaultinterrupt.o)
 .debug_pubnames
                0x00003247       0xe1 /opt/microchip/xc32/v1.32/bin/bin/../../lib/gcc/pic32mx/4.5.2/../../../../pic32mx/lib/libc.a(ctypef.o)
 .debug_pubnames
                0x00003328       0x25 /opt/microchip/xc32/v1.32/bin/bin/../../lib/gcc/pic32mx/4.5.2/../../../../pic32mx/lib/libc.a(rand.o)
 .debug_pubnames
                0x0000334d       0x1e /opt/microchip/xc32/v1.32/bin/bin/../../lib/gcc/pic32mx/4.5.2/../../../../pic32mx/lib/libc.a(strncmp.o)
 .debug_pubnames
                0x0000336b       0x1e /opt/microchip/xc32/v1.32/bin/bin/../../lib/gcc/pic32mx/4.5.2/../../../../pic32mx/lib/libc.a(strncpy.o)
 .debug_pubnames
                0x00003389       0x28 /opt/microchip/xc32/v1.32/bin/bin/../../lib/gcc/pic32mx/4.5.2/../../../../pic32mx/lib/libc.a(sprintf_cdnopuxX.eo)
 .debug_pubnames
                0x000033b1       0x1e /opt/microchip/xc32/v1.32/bin/bin/../../lib/gcc/pic32mx/4.5.2/../../../../pic32mx/lib/libc.a(sprintf.o)
 .debug_pubnames
                0x000033cf       0x2a /opt/microchip/xc32/v1.32/bin/bin/../../lib/gcc/pic32mx/4.5.2/../../../../pic32mx/lib/libc.a(sscanf_cdfFnopsuxX.eo)
 .debug_pubnames
                0x000033f9       0x29 /opt/microchip/xc32/v1.32/bin/bin/../../lib/gcc/pic32mx/4.5.2/../../../../pic32mx/lib/libc.a(doprnt_cdnopuxX.eo)
 .debug_pubnames
                0x00003422       0x1f /opt/microchip/xc32/v1.32/bin/bin/../../lib/gcc/pic32mx/4.5.2/../../../../pic32mx/lib/libc.a(doprnt.o)
 .debug_pubnames
                0x00003441       0x2b /opt/microchip/xc32/v1.32/bin/bin/../../lib/gcc/pic32mx/4.5.2/../../../../pic32mx/lib/libc.a(doscan_cdfFnopsuxX.eo)
 .debug_pubnames
                0x0000346c       0x28 /opt/microchip/xc32/v1.32/bin/bin/../../lib/gcc/pic32mx/4.5.2/../../../../pic32mx/lib/libc.a(doscan_cdnopuxX.eo)
 .debug_pubnames
                0x00003494       0x1c /opt/microchip/xc32/v1.32/bin/bin/../../lib/gcc/pic32mx/4.5.2/../../../../pic32mx/lib/libc.a(fgetc.o)
 .debug_pubnames
                0x000034b0       0x1c /opt/microchip/xc32/v1.32/bin/bin/../../lib/gcc/pic32mx/4.5.2/../../../../pic32mx/lib/libc.a(_fputc_simple.o)
 .debug_pubnames
                0x000034cc       0x1b /opt/microchip/xc32/v1.32/bin/bin/../../lib/gcc/pic32mx/4.5.2/../../../../pic32mx/lib/libc.a(atoi.o)
 .debug_pubnames
                0x000034e7       0x2a /opt/microchip/xc32/v1.32/bin/bin/../../lib/gcc/pic32mx/4.5.2/../../../../pic32mx/lib/libc.a(strtod.o)
 .debug_pubnames
                0x00003511       0x29 /opt/microchip/xc32/v1.32/bin/bin/../../lib/gcc/pic32mx/4.5.2/../../../../pic32mx/lib/libc.a(strtof.o)
 .debug_pubnames
                0x0000353a       0x1d /opt/microchip/xc32/v1.32/bin/bin/../../lib/gcc/pic32mx/4.5.2/../../../../pic32mx/lib/libc.a(ungetc.o)
 .debug_pubnames
                0x00003557       0x1e /opt/microchip/xc32/v1.32/bin/bin/../../lib/gcc/pic32mx/4.5.2/../../../../pic32mx/lib/libc.a(filbuf.o)
 .debug_pubnames
                0x00003575       0x1e /opt/microchip/xc32/v1.32/bin/bin/../../lib/gcc/pic32mx/4.5.2/../../../../pic32mx/lib/libc.a(_flsbuf_simple.o)
 .debug_pubnames
                0x00003593       0x1d /opt/microchip/xc32/v1.32/bin/bin/../../lib/gcc/pic32mx/4.5.2/../../../../pic32mx/lib/libc.a(fflush.o)
 .debug_pubnames
                0x000035b0       0x1b /opt/microchip/xc32/v1.32/bin/bin/../../lib/gcc/pic32mx/4.5.2/../../../../pic32mx/lib/libpic32.a(read.o)
 .debug_pubnames
                0x000035cb       0x1c /opt/microchip/xc32/v1.32/bin/bin/../../lib/gcc/pic32mx/4.5.2/../../../../pic32mx/lib/libpic32.a(write.o)
 .debug_pubnames
                0x000035e7       0x20 /opt/microchip/xc32/v1.32/bin/bin/../../lib/gcc/pic32mx/4.5.2/../../../../pic32mx/lib/libpic32.a(_mon_putc.o)
 .debug_pubnames
                0x00003607       0x1f /opt/microchip/xc32/v1.32/bin/bin/../../lib/gcc/pic32mx/4.5.2/../../../../pic32mx/lib/libm.a(__strtod.o)
 .debug_pubnames
                0x00003626       0x1f /opt/microchip/xc32/v1.32/bin/bin/../../lib/gcc/pic32mx/4.5.2/../../../../pic32mx/lib/libm.a(__strtof.o)
 .debug_pubnames
                0x00003645       0x22 /opt/microchip/xc32/v1.32/bin/bin/../../lib/gcc/pic32mx/4.5.2/../../../../pic32mx/lib/libe.a(_floatdisf.o)
 .debug_pubnames
                0x00003667       0x1e /opt/microchip/xc32/v1.32/bin/bin/../../lib/gcc/pic32mx/4.5.2/../../../../pic32mx/lib/libe.a(_ldexp.o)
 .debug_pubnames
                0x00003685       0x1f /opt/microchip/xc32/v1.32/bin/bin/../../lib/gcc/pic32mx/4.5.2/../../../../pic32mx/lib/libe.a(_ldexpf.o)
 .debug_pubnames
                0x000036a4       0x20 /opt/microchip/xc32/v1.32/bin/bin/../../lib/gcc/pic32mx/4.5.2/libgcc.a(_lshrdi3.o)
 .debug_pubnames
                0x000036c4       0x20 /opt/microchip/xc32/v1.32/bin/bin/../../lib/gcc/pic32mx/4.5.2/libgcc.a(_ashldi3.o)
 .debug_pubnames
                0x000036e4       0x24 /opt/microchip/xc32/v1.32/bin/bin/../../lib/gcc/pic32mx/4.5.2/libgcc.a(_floatundisf.o)
 .debug_pubnames
                0x00003708       0x20 /opt/microchip/xc32/v1.32/bin/bin/../../lib/gcc/pic32mx/4.5.2/libgcc.a(_umoddi3.o)
 .debug_pubnames
                0x00003728       0x24 /opt/microchip/xc32/v1.32/bin/bin/../../lib/gcc/pic32mx/4.5.2/libgcc.a(floatunsisf.o)

.debug_info     0x00000000    0x5bc2b
 *(.debug_info .gnu.linkonce.wi.*)
 .debug_info    0x00000000     0x2dc6 build/debug/production/_ext/71113213/SD-SPI.o
 .debug_info    0x00002dc6     0x5962 build/debug/production/_ext/71113213/FSIO.o
 .debug_info    0x00008728     0x225c build/debug/production/_ext/2096855388/SClib.o
 .debug_info    0x0000a984     0x319a build/debug/production/_ext/2096855388/SCpic32.o
 .debug_info    0x0000db1e     0x3c1a build/debug/production/_ext/870548313/usb_device.o
 .debug_info    0x00011738     0x29b7 build/debug/production/_ext/1379786196/usb_function_cdc.o
 .debug_info    0x000140ef     0x17cf build/debug/production/src/indala.o
 .debug_info    0x000158be     0x51e1 build/debug/production/src/main.o
 .debug_info    0x0001aa9f     0x225e build/debug/production/src/psk.o
 .debug_info    0x0001ccfd     0x17d5 build/debug/production/src/usb_descriptors.o
 .debug_info    0x0001e4d2     0x2ac1 build/debug/production/src/util.o
 .debug_info    0x00020f93     0x156a build/debug/production/src/emulate.o
 .debug_info    0x000224fd     0x213a build/debug/production/src/ask.o
 .debug_info    0x00024637     0x2243 build/debug/production/src/fsk.o
 .debug_info    0x0002687a     0x20c7 build/debug/production/src/clock.o
 .debug_info    0x00028941     0x192b build/debug/production/src/rwd.o
 .debug_info    0x0002a26c     0x165d build/debug/production/src/detect.o
 .debug_info    0x0002b8c9     0x14f8 build/debug/production/src/hitagcrypto.o
 .debug_info    0x0002cdc1     0x219a build/debug/production/src/wiegand.o
 .debug_info    0x0002ef5b     0x17e9 build/debug/production/src/comms.o
 .debug_info    0x00030744     0x169b build/debug/production/src/nvm.o
 .debug_info    0x00031ddf     0x1436 build/debug/production/src/mcp414x.o
 .debug_info    0x00033215     0x17e2 build/debug/production/src/spi.o
 .debug_info    0x000349f7     0x1dd4 build/debug/production/src/uart3.o
 .debug_info    0x000367cb     0x180b build/debug/production/src/tags.o
 .debug_info    0x00037fd6     0x1332 build/debug/production/src/unique.o
 .debug_info    0x00039308     0x186b build/debug/production/src/led.o
 .debug_info    0x0003ab73     0x13f8 build/debug/production/src/em.o
 .debug_info    0x0003bf6b     0x1355 build/debug/production/src/hid.o
 .debug_info    0x0003d2c0     0x150c build/debug/production/src/read.o
 .debug_info    0x0003e7cc     0x1faf build/debug/production/src/isr.o
 .debug_info    0x0004077b     0x164a build/debug/production/src/auto.o
 .debug_info    0x00041dc5     0x1416 build/debug/production/src/fdxb.o
 .debug_info    0x000431db     0x2051 build/debug/production/src/hitag.o
 .debug_info    0x0004522c     0x1643 build/debug/production/src/uid.o
 .debug_info    0x0004686f     0x14f0 build/debug/production/src/login.o
 .debug_info    0x00047d5f     0x14ef build/debug/production/src/write.o
 .debug_info    0x0004924e     0x1516 build/debug/production/src/auth.o
 .debug_info    0x0004a764     0x1c85 build/debug/production/src/q5.o
 .debug_info    0x0004c3e9     0x1aa3 build/debug/production/src/vtag.o
 .debug_info    0x0004de8c     0x1449 build/debug/production/src/config.o
 .debug_info    0x0004f2d5     0x1524 build/debug/production/src/select.o
 .debug_info    0x000507f9     0x1325 build/debug/production/src/sdcard.o
 .debug_info    0x00051b1e     0x1569 build/debug/production/src/debug_pins.o
 .debug_info    0x00053087     0x1379 build/debug/production/src/awid.o
 .debug_info    0x00054400     0x2181 build/debug/production/src/analogue.o
 .debug_info    0x00056581     0x1494 build/debug/production/src/iso7816.o
 .debug_info    0x00057a15       0xb2 /opt/microchip/xc32/v1.32/pic32mx/lib/libmchp_peripheral_32MX795F512L.a(soft_reset_lib.o)
 .debug_info    0x00057ac7       0xbf /opt/microchip/xc32/v1.32/pic32mx/lib/libmchp_peripheral_32MX795F512L.a(pcache.o)
 .debug_info    0x00057b86       0xb2 /opt/microchip/xc32/v1.32/pic32mx/lib/libmchp_peripheral_32MX795F512L.a(int_configure_system_lib.o)
 .debug_info    0x00057c38       0xb4 /opt/microchip/xc32/v1.32/pic32mx/lib/libmchp_peripheral_32MX795F512L.a(int_enable_interrupts_lib.o)
 .debug_info    0x00057cec       0xb6 /opt/microchip/xc32/v1.32/pic32mx/lib/libmchp_peripheral_32MX795F512L.a(int_disable_interrupts_lib.o)
 .debug_info    0x00057da2       0xb6 /opt/microchip/xc32/v1.32/pic32mx/lib/libmchp_peripheral_32MX795F512L.a(int_restore_interrupts_lib.o)
 .debug_info    0x00057e58       0xbc /opt/microchip/xc32/v1.32/pic32mx/lib/libmchp_peripheral_32MX795F512L.a(int_enable_mv_int_lib.o)
 .debug_info    0x00057f14      0x196 /opt/microchip/xc32/v1.32/pic32mx/lib/libmchp_peripheral_32MX795F512L.a(int_tbl_lib.o)
 .debug_info    0x000580aa       0xa4 /opt/microchip/xc32/v1.32/pic32mx/lib/libmchp_peripheral_32MX795F512L.a(spi_chn_close_lib.o)
 .debug_info    0x0005814e       0xa2 /opt/microchip/xc32/v1.32/pic32mx/lib/libmchp_peripheral_32MX795F512L.a(spi_chn_open_lib.o)
 .debug_info    0x000581f0        0x0 /opt/microchip/xc32/v1.32/pic32mx/lib/libmchp_peripheral_32MX795F512L.a(spi_io_tbl_libp.o)
 .debug_info    0x000581f0        0x0 /opt/microchip/xc32/v1.32/pic32mx/lib/libmchp_peripheral_32MX795F512L.a(spi_map_tbl_libp.o)
 .debug_info    0x000581f0       0xa8 /opt/microchip/xc32/v1.32/pic32mx/lib/libmchp_peripheral_32MX795F512L.a(spi_getc_spi1_lib_legacy.o)
 .debug_info    0x00058298       0xa8 /opt/microchip/xc32/v1.32/pic32mx/lib/libmchp_peripheral_32MX795F512L.a(spi_open_spi1_lib_legacy.o)
 .debug_info    0x00058340        0x0 /opt/microchip/xc32/v1.32/pic32mx/lib/libmchp_peripheral_32MX795F512L.a(spi_brg_tbl_lib_legacy.o)
 .debug_info    0x00058340       0xa6 /opt/microchip/xc32/v1.32/pic32mx/lib/libmchp_peripheral_32MX795F512L.a(nvm_erase_page_lib.o)
 .debug_info    0x000583e6       0xc7 /opt/microchip/xc32/v1.32/pic32mx/lib/libmchp_peripheral_32MX795F512L.a(nvm_operation_lib.o)
 .debug_info    0x000584ad       0xa1 /opt/microchip/xc32/v1.32/pic32mx/lib/libmchp_peripheral_32MX795F512L.a(nvm_program_lib.o)
 .debug_info    0x0005854e       0xa4 /opt/microchip/xc32/v1.32/pic32mx/lib/libmchp_peripheral_32MX795F512L.a(nvm_write_row_lib.o)
 .debug_info    0x000585f2       0xaa /opt/microchip/xc32/v1.32/pic32mx/lib/libmchp_peripheral_32MX795F512L.a(port_reset_pins_lib.o)
 .debug_info    0x0005869c       0xba /opt/microchip/xc32/v1.32/pic32mx/lib/libmchp_peripheral_32MX795F512L.a(port_set_pins_digital_in_lib.o)
 .debug_info    0x00058756       0xbc /opt/microchip/xc32/v1.32/pic32mx/lib/libmchp_peripheral_32MX795F512L.a(port_set_pins_digital_out_lib.o)
 .debug_info    0x00058812        0x0 /opt/microchip/xc32/v1.32/pic32mx/lib/libmchp_peripheral_32MX795F512L.a(_ports_tbl_libp.o)
 .debug_info    0x00058812      0x790 /opt/microchip/xc32/v1.32/bin/bin/../../lib/gcc/pic32mx/4.5.2/libgcc.a(_udivdi3.o)
 .debug_info    0x00058fa2       0xde /opt/microchip/xc32/v1.32/bin/bin/../../lib/gcc/pic32mx/4.5.2/../../../../pic32mx/lib/libpic32.a(default-bootstrap-exception-handler.o)
 .debug_info    0x00059080       0xb8 /opt/microchip/xc32/v1.32/bin/bin/../../lib/gcc/pic32mx/4.5.2/../../../../pic32mx/lib/libpic32.a(default-on-reset.o)
 .debug_info    0x00059138       0xc0 /opt/microchip/xc32/v1.32/bin/bin/../../lib/gcc/pic32mx/4.5.2/../../../../pic32mx/lib/libpic32.a(default-on-bootstrap.o)
 .debug_info    0x000591f8       0xda /opt/microchip/xc32/v1.32/bin/bin/../../lib/gcc/pic32mx/4.5.2/../../../../pic32mx/lib/libpic32.a(default-general-exception-handler.o)
 .debug_info    0x000592d2       0xd2 /opt/microchip/xc32/v1.32/bin/bin/../../lib/gcc/pic32mx/4.5.2/../../../../pic32mx/lib/libpic32.a(defaultinterrupt.o)
 .debug_info    0x000593a4      0x215 /opt/microchip/xc32/v1.32/bin/bin/../../lib/gcc/pic32mx/4.5.2/../../../../pic32mx/lib/libc.a(ctypef.o)
 .debug_info    0x000595b9       0xc7 /opt/microchip/xc32/v1.32/bin/bin/../../lib/gcc/pic32mx/4.5.2/../../../../pic32mx/lib/libc.a(rand.o)
 .debug_info    0x00059680       0xb3 /opt/microchip/xc32/v1.32/bin/bin/../../lib/gcc/pic32mx/4.5.2/../../../../pic32mx/lib/libc.a(strncmp.o)
 .debug_info    0x00059733       0xb3 /opt/microchip/xc32/v1.32/bin/bin/../../lib/gcc/pic32mx/4.5.2/../../../../pic32mx/lib/libc.a(strncpy.o)
 .debug_info    0x000597e6       0xbd /opt/microchip/xc32/v1.32/bin/bin/../../lib/gcc/pic32mx/4.5.2/../../../../pic32mx/lib/libc.a(sprintf_cdnopuxX.eo)
 .debug_info    0x000598a3       0xb3 /opt/microchip/xc32/v1.32/bin/bin/../../lib/gcc/pic32mx/4.5.2/../../../../pic32mx/lib/libc.a(sprintf.o)
 .debug_info    0x00059956       0xbe /opt/microchip/xc32/v1.32/bin/bin/../../lib/gcc/pic32mx/4.5.2/../../../../pic32mx/lib/libc.a(sscanf_cdfFnopsuxX.eo)
 .debug_info    0x00059a14        0x0 /opt/microchip/xc32/v1.32/bin/bin/../../lib/gcc/pic32mx/4.5.2/../../../../pic32mx/lib/libc.a(ctype.o)
 .debug_info    0x00059a14       0xbe /opt/microchip/xc32/v1.32/bin/bin/../../lib/gcc/pic32mx/4.5.2/../../../../pic32mx/lib/libc.a(doprnt_cdnopuxX.eo)
 .debug_info    0x00059ad2       0xdd /opt/microchip/xc32/v1.32/bin/bin/../../lib/gcc/pic32mx/4.5.2/../../../../pic32mx/lib/libc.a(doprnt.o)
 .debug_info    0x00059baf       0xe6 /opt/microchip/xc32/v1.32/bin/bin/../../lib/gcc/pic32mx/4.5.2/../../../../pic32mx/lib/libc.a(doscan_cdfFnopsuxX.eo)
 .debug_info    0x00059c95       0xe3 /opt/microchip/xc32/v1.32/bin/bin/../../lib/gcc/pic32mx/4.5.2/../../../../pic32mx/lib/libc.a(doscan_cdnopuxX.eo)
 .debug_info    0x00059d78       0xaf /opt/microchip/xc32/v1.32/bin/bin/../../lib/gcc/pic32mx/4.5.2/../../../../pic32mx/lib/libc.a(fgetc.o)
 .debug_info    0x00059e27       0xaf /opt/microchip/xc32/v1.32/bin/bin/../../lib/gcc/pic32mx/4.5.2/../../../../pic32mx/lib/libc.a(_fputc_simple.o)
 .debug_info    0x00059ed6       0xad /opt/microchip/xc32/v1.32/bin/bin/../../lib/gcc/pic32mx/4.5.2/../../../../pic32mx/lib/libc.a(atoi.o)
 .debug_info    0x00059f83        0x0 /opt/microchip/xc32/v1.32/bin/bin/../../lib/gcc/pic32mx/4.5.2/../../../../pic32mx/lib/libc.a(powersf.o)
 .debug_info    0x00059f83       0xe0 /opt/microchip/xc32/v1.32/bin/bin/../../lib/gcc/pic32mx/4.5.2/../../../../pic32mx/lib/libc.a(strtod.o)
 .debug_info    0x0005a063       0xdf /opt/microchip/xc32/v1.32/bin/bin/../../lib/gcc/pic32mx/4.5.2/../../../../pic32mx/lib/libc.a(strtof.o)
 .debug_info    0x0005a142       0xb1 /opt/microchip/xc32/v1.32/bin/bin/../../lib/gcc/pic32mx/4.5.2/../../../../pic32mx/lib/libc.a(ungetc.o)
 .debug_info    0x0005a1f3        0x0 /opt/microchip/xc32/v1.32/bin/bin/../../lib/gcc/pic32mx/4.5.2/../../../../pic32mx/lib/libc.a(_iob.o)
 .debug_info    0x0005a1f3       0xb2 /opt/microchip/xc32/v1.32/bin/bin/../../lib/gcc/pic32mx/4.5.2/../../../../pic32mx/lib/libc.a(filbuf.o)
 .debug_info    0x0005a2a5       0xb2 /opt/microchip/xc32/v1.32/bin/bin/../../lib/gcc/pic32mx/4.5.2/../../../../pic32mx/lib/libc.a(_flsbuf_simple.o)
 .debug_info    0x0005a357       0xb1 /opt/microchip/xc32/v1.32/bin/bin/../../lib/gcc/pic32mx/4.5.2/../../../../pic32mx/lib/libc.a(fflush.o)
 .debug_info    0x0005a408       0xa7 /opt/microchip/xc32/v1.32/bin/bin/../../lib/gcc/pic32mx/4.5.2/../../../../pic32mx/lib/libpic32.a(read.o)
 .debug_info    0x0005a4af       0xa9 /opt/microchip/xc32/v1.32/bin/bin/../../lib/gcc/pic32mx/4.5.2/../../../../pic32mx/lib/libpic32.a(write.o)
 .debug_info    0x0005a558        0x0 /opt/microchip/xc32/v1.32/bin/bin/../../lib/gcc/pic32mx/4.5.2/../../../../pic32mx/lib/libpic32.a(xc32_uart.o)
 .debug_info    0x0005a558       0xb1 /opt/microchip/xc32/v1.32/bin/bin/../../lib/gcc/pic32mx/4.5.2/../../../../pic32mx/lib/libpic32.a(_mon_putc.o)
 .debug_info    0x0005a609       0xc2 /opt/microchip/xc32/v1.32/bin/bin/../../lib/gcc/pic32mx/4.5.2/../../../../pic32mx/lib/libm.a(__strtod.o)
 .debug_info    0x0005a6cb       0xc2 /opt/microchip/xc32/v1.32/bin/bin/../../lib/gcc/pic32mx/4.5.2/../../../../pic32mx/lib/libm.a(__strtof.o)
 .debug_info    0x0005a78d       0xc7 /opt/microchip/xc32/v1.32/bin/bin/../../lib/gcc/pic32mx/4.5.2/../../../../pic32mx/lib/libe.a(_floatdisf.o)
 .debug_info    0x0005a854       0xc3 /opt/microchip/xc32/v1.32/bin/bin/../../lib/gcc/pic32mx/4.5.2/../../../../pic32mx/lib/libe.a(_ldexp.o)
 .debug_info    0x0005a917       0xc4 /opt/microchip/xc32/v1.32/bin/bin/../../lib/gcc/pic32mx/4.5.2/../../../../pic32mx/lib/libe.a(_ldexpf.o)
 .debug_info    0x0005a9db      0x349 /opt/microchip/xc32/v1.32/bin/bin/../../lib/gcc/pic32mx/4.5.2/libgcc.a(_lshrdi3.o)
 .debug_info    0x0005ad24      0x345 /opt/microchip/xc32/v1.32/bin/bin/../../lib/gcc/pic32mx/4.5.2/libgcc.a(_ashldi3.o)
 .debug_info    0x0005b069      0x2d0 /opt/microchip/xc32/v1.32/bin/bin/../../lib/gcc/pic32mx/4.5.2/libgcc.a(_floatundisf.o)
 .debug_info    0x0005b339      0x7c6 /opt/microchip/xc32/v1.32/bin/bin/../../lib/gcc/pic32mx/4.5.2/libgcc.a(_umoddi3.o)
 .debug_info    0x0005baff      0x12c /opt/microchip/xc32/v1.32/bin/bin/../../lib/gcc/pic32mx/4.5.2/libgcc.a(floatunsisf.o)
 .debug_info    0x0005bc2b        0x0 /opt/microchip/xc32/v1.32/bin/bin/../../lib/gcc/pic32mx/4.5.2/../../../../pic32mx/lib/libc.a(errno.o)

.debug_abbrev   0x00000000     0x75f1
 *(.debug_abbrev)
 .debug_abbrev  0x00000000      0x341 build/debug/production/_ext/71113213/SD-SPI.o
 .debug_abbrev  0x00000341      0x2f4 build/debug/production/_ext/71113213/FSIO.o
 .debug_abbrev  0x00000635      0x298 build/debug/production/_ext/2096855388/SClib.o
 .debug_abbrev  0x000008cd      0x22c build/debug/production/_ext/2096855388/SCpic32.o
 .debug_abbrev  0x00000af9      0x2ec build/debug/production/_ext/870548313/usb_device.o
 .debug_abbrev  0x00000de5      0x29d build/debug/production/_ext/1379786196/usb_function_cdc.o
 .debug_abbrev  0x00001082      0x1f5 build/debug/production/src/indala.o
 .debug_abbrev  0x00001277      0x3d0 build/debug/production/src/main.o
 .debug_abbrev  0x00001647      0x2a3 build/debug/production/src/psk.o
 .debug_abbrev  0x000018ea      0x1e5 build/debug/production/src/usb_descriptors.o
 .debug_abbrev  0x00001acf      0x2c1 build/debug/production/src/util.o
 .debug_abbrev  0x00001d90      0x1ea build/debug/production/src/emulate.o
 .debug_abbrev  0x00001f7a      0x274 build/debug/production/src/ask.o
 .debug_abbrev  0x000021ee      0x274 build/debug/production/src/fsk.o
 .debug_abbrev  0x00002462      0x206 build/debug/production/src/clock.o
 .debug_abbrev  0x00002668      0x21f build/debug/production/src/rwd.o
 .debug_abbrev  0x00002887      0x18c build/debug/production/src/detect.o
 .debug_abbrev  0x00002a13      0x239 build/debug/production/src/hitagcrypto.o
 .debug_abbrev  0x00002c4c      0x232 build/debug/production/src/wiegand.o
 .debug_abbrev  0x00002e7e      0x281 build/debug/production/src/comms.o
 .debug_abbrev  0x000030ff      0x1fe build/debug/production/src/nvm.o
 .debug_abbrev  0x000032fd      0x1ea build/debug/production/src/mcp414x.o
 .debug_abbrev  0x000034e7      0x1d9 build/debug/production/src/spi.o
 .debug_abbrev  0x000036c0      0x224 build/debug/production/src/uart3.o
 .debug_abbrev  0x000038e4      0x27c build/debug/production/src/tags.o
 .debug_abbrev  0x00003b60      0x1cd build/debug/production/src/unique.o
 .debug_abbrev  0x00003d2d      0x1b5 build/debug/production/src/led.o
 .debug_abbrev  0x00003ee2      0x1ed build/debug/production/src/em.o
 .debug_abbrev  0x000040cf      0x1e3 build/debug/production/src/hid.o
 .debug_abbrev  0x000042b2      0x1be build/debug/production/src/read.o
 .debug_abbrev  0x00004470      0x265 build/debug/production/src/isr.o
 .debug_abbrev  0x000046d5      0x1f3 build/debug/production/src/auto.o
 .debug_abbrev  0x000048c8      0x229 build/debug/production/src/fdxb.o
 .debug_abbrev  0x00004af1      0x2bf build/debug/production/src/hitag.o
 .debug_abbrev  0x00004db0      0x219 build/debug/production/src/uid.o
 .debug_abbrev  0x00004fc9      0x1af build/debug/production/src/login.o
 .debug_abbrev  0x00005178      0x1af build/debug/production/src/write.o
 .debug_abbrev  0x00005327      0x1ce build/debug/production/src/auth.o
 .debug_abbrev  0x000054f5      0x2a4 build/debug/production/src/q5.o
 .debug_abbrev  0x00005799      0x305 build/debug/production/src/vtag.o
 .debug_abbrev  0x00005a9e      0x1f6 build/debug/production/src/config.o
 .debug_abbrev  0x00005c94      0x1e6 build/debug/production/src/select.o
 .debug_abbrev  0x00005e7a      0x1eb build/debug/production/src/sdcard.o
 .debug_abbrev  0x00006065      0x1fe build/debug/production/src/debug_pins.o
 .debug_abbrev  0x00006263      0x1e3 build/debug/production/src/awid.o
 .debug_abbrev  0x00006446      0x234 build/debug/production/src/analogue.o
 .debug_abbrev  0x0000667a      0x227 build/debug/production/src/iso7816.o
 .debug_abbrev  0x000068a1       0x34 /opt/microchip/xc32/v1.32/pic32mx/lib/libmchp_peripheral_32MX795F512L.a(soft_reset_lib.o)
 .debug_abbrev  0x000068d5       0x25 /opt/microchip/xc32/v1.32/pic32mx/lib/libmchp_peripheral_32MX795F512L.a(pcache.o)
 .debug_abbrev  0x000068fa       0x25 /opt/microchip/xc32/v1.32/pic32mx/lib/libmchp_peripheral_32MX795F512L.a(int_configure_system_lib.o)
 .debug_abbrev  0x0000691f       0x25 /opt/microchip/xc32/v1.32/pic32mx/lib/libmchp_peripheral_32MX795F512L.a(int_enable_interrupts_lib.o)
 .debug_abbrev  0x00006944       0x25 /opt/microchip/xc32/v1.32/pic32mx/lib/libmchp_peripheral_32MX795F512L.a(int_disable_interrupts_lib.o)
 .debug_abbrev  0x00006969       0x25 /opt/microchip/xc32/v1.32/pic32mx/lib/libmchp_peripheral_32MX795F512L.a(int_restore_interrupts_lib.o)
 .debug_abbrev  0x0000698e       0x25 /opt/microchip/xc32/v1.32/pic32mx/lib/libmchp_peripheral_32MX795F512L.a(int_enable_mv_int_lib.o)
 .debug_abbrev  0x000069b3       0x25 /opt/microchip/xc32/v1.32/pic32mx/lib/libmchp_peripheral_32MX795F512L.a(int_tbl_lib.o)
 .debug_abbrev  0x000069d8       0x25 /opt/microchip/xc32/v1.32/pic32mx/lib/libmchp_peripheral_32MX795F512L.a(spi_chn_close_lib.o)
 .debug_abbrev  0x000069fd       0x25 /opt/microchip/xc32/v1.32/pic32mx/lib/libmchp_peripheral_32MX795F512L.a(spi_chn_open_lib.o)
 .debug_abbrev  0x00006a22        0x1 /opt/microchip/xc32/v1.32/pic32mx/lib/libmchp_peripheral_32MX795F512L.a(spi_io_tbl_libp.o)
 .debug_abbrev  0x00006a23        0x1 /opt/microchip/xc32/v1.32/pic32mx/lib/libmchp_peripheral_32MX795F512L.a(spi_map_tbl_libp.o)
 .debug_abbrev  0x00006a24       0x25 /opt/microchip/xc32/v1.32/pic32mx/lib/libmchp_peripheral_32MX795F512L.a(spi_getc_spi1_lib_legacy.o)
 .debug_abbrev  0x00006a49       0x25 /opt/microchip/xc32/v1.32/pic32mx/lib/libmchp_peripheral_32MX795F512L.a(spi_open_spi1_lib_legacy.o)
 .debug_abbrev  0x00006a6e        0x1 /opt/microchip/xc32/v1.32/pic32mx/lib/libmchp_peripheral_32MX795F512L.a(spi_brg_tbl_lib_legacy.o)
 .debug_abbrev  0x00006a6f       0x25 /opt/microchip/xc32/v1.32/pic32mx/lib/libmchp_peripheral_32MX795F512L.a(nvm_erase_page_lib.o)
 .debug_abbrev  0x00006a94       0x34 /opt/microchip/xc32/v1.32/pic32mx/lib/libmchp_peripheral_32MX795F512L.a(nvm_operation_lib.o)
 .debug_abbrev  0x00006ac8       0x25 /opt/microchip/xc32/v1.32/pic32mx/lib/libmchp_peripheral_32MX795F512L.a(nvm_program_lib.o)
 .debug_abbrev  0x00006aed       0x25 /opt/microchip/xc32/v1.32/pic32mx/lib/libmchp_peripheral_32MX795F512L.a(nvm_write_row_lib.o)
 .debug_abbrev  0x00006b12       0x25 /opt/microchip/xc32/v1.32/pic32mx/lib/libmchp_peripheral_32MX795F512L.a(port_reset_pins_lib.o)
 .debug_abbrev  0x00006b37       0x25 /opt/microchip/xc32/v1.32/pic32mx/lib/libmchp_peripheral_32MX795F512L.a(port_set_pins_digital_in_lib.o)
 .debug_abbrev  0x00006b5c       0x25 /opt/microchip/xc32/v1.32/pic32mx/lib/libmchp_peripheral_32MX795F512L.a(port_set_pins_digital_out_lib.o)
 .debug_abbrev  0x00006b81        0x1 /opt/microchip/xc32/v1.32/pic32mx/lib/libmchp_peripheral_32MX795F512L.a(_ports_tbl_libp.o)
 .debug_abbrev  0x00006b82      0x132 /opt/microchip/xc32/v1.32/bin/bin/../../lib/gcc/pic32mx/4.5.2/libgcc.a(_udivdi3.o)
 .debug_abbrev  0x00006cb4       0x23 /opt/microchip/xc32/v1.32/bin/bin/../../lib/gcc/pic32mx/4.5.2/../../../../pic32mx/lib/libpic32.a(default-bootstrap-exception-handler.o)
 .debug_abbrev  0x00006cd7       0x23 /opt/microchip/xc32/v1.32/bin/bin/../../lib/gcc/pic32mx/4.5.2/../../../../pic32mx/lib/libpic32.a(default-on-reset.o)
 .debug_abbrev  0x00006cfa       0x23 /opt/microchip/xc32/v1.32/bin/bin/../../lib/gcc/pic32mx/4.5.2/../../../../pic32mx/lib/libpic32.a(default-on-bootstrap.o)
 .debug_abbrev  0x00006d1d       0x23 /opt/microchip/xc32/v1.32/bin/bin/../../lib/gcc/pic32mx/4.5.2/../../../../pic32mx/lib/libpic32.a(default-general-exception-handler.o)
 .debug_abbrev  0x00006d40       0x23 /opt/microchip/xc32/v1.32/bin/bin/../../lib/gcc/pic32mx/4.5.2/../../../../pic32mx/lib/libpic32.a(defaultinterrupt.o)
 .debug_abbrev  0x00006d63       0x23 /opt/microchip/xc32/v1.32/bin/bin/../../lib/gcc/pic32mx/4.5.2/../../../../pic32mx/lib/libc.a(ctypef.o)
 .debug_abbrev  0x00006d86       0x3f /opt/microchip/xc32/v1.32/bin/bin/../../lib/gcc/pic32mx/4.5.2/../../../../pic32mx/lib/libc.a(rand.o)
 .debug_abbrev  0x00006dc5       0x23 /opt/microchip/xc32/v1.32/bin/bin/../../lib/gcc/pic32mx/4.5.2/../../../../pic32mx/lib/libc.a(strncmp.o)
 .debug_abbrev  0x00006de8       0x23 /opt/microchip/xc32/v1.32/bin/bin/../../lib/gcc/pic32mx/4.5.2/../../../../pic32mx/lib/libc.a(strncpy.o)
 .debug_abbrev  0x00006e0b       0x23 /opt/microchip/xc32/v1.32/bin/bin/../../lib/gcc/pic32mx/4.5.2/../../../../pic32mx/lib/libc.a(sprintf_cdnopuxX.eo)
 .debug_abbrev  0x00006e2e       0x23 /opt/microchip/xc32/v1.32/bin/bin/../../lib/gcc/pic32mx/4.5.2/../../../../pic32mx/lib/libc.a(sprintf.o)
 .debug_abbrev  0x00006e51       0x23 /opt/microchip/xc32/v1.32/bin/bin/../../lib/gcc/pic32mx/4.5.2/../../../../pic32mx/lib/libc.a(sscanf_cdfFnopsuxX.eo)
 .debug_abbrev  0x00006e74        0x1 /opt/microchip/xc32/v1.32/bin/bin/../../lib/gcc/pic32mx/4.5.2/../../../../pic32mx/lib/libc.a(ctype.o)
 .debug_abbrev  0x00006e75       0x23 /opt/microchip/xc32/v1.32/bin/bin/../../lib/gcc/pic32mx/4.5.2/../../../../pic32mx/lib/libc.a(doprnt_cdnopuxX.eo)
 .debug_abbrev  0x00006e98       0x34 /opt/microchip/xc32/v1.32/bin/bin/../../lib/gcc/pic32mx/4.5.2/../../../../pic32mx/lib/libc.a(doprnt.o)
 .debug_abbrev  0x00006ecc       0x34 /opt/microchip/xc32/v1.32/bin/bin/../../lib/gcc/pic32mx/4.5.2/../../../../pic32mx/lib/libc.a(doscan_cdfFnopsuxX.eo)
 .debug_abbrev  0x00006f00       0x34 /opt/microchip/xc32/v1.32/bin/bin/../../lib/gcc/pic32mx/4.5.2/../../../../pic32mx/lib/libc.a(doscan_cdnopuxX.eo)
 .debug_abbrev  0x00006f34       0x23 /opt/microchip/xc32/v1.32/bin/bin/../../lib/gcc/pic32mx/4.5.2/../../../../pic32mx/lib/libc.a(fgetc.o)
 .debug_abbrev  0x00006f57       0x23 /opt/microchip/xc32/v1.32/bin/bin/../../lib/gcc/pic32mx/4.5.2/../../../../pic32mx/lib/libc.a(_fputc_simple.o)
 .debug_abbrev  0x00006f7a       0x23 /opt/microchip/xc32/v1.32/bin/bin/../../lib/gcc/pic32mx/4.5.2/../../../../pic32mx/lib/libc.a(atoi.o)
 .debug_abbrev  0x00006f9d        0x1 /opt/microchip/xc32/v1.32/bin/bin/../../lib/gcc/pic32mx/4.5.2/../../../../pic32mx/lib/libc.a(powersf.o)
 .debug_abbrev  0x00006f9e       0x47 /opt/microchip/xc32/v1.32/bin/bin/../../lib/gcc/pic32mx/4.5.2/../../../../pic32mx/lib/libc.a(strtod.o)
 .debug_abbrev  0x00006fe5       0x47 /opt/microchip/xc32/v1.32/bin/bin/../../lib/gcc/pic32mx/4.5.2/../../../../pic32mx/lib/libc.a(strtof.o)
 .debug_abbrev  0x0000702c       0x23 /opt/microchip/xc32/v1.32/bin/bin/../../lib/gcc/pic32mx/4.5.2/../../../../pic32mx/lib/libc.a(ungetc.o)
 .debug_abbrev  0x0000704f        0x1 /opt/microchip/xc32/v1.32/bin/bin/../../lib/gcc/pic32mx/4.5.2/../../../../pic32mx/lib/libc.a(_iob.o)
 .debug_abbrev  0x00007050       0x23 /opt/microchip/xc32/v1.32/bin/bin/../../lib/gcc/pic32mx/4.5.2/../../../../pic32mx/lib/libc.a(filbuf.o)
 .debug_abbrev  0x00007073       0x23 /opt/microchip/xc32/v1.32/bin/bin/../../lib/gcc/pic32mx/4.5.2/../../../../pic32mx/lib/libc.a(_flsbuf_simple.o)
 .debug_abbrev  0x00007096       0x23 /opt/microchip/xc32/v1.32/bin/bin/../../lib/gcc/pic32mx/4.5.2/../../../../pic32mx/lib/libc.a(fflush.o)
 .debug_abbrev  0x000070b9       0x23 /opt/microchip/xc32/v1.32/bin/bin/../../lib/gcc/pic32mx/4.5.2/../../../../pic32mx/lib/libpic32.a(read.o)
 .debug_abbrev  0x000070dc       0x23 /opt/microchip/xc32/v1.32/bin/bin/../../lib/gcc/pic32mx/4.5.2/../../../../pic32mx/lib/libpic32.a(write.o)
 .debug_abbrev  0x000070ff        0x1 /opt/microchip/xc32/v1.32/bin/bin/../../lib/gcc/pic32mx/4.5.2/../../../../pic32mx/lib/libpic32.a(xc32_uart.o)
 .debug_abbrev  0x00007100       0x23 /opt/microchip/xc32/v1.32/bin/bin/../../lib/gcc/pic32mx/4.5.2/../../../../pic32mx/lib/libpic32.a(_mon_putc.o)
 .debug_abbrev  0x00007123       0x30 /opt/microchip/xc32/v1.32/bin/bin/../../lib/gcc/pic32mx/4.5.2/../../../../pic32mx/lib/libm.a(__strtod.o)
 .debug_abbrev  0x00007153       0x30 /opt/microchip/xc32/v1.32/bin/bin/../../lib/gcc/pic32mx/4.5.2/../../../../pic32mx/lib/libm.a(__strtof.o)
 .debug_abbrev  0x00007183       0x30 /opt/microchip/xc32/v1.32/bin/bin/../../lib/gcc/pic32mx/4.5.2/../../../../pic32mx/lib/libe.a(_floatdisf.o)
 .debug_abbrev  0x000071b3       0x30 /opt/microchip/xc32/v1.32/bin/bin/../../lib/gcc/pic32mx/4.5.2/../../../../pic32mx/lib/libe.a(_ldexp.o)
 .debug_abbrev  0x000071e3       0x30 /opt/microchip/xc32/v1.32/bin/bin/../../lib/gcc/pic32mx/4.5.2/../../../../pic32mx/lib/libe.a(_ldexpf.o)
 .debug_abbrev  0x00007213       0xe3 /opt/microchip/xc32/v1.32/bin/bin/../../lib/gcc/pic32mx/4.5.2/libgcc.a(_lshrdi3.o)
 .debug_abbrev  0x000072f6       0xe3 /opt/microchip/xc32/v1.32/bin/bin/../../lib/gcc/pic32mx/4.5.2/libgcc.a(_ashldi3.o)
 .debug_abbrev  0x000073d9       0x79 /opt/microchip/xc32/v1.32/bin/bin/../../lib/gcc/pic32mx/4.5.2/libgcc.a(_floatundisf.o)
 .debug_abbrev  0x00007452      0x13f /opt/microchip/xc32/v1.32/bin/bin/../../lib/gcc/pic32mx/4.5.2/libgcc.a(_umoddi3.o)
 .debug_abbrev  0x00007591       0x5f /opt/microchip/xc32/v1.32/bin/bin/../../lib/gcc/pic32mx/4.5.2/libgcc.a(floatunsisf.o)
 .debug_abbrev  0x000075f0        0x1 /opt/microchip/xc32/v1.32/bin/bin/../../lib/gcc/pic32mx/4.5.2/../../../../pic32mx/lib/libc.a(errno.o)

.debug_line     0x00000000     0xabbd
 *(.debug_line)
 .debug_line    0x00000000      0x432 build/debug/production/_ext/71113213/SD-SPI.o
 .debug_line    0x00000432     0x1aaf build/debug/production/_ext/71113213/FSIO.o
 .debug_line    0x00001ee1      0x361 build/debug/production/_ext/2096855388/SClib.o
 .debug_line    0x00002242      0x256 build/debug/production/_ext/2096855388/SCpic32.o
 .debug_line    0x00002498      0x618 build/debug/production/_ext/870548313/usb_device.o
 .debug_line    0x00002ab0      0x2c7 build/debug/production/_ext/1379786196/usb_function_cdc.o
 .debug_line    0x00002d77      0x1e0 build/debug/production/src/indala.o
 .debug_line    0x00002f57      0xa37 build/debug/production/src/main.o
 .debug_line    0x0000398e      0x260 build/debug/production/src/psk.o
 .debug_line    0x00003bee      0x1a8 build/debug/production/src/usb_descriptors.o
 .debug_line    0x00003d96      0x509 build/debug/production/src/util.o
 .debug_line    0x0000429f      0x1ba build/debug/production/src/emulate.o
 .debug_line    0x00004459      0x266 build/debug/production/src/ask.o
 .debug_line    0x000046bf      0x299 build/debug/production/src/fsk.o
 .debug_line    0x00004958      0x22a build/debug/production/src/clock.o
 .debug_line    0x00004b82      0x1d9 build/debug/production/src/rwd.o
 .debug_line    0x00004d5b      0x17d build/debug/production/src/detect.o
 .debug_line    0x00004ed8      0x29c build/debug/production/src/hitagcrypto.o
 .debug_line    0x00005174      0x2b2 build/debug/production/src/wiegand.o
 .debug_line    0x00005426      0x2b7 build/debug/production/src/comms.o
 .debug_line    0x000056dd      0x223 build/debug/production/src/nvm.o
 .debug_line    0x00005900      0x1b4 build/debug/production/src/mcp414x.o
 .debug_line    0x00005ab4      0x199 build/debug/production/src/spi.o
 .debug_line    0x00005c4d      0x1a3 build/debug/production/src/uart3.o
 .debug_line    0x00005df0      0x335 build/debug/production/src/tags.o
 .debug_line    0x00006125      0x17b build/debug/production/src/unique.o
 .debug_line    0x000062a0      0x19f build/debug/production/src/led.o
 .debug_line    0x0000643f      0x1ee build/debug/production/src/em.o
 .debug_line    0x0000662d      0x183 build/debug/production/src/hid.o
 .debug_line    0x000067b0      0x1b2 build/debug/production/src/read.o
 .debug_line    0x00006962      0x31d build/debug/production/src/isr.o
 .debug_line    0x00006c7f      0x1dc build/debug/production/src/auto.o
 .debug_line    0x00006e5b      0x1d9 build/debug/production/src/fdxb.o
 .debug_line    0x00007034      0x38c build/debug/production/src/hitag.o
 .debug_line    0x000073c0      0x1e1 build/debug/production/src/uid.o
 .debug_line    0x000075a1      0x19c build/debug/production/src/login.o
 .debug_line    0x0000773d      0x19d build/debug/production/src/write.o
 .debug_line    0x000078da      0x198 build/debug/production/src/auth.o
 .debug_line    0x00007a72      0x308 build/debug/production/src/q5.o
 .debug_line    0x00007d7a      0x2c2 build/debug/production/src/vtag.o
 .debug_line    0x0000803c      0x17e build/debug/production/src/config.o
 .debug_line    0x000081ba      0x19f build/debug/production/src/select.o
 .debug_line    0x00008359      0x1c9 build/debug/production/src/sdcard.o
 .debug_line    0x00008522      0x199 build/debug/production/src/debug_pins.o
 .debug_line    0x000086bb      0x1b3 build/debug/production/src/awid.o
 .debug_line    0x0000886e      0x24d build/debug/production/src/analogue.o
 .debug_line    0x00008abb      0x24c build/debug/production/src/iso7816.o
 .debug_line    0x00008d07       0xbf /opt/microchip/xc32/v1.32/pic32mx/lib/libmchp_peripheral_32MX795F512L.a(soft_reset_lib.o)
 .debug_line    0x00008dc6       0x62 /opt/microchip/xc32/v1.32/pic32mx/lib/libmchp_peripheral_32MX795F512L.a(pcache.o)
 .debug_line    0x00008e28       0x71 /opt/microchip/xc32/v1.32/pic32mx/lib/libmchp_peripheral_32MX795F512L.a(int_configure_system_lib.o)
 .debug_line    0x00008e99       0x72 /opt/microchip/xc32/v1.32/pic32mx/lib/libmchp_peripheral_32MX795F512L.a(int_enable_interrupts_lib.o)
 .debug_line    0x00008f0b       0x73 /opt/microchip/xc32/v1.32/pic32mx/lib/libmchp_peripheral_32MX795F512L.a(int_disable_interrupts_lib.o)
 .debug_line    0x00008f7e       0x73 /opt/microchip/xc32/v1.32/pic32mx/lib/libmchp_peripheral_32MX795F512L.a(int_restore_interrupts_lib.o)
 .debug_line    0x00008ff1       0x6e /opt/microchip/xc32/v1.32/pic32mx/lib/libmchp_peripheral_32MX795F512L.a(int_enable_mv_int_lib.o)
 .debug_line    0x0000905f       0x64 /opt/microchip/xc32/v1.32/pic32mx/lib/libmchp_peripheral_32MX795F512L.a(int_tbl_lib.o)
 .debug_line    0x000090c3       0x6a /opt/microchip/xc32/v1.32/pic32mx/lib/libmchp_peripheral_32MX795F512L.a(spi_chn_close_lib.o)
 .debug_line    0x0000912d       0x69 /opt/microchip/xc32/v1.32/pic32mx/lib/libmchp_peripheral_32MX795F512L.a(spi_chn_open_lib.o)
 .debug_line    0x00009196        0x0 /opt/microchip/xc32/v1.32/pic32mx/lib/libmchp_peripheral_32MX795F512L.a(spi_io_tbl_libp.o)
 .debug_line    0x00009196        0x0 /opt/microchip/xc32/v1.32/pic32mx/lib/libmchp_peripheral_32MX795F512L.a(spi_map_tbl_libp.o)
 .debug_line    0x00009196       0x71 /opt/microchip/xc32/v1.32/pic32mx/lib/libmchp_peripheral_32MX795F512L.a(spi_getc_spi1_lib_legacy.o)
 .debug_line    0x00009207       0x71 /opt/microchip/xc32/v1.32/pic32mx/lib/libmchp_peripheral_32MX795F512L.a(spi_open_spi1_lib_legacy.o)
 .debug_line    0x00009278        0x0 /opt/microchip/xc32/v1.32/pic32mx/lib/libmchp_peripheral_32MX795F512L.a(spi_brg_tbl_lib_legacy.o)
 .debug_line    0x00009278       0x6b /opt/microchip/xc32/v1.32/pic32mx/lib/libmchp_peripheral_32MX795F512L.a(nvm_erase_page_lib.o)
 .debug_line    0x000092e3       0xc0 /opt/microchip/xc32/v1.32/pic32mx/lib/libmchp_peripheral_32MX795F512L.a(nvm_operation_lib.o)
 .debug_line    0x000093a3       0x68 /opt/microchip/xc32/v1.32/pic32mx/lib/libmchp_peripheral_32MX795F512L.a(nvm_program_lib.o)
 .debug_line    0x0000940b       0x6a /opt/microchip/xc32/v1.32/pic32mx/lib/libmchp_peripheral_32MX795F512L.a(nvm_write_row_lib.o)
 .debug_line    0x00009475       0x6e /opt/microchip/xc32/v1.32/pic32mx/lib/libmchp_peripheral_32MX795F512L.a(port_reset_pins_lib.o)
 .debug_line    0x000094e3       0x77 /opt/microchip/xc32/v1.32/pic32mx/lib/libmchp_peripheral_32MX795F512L.a(port_set_pins_digital_in_lib.o)
 .debug_line    0x0000955a       0x78 /opt/microchip/xc32/v1.32/pic32mx/lib/libmchp_peripheral_32MX795F512L.a(port_set_pins_digital_out_lib.o)
 .debug_line    0x000095d2        0x0 /opt/microchip/xc32/v1.32/pic32mx/lib/libmchp_peripheral_32MX795F512L.a(_ports_tbl_libp.o)
 .debug_line    0x000095d2      0x168 /opt/microchip/xc32/v1.32/bin/bin/../../lib/gcc/pic32mx/4.5.2/libgcc.a(_udivdi3.o)
 .debug_line    0x0000973a       0x97 /opt/microchip/xc32/v1.32/bin/bin/../../lib/gcc/pic32mx/4.5.2/../../../../pic32mx/lib/libpic32.a(default-bootstrap-exception-handler.o)
 .debug_line    0x000097d1       0x84 /opt/microchip/xc32/v1.32/bin/bin/../../lib/gcc/pic32mx/4.5.2/../../../../pic32mx/lib/libpic32.a(default-on-reset.o)
 .debug_line    0x00009855       0x88 /opt/microchip/xc32/v1.32/bin/bin/../../lib/gcc/pic32mx/4.5.2/../../../../pic32mx/lib/libpic32.a(default-on-bootstrap.o)
 .debug_line    0x000098dd       0x95 /opt/microchip/xc32/v1.32/bin/bin/../../lib/gcc/pic32mx/4.5.2/../../../../pic32mx/lib/libpic32.a(default-general-exception-handler.o)
 .debug_line    0x00009972       0x96 /opt/microchip/xc32/v1.32/bin/bin/../../lib/gcc/pic32mx/4.5.2/../../../../pic32mx/lib/libpic32.a(defaultinterrupt.o)
 .debug_line    0x00009a08       0x70 /opt/microchip/xc32/v1.32/bin/bin/../../lib/gcc/pic32mx/4.5.2/../../../../pic32mx/lib/libc.a(ctypef.o)
 .debug_line    0x00009a78       0x6e /opt/microchip/xc32/v1.32/bin/bin/../../lib/gcc/pic32mx/4.5.2/../../../../pic32mx/lib/libc.a(rand.o)
 .debug_line    0x00009ae6       0x71 /opt/microchip/xc32/v1.32/bin/bin/../../lib/gcc/pic32mx/4.5.2/../../../../pic32mx/lib/libc.a(strncmp.o)
 .debug_line    0x00009b57       0x71 /opt/microchip/xc32/v1.32/bin/bin/../../lib/gcc/pic32mx/4.5.2/../../../../pic32mx/lib/libc.a(strncpy.o)
 .debug_line    0x00009bc8       0x71 /opt/microchip/xc32/v1.32/bin/bin/../../lib/gcc/pic32mx/4.5.2/../../../../pic32mx/lib/libc.a(sprintf_cdnopuxX.eo)
 .debug_line    0x00009c39       0x71 /opt/microchip/xc32/v1.32/bin/bin/../../lib/gcc/pic32mx/4.5.2/../../../../pic32mx/lib/libc.a(sprintf.o)
 .debug_line    0x00009caa       0x70 /opt/microchip/xc32/v1.32/bin/bin/../../lib/gcc/pic32mx/4.5.2/../../../../pic32mx/lib/libc.a(sscanf_cdfFnopsuxX.eo)
 .debug_line    0x00009d1a        0x0 /opt/microchip/xc32/v1.32/bin/bin/../../lib/gcc/pic32mx/4.5.2/../../../../pic32mx/lib/libc.a(ctype.o)
 .debug_line    0x00009d1a       0x70 /opt/microchip/xc32/v1.32/bin/bin/../../lib/gcc/pic32mx/4.5.2/../../../../pic32mx/lib/libc.a(doprnt_cdnopuxX.eo)
 .debug_line    0x00009d8a       0x70 /opt/microchip/xc32/v1.32/bin/bin/../../lib/gcc/pic32mx/4.5.2/../../../../pic32mx/lib/libc.a(doprnt.o)
 .debug_line    0x00009dfa       0x70 /opt/microchip/xc32/v1.32/bin/bin/../../lib/gcc/pic32mx/4.5.2/../../../../pic32mx/lib/libc.a(doscan_cdfFnopsuxX.eo)
 .debug_line    0x00009e6a       0x70 /opt/microchip/xc32/v1.32/bin/bin/../../lib/gcc/pic32mx/4.5.2/../../../../pic32mx/lib/libc.a(doscan_cdnopuxX.eo)
 .debug_line    0x00009eda       0x6f /opt/microchip/xc32/v1.32/bin/bin/../../lib/gcc/pic32mx/4.5.2/../../../../pic32mx/lib/libc.a(fgetc.o)
 .debug_line    0x00009f49       0x6f /opt/microchip/xc32/v1.32/bin/bin/../../lib/gcc/pic32mx/4.5.2/../../../../pic32mx/lib/libc.a(_fputc_simple.o)
 .debug_line    0x00009fb8       0x6e /opt/microchip/xc32/v1.32/bin/bin/../../lib/gcc/pic32mx/4.5.2/../../../../pic32mx/lib/libc.a(atoi.o)
 .debug_line    0x0000a026        0x0 /opt/microchip/xc32/v1.32/bin/bin/../../lib/gcc/pic32mx/4.5.2/../../../../pic32mx/lib/libc.a(powersf.o)
 .debug_line    0x0000a026       0x70 /opt/microchip/xc32/v1.32/bin/bin/../../lib/gcc/pic32mx/4.5.2/../../../../pic32mx/lib/libc.a(strtod.o)
 .debug_line    0x0000a096       0x70 /opt/microchip/xc32/v1.32/bin/bin/../../lib/gcc/pic32mx/4.5.2/../../../../pic32mx/lib/libc.a(strtof.o)
 .debug_line    0x0000a106       0x70 /opt/microchip/xc32/v1.32/bin/bin/../../lib/gcc/pic32mx/4.5.2/../../../../pic32mx/lib/libc.a(ungetc.o)
 .debug_line    0x0000a176        0x0 /opt/microchip/xc32/v1.32/bin/bin/../../lib/gcc/pic32mx/4.5.2/../../../../pic32mx/lib/libc.a(_iob.o)
 .debug_line    0x0000a176       0x70 /opt/microchip/xc32/v1.32/bin/bin/../../lib/gcc/pic32mx/4.5.2/../../../../pic32mx/lib/libc.a(filbuf.o)
 .debug_line    0x0000a1e6       0x70 /opt/microchip/xc32/v1.32/bin/bin/../../lib/gcc/pic32mx/4.5.2/../../../../pic32mx/lib/libc.a(_flsbuf_simple.o)
 .debug_line    0x0000a256       0x70 /opt/microchip/xc32/v1.32/bin/bin/../../lib/gcc/pic32mx/4.5.2/../../../../pic32mx/lib/libc.a(fflush.o)
 .debug_line    0x0000a2c6       0x78 /opt/microchip/xc32/v1.32/bin/bin/../../lib/gcc/pic32mx/4.5.2/../../../../pic32mx/lib/libpic32.a(read.o)
 .debug_line    0x0000a33e       0x79 /opt/microchip/xc32/v1.32/bin/bin/../../lib/gcc/pic32mx/4.5.2/../../../../pic32mx/lib/libpic32.a(write.o)
 .debug_line    0x0000a3b7        0x0 /opt/microchip/xc32/v1.32/bin/bin/../../lib/gcc/pic32mx/4.5.2/../../../../pic32mx/lib/libpic32.a(xc32_uart.o)
 .debug_line    0x0000a3b7       0x7d /opt/microchip/xc32/v1.32/bin/bin/../../lib/gcc/pic32mx/4.5.2/../../../../pic32mx/lib/libpic32.a(_mon_putc.o)
 .debug_line    0x0000a434       0x79 /opt/microchip/xc32/v1.32/bin/bin/../../lib/gcc/pic32mx/4.5.2/../../../../pic32mx/lib/libm.a(__strtod.o)
 .debug_line    0x0000a4ad       0x79 /opt/microchip/xc32/v1.32/bin/bin/../../lib/gcc/pic32mx/4.5.2/../../../../pic32mx/lib/libm.a(__strtof.o)
 .debug_line    0x0000a526       0x93 /opt/microchip/xc32/v1.32/bin/bin/../../lib/gcc/pic32mx/4.5.2/../../../../pic32mx/lib/libe.a(_floatdisf.o)
 .debug_line    0x0000a5b9       0x93 /opt/microchip/xc32/v1.32/bin/bin/../../lib/gcc/pic32mx/4.5.2/../../../../pic32mx/lib/libe.a(_ldexp.o)
 .debug_line    0x0000a64c       0x93 /opt/microchip/xc32/v1.32/bin/bin/../../lib/gcc/pic32mx/4.5.2/../../../../pic32mx/lib/libe.a(_ldexpf.o)
 .debug_line    0x0000a6df       0xfa /opt/microchip/xc32/v1.32/bin/bin/../../lib/gcc/pic32mx/4.5.2/libgcc.a(_lshrdi3.o)
 .debug_line    0x0000a7d9       0xfc /opt/microchip/xc32/v1.32/bin/bin/../../lib/gcc/pic32mx/4.5.2/libgcc.a(_ashldi3.o)
 .debug_line    0x0000a8d5      0x105 /opt/microchip/xc32/v1.32/bin/bin/../../lib/gcc/pic32mx/4.5.2/libgcc.a(_floatundisf.o)
 .debug_line    0x0000a9da      0x155 /opt/microchip/xc32/v1.32/bin/bin/../../lib/gcc/pic32mx/4.5.2/libgcc.a(_umoddi3.o)
 .debug_line    0x0000ab2f       0x8e /opt/microchip/xc32/v1.32/bin/bin/../../lib/gcc/pic32mx/4.5.2/libgcc.a(floatunsisf.o)
 .debug_line    0x0000abbd        0x0 /opt/microchip/xc32/v1.32/bin/bin/../../lib/gcc/pic32mx/4.5.2/../../../../pic32mx/lib/libc.a(errno.o)

.debug_frame    0x00000000     0x3d08
 *(.debug_frame)
 .debug_frame   0x00000000      0x210 build/debug/production/_ext/71113213/SD-SPI.o
 .debug_frame   0x00000210      0x7e8 build/debug/production/_ext/71113213/FSIO.o
 .debug_frame   0x000009f8      0x118 build/debug/production/_ext/2096855388/SClib.o
 .debug_frame   0x00000b10       0xf4 build/debug/production/_ext/2096855388/SCpic32.o
 .debug_frame   0x00000c04      0x314 build/debug/production/_ext/870548313/usb_device.o
 .debug_frame   0x00000f18       0xf0 build/debug/production/_ext/1379786196/usb_function_cdc.o
 .debug_frame   0x00001008       0xa4 build/debug/production/src/indala.o
 .debug_frame   0x000010ac      0x148 build/debug/production/src/main.o
 .debug_frame   0x000011f4       0xd8 build/debug/production/src/psk.o
 .debug_frame   0x000012cc      0x678 build/debug/production/src/util.o
 .debug_frame   0x00001944       0x2c build/debug/production/src/emulate.o
 .debug_frame   0x00001970       0xd8 build/debug/production/src/ask.o
 .debug_frame   0x00001a48       0xf4 build/debug/production/src/fsk.o
 .debug_frame   0x00001b3c       0xa0 build/debug/production/src/clock.o
 .debug_frame   0x00001bdc       0x64 build/debug/production/src/rwd.o
 .debug_frame   0x00001c40       0x2c build/debug/production/src/detect.o
 .debug_frame   0x00001c6c       0xbc build/debug/production/src/hitagcrypto.o
 .debug_frame   0x00001d28      0x148 build/debug/production/src/wiegand.o
 .debug_frame   0x00001e70      0x168 build/debug/production/src/comms.o
 .debug_frame   0x00001fd8       0x9c build/debug/production/src/nvm.o
 .debug_frame   0x00002074       0xd4 build/debug/production/src/mcp414x.o
 .debug_frame   0x00002148       0x9c build/debug/production/src/spi.o
 .debug_frame   0x000021e4       0xf0 build/debug/production/src/uart3.o
 .debug_frame   0x000022d4       0xf4 build/debug/production/src/tags.o
 .debug_frame   0x000023c8       0xa0 build/debug/production/src/unique.o
 .debug_frame   0x00002468       0x9c build/debug/production/src/led.o
 .debug_frame   0x00002504       0xbc build/debug/production/src/em.o
 .debug_frame   0x000025c0       0x80 build/debug/production/src/hid.o
 .debug_frame   0x00002640       0x2c build/debug/production/src/read.o
 .debug_frame   0x0000266c       0xcc build/debug/production/src/isr.o
 .debug_frame   0x00002738       0x48 build/debug/production/src/auto.o
 .debug_frame   0x00002780       0xa4 build/debug/production/src/fdxb.o
 .debug_frame   0x00002824      0x2cc build/debug/production/src/hitag.o
 .debug_frame   0x00002af0       0x64 build/debug/production/src/uid.o
 .debug_frame   0x00002b54       0x2c build/debug/production/src/login.o
 .debug_frame   0x00002b80       0x2c build/debug/production/src/write.o
 .debug_frame   0x00002bac       0x2c build/debug/production/src/auth.o
 .debug_frame   0x00002bd8      0x17c build/debug/production/src/q5.o
 .debug_frame   0x00002d54      0x11c build/debug/production/src/vtag.o
 .debug_frame   0x00002e70       0x9c build/debug/production/src/config.o
 .debug_frame   0x00002f0c       0x2c build/debug/production/src/select.o
 .debug_frame   0x00002f38       0x30 build/debug/production/src/sdcard.o
 .debug_frame   0x00002f68       0xb8 build/debug/production/src/debug_pins.o
 .debug_frame   0x00003020       0x88 build/debug/production/src/awid.o
 .debug_frame   0x000030a8       0x88 build/debug/production/src/analogue.o
 .debug_frame   0x00003130       0x68 build/debug/production/src/iso7816.o
 .debug_frame   0x00003198       0x28 /opt/microchip/xc32/v1.32/pic32mx/lib/libmchp_peripheral_32MX795F512L.a(soft_reset_lib.o)
 .debug_frame   0x000031c0       0x30 /opt/microchip/xc32/v1.32/pic32mx/lib/libmchp_peripheral_32MX795F512L.a(pcache.o)
 .debug_frame   0x000031f0       0x20 /opt/microchip/xc32/v1.32/pic32mx/lib/libmchp_peripheral_32MX795F512L.a(int_configure_system_lib.o)
 .debug_frame   0x00003210       0x20 /opt/microchip/xc32/v1.32/pic32mx/lib/libmchp_peripheral_32MX795F512L.a(int_enable_interrupts_lib.o)
 .debug_frame   0x00003230       0x20 /opt/microchip/xc32/v1.32/pic32mx/lib/libmchp_peripheral_32MX795F512L.a(int_disable_interrupts_lib.o)
 .debug_frame   0x00003250       0x20 /opt/microchip/xc32/v1.32/pic32mx/lib/libmchp_peripheral_32MX795F512L.a(int_restore_interrupts_lib.o)
 .debug_frame   0x00003270       0x28 /opt/microchip/xc32/v1.32/pic32mx/lib/libmchp_peripheral_32MX795F512L.a(int_enable_mv_int_lib.o)
 .debug_frame   0x00003298       0xa0 /opt/microchip/xc32/v1.32/pic32mx/lib/libmchp_peripheral_32MX795F512L.a(int_tbl_lib.o)
 .debug_frame   0x00003338       0x2c /opt/microchip/xc32/v1.32/pic32mx/lib/libmchp_peripheral_32MX795F512L.a(spi_chn_close_lib.o)
 .debug_frame   0x00003364       0x38 /opt/microchip/xc32/v1.32/pic32mx/lib/libmchp_peripheral_32MX795F512L.a(spi_chn_open_lib.o)
 .debug_frame   0x0000339c       0x20 /opt/microchip/xc32/v1.32/pic32mx/lib/libmchp_peripheral_32MX795F512L.a(spi_getc_spi1_lib_legacy.o)
 .debug_frame   0x000033bc       0x20 /opt/microchip/xc32/v1.32/pic32mx/lib/libmchp_peripheral_32MX795F512L.a(spi_open_spi1_lib_legacy.o)
 .debug_frame   0x000033dc       0x28 /opt/microchip/xc32/v1.32/pic32mx/lib/libmchp_peripheral_32MX795F512L.a(nvm_erase_page_lib.o)
 .debug_frame   0x00003404       0x28 /opt/microchip/xc32/v1.32/pic32mx/lib/libmchp_peripheral_32MX795F512L.a(nvm_operation_lib.o)
 .debug_frame   0x0000342c       0x38 /opt/microchip/xc32/v1.32/pic32mx/lib/libmchp_peripheral_32MX795F512L.a(nvm_program_lib.o)
 .debug_frame   0x00003464       0x28 /opt/microchip/xc32/v1.32/pic32mx/lib/libmchp_peripheral_32MX795F512L.a(nvm_write_row_lib.o)
 .debug_frame   0x0000348c       0x20 /opt/microchip/xc32/v1.32/pic32mx/lib/libmchp_peripheral_32MX795F512L.a(port_reset_pins_lib.o)
 .debug_frame   0x000034ac       0x20 /opt/microchip/xc32/v1.32/pic32mx/lib/libmchp_peripheral_32MX795F512L.a(port_set_pins_digital_in_lib.o)
 .debug_frame   0x000034cc       0x20 /opt/microchip/xc32/v1.32/pic32mx/lib/libmchp_peripheral_32MX795F512L.a(port_set_pins_digital_out_lib.o)
 .debug_frame   0x000034ec       0x20 /opt/microchip/xc32/v1.32/bin/bin/../../lib/gcc/pic32mx/4.5.2/libgcc.a(_udivdi3.o)
 .debug_frame   0x0000350c       0x28 /opt/microchip/xc32/v1.32/bin/bin/../../lib/gcc/pic32mx/4.5.2/../../../../pic32mx/lib/libpic32.a(default-bootstrap-exception-handler.o)
 .debug_frame   0x00003534       0x20 /opt/microchip/xc32/v1.32/bin/bin/../../lib/gcc/pic32mx/4.5.2/../../../../pic32mx/lib/libpic32.a(default-on-reset.o)
 .debug_frame   0x00003554       0x20 /opt/microchip/xc32/v1.32/bin/bin/../../lib/gcc/pic32mx/4.5.2/../../../../pic32mx/lib/libpic32.a(default-on-bootstrap.o)
 .debug_frame   0x00003574       0x28 /opt/microchip/xc32/v1.32/bin/bin/../../lib/gcc/pic32mx/4.5.2/../../../../pic32mx/lib/libpic32.a(default-general-exception-handler.o)
 .debug_frame   0x0000359c       0x20 /opt/microchip/xc32/v1.32/bin/bin/../../lib/gcc/pic32mx/4.5.2/../../../../pic32mx/lib/libpic32.a(defaultinterrupt.o)
 .debug_frame   0x000035bc      0x120 /opt/microchip/xc32/v1.32/bin/bin/../../lib/gcc/pic32mx/4.5.2/../../../../pic32mx/lib/libc.a(ctypef.o)
 .debug_frame   0x000036dc       0x30 /opt/microchip/xc32/v1.32/bin/bin/../../lib/gcc/pic32mx/4.5.2/../../../../pic32mx/lib/libc.a(rand.o)
 .debug_frame   0x0000370c       0x20 /opt/microchip/xc32/v1.32/bin/bin/../../lib/gcc/pic32mx/4.5.2/../../../../pic32mx/lib/libc.a(strncmp.o)
 .debug_frame   0x0000372c       0x20 /opt/microchip/xc32/v1.32/bin/bin/../../lib/gcc/pic32mx/4.5.2/../../../../pic32mx/lib/libc.a(strncpy.o)
 .debug_frame   0x0000374c       0x2c /opt/microchip/xc32/v1.32/bin/bin/../../lib/gcc/pic32mx/4.5.2/../../../../pic32mx/lib/libc.a(sprintf_cdnopuxX.eo)
 .debug_frame   0x00003778       0x2c /opt/microchip/xc32/v1.32/bin/bin/../../lib/gcc/pic32mx/4.5.2/../../../../pic32mx/lib/libc.a(sprintf.o)
 .debug_frame   0x000037a4       0x28 /opt/microchip/xc32/v1.32/bin/bin/../../lib/gcc/pic32mx/4.5.2/../../../../pic32mx/lib/libc.a(sscanf_cdfFnopsuxX.eo)
 .debug_frame   0x000037cc       0x38 /opt/microchip/xc32/v1.32/bin/bin/../../lib/gcc/pic32mx/4.5.2/../../../../pic32mx/lib/libc.a(doprnt_cdnopuxX.eo)
 .debug_frame   0x00003804       0x74 /opt/microchip/xc32/v1.32/bin/bin/../../lib/gcc/pic32mx/4.5.2/../../../../pic32mx/lib/libc.a(doprnt.o)
 .debug_frame   0x00003878       0x74 /opt/microchip/xc32/v1.32/bin/bin/../../lib/gcc/pic32mx/4.5.2/../../../../pic32mx/lib/libc.a(doscan_cdfFnopsuxX.eo)
 .debug_frame   0x000038ec       0x74 /opt/microchip/xc32/v1.32/bin/bin/../../lib/gcc/pic32mx/4.5.2/../../../../pic32mx/lib/libc.a(doscan_cdnopuxX.eo)
 .debug_frame   0x00003960       0x30 /opt/microchip/xc32/v1.32/bin/bin/../../lib/gcc/pic32mx/4.5.2/../../../../pic32mx/lib/libc.a(fgetc.o)
 .debug_frame   0x00003990       0x2c /opt/microchip/xc32/v1.32/bin/bin/../../lib/gcc/pic32mx/4.5.2/../../../../pic32mx/lib/libc.a(_fputc_simple.o)
 .debug_frame   0x000039bc       0x20 /opt/microchip/xc32/v1.32/bin/bin/../../lib/gcc/pic32mx/4.5.2/../../../../pic32mx/lib/libc.a(atoi.o)
 .debug_frame   0x000039dc       0x40 /opt/microchip/xc32/v1.32/bin/bin/../../lib/gcc/pic32mx/4.5.2/../../../../pic32mx/lib/libc.a(strtod.o)
 .debug_frame   0x00003a1c       0x40 /opt/microchip/xc32/v1.32/bin/bin/../../lib/gcc/pic32mx/4.5.2/../../../../pic32mx/lib/libc.a(strtof.o)
 .debug_frame   0x00003a5c       0x20 /opt/microchip/xc32/v1.32/bin/bin/../../lib/gcc/pic32mx/4.5.2/../../../../pic32mx/lib/libc.a(ungetc.o)
 .debug_frame   0x00003a7c       0x30 /opt/microchip/xc32/v1.32/bin/bin/../../lib/gcc/pic32mx/4.5.2/../../../../pic32mx/lib/libc.a(filbuf.o)
 .debug_frame   0x00003aac       0x28 /opt/microchip/xc32/v1.32/bin/bin/../../lib/gcc/pic32mx/4.5.2/../../../../pic32mx/lib/libc.a(_flsbuf_simple.o)
 .debug_frame   0x00003ad4       0x2c /opt/microchip/xc32/v1.32/bin/bin/../../lib/gcc/pic32mx/4.5.2/../../../../pic32mx/lib/libc.a(fflush.o)
 .debug_frame   0x00003b00       0x2c /opt/microchip/xc32/v1.32/bin/bin/../../lib/gcc/pic32mx/4.5.2/../../../../pic32mx/lib/libpic32.a(read.o)
 .debug_frame   0x00003b2c       0x28 /opt/microchip/xc32/v1.32/bin/bin/../../lib/gcc/pic32mx/4.5.2/../../../../pic32mx/lib/libpic32.a(write.o)
 .debug_frame   0x00003b54       0x20 /opt/microchip/xc32/v1.32/bin/bin/../../lib/gcc/pic32mx/4.5.2/../../../../pic32mx/lib/libpic32.a(_mon_putc.o)
 .debug_frame   0x00003b74       0x38 /opt/microchip/xc32/v1.32/bin/bin/../../lib/gcc/pic32mx/4.5.2/../../../../pic32mx/lib/libm.a(__strtod.o)
 .debug_frame   0x00003bac       0x38 /opt/microchip/xc32/v1.32/bin/bin/../../lib/gcc/pic32mx/4.5.2/../../../../pic32mx/lib/libm.a(__strtof.o)
 .debug_frame   0x00003be4       0x20 /opt/microchip/xc32/v1.32/bin/bin/../../lib/gcc/pic32mx/4.5.2/../../../../pic32mx/lib/libe.a(_floatdisf.o)
 .debug_frame   0x00003c04       0x30 /opt/microchip/xc32/v1.32/bin/bin/../../lib/gcc/pic32mx/4.5.2/../../../../pic32mx/lib/libe.a(_ldexp.o)
 .debug_frame   0x00003c34       0x20 /opt/microchip/xc32/v1.32/bin/bin/../../lib/gcc/pic32mx/4.5.2/../../../../pic32mx/lib/libe.a(_ldexpf.o)
 .debug_frame   0x00003c54       0x20 /opt/microchip/xc32/v1.32/bin/bin/../../lib/gcc/pic32mx/4.5.2/libgcc.a(_lshrdi3.o)
 .debug_frame   0x00003c74       0x20 /opt/microchip/xc32/v1.32/bin/bin/../../lib/gcc/pic32mx/4.5.2/libgcc.a(_ashldi3.o)
 .debug_frame   0x00003c94       0x2c /opt/microchip/xc32/v1.32/bin/bin/../../lib/gcc/pic32mx/4.5.2/libgcc.a(_floatundisf.o)
 .debug_frame   0x00003cc0       0x20 /opt/microchip/xc32/v1.32/bin/bin/../../lib/gcc/pic32mx/4.5.2/libgcc.a(_umoddi3.o)
 .debug_frame   0x00003ce0       0x28 /opt/microchip/xc32/v1.32/bin/bin/../../lib/gcc/pic32mx/4.5.2/libgcc.a(floatunsisf.o)

.debug_str      0x00000000     0x522d
 *(.debug_str)
 .debug_str     0x00000000      0x26c build/debug/production/_ext/71113213/SD-SPI.o
 .debug_str     0x0000026c      0x69b build/debug/production/_ext/71113213/FSIO.o
 .debug_str     0x00000907      0x231 build/debug/production/_ext/2096855388/SClib.o
 .debug_str     0x00000b38      0x210 build/debug/production/_ext/2096855388/SCpic32.o
 .debug_str     0x00000d48      0x3a6 build/debug/production/_ext/870548313/usb_device.o
 .debug_str     0x000010ee      0x204 build/debug/production/_ext/1379786196/usb_function_cdc.o
 .debug_str     0x000012f2      0x14f build/debug/production/src/indala.o
 .debug_str     0x00001441      0x446 build/debug/production/src/main.o
 .debug_str     0x00001887      0x22f build/debug/production/src/psk.o
 .debug_str     0x00001ab6      0x159 build/debug/production/src/usb_descriptors.o
 .debug_str     0x00001c0f      0x192 build/debug/production/src/util.o
 .debug_str     0x00001da1      0x13d build/debug/production/src/emulate.o
 .debug_str     0x00001ede      0x20a build/debug/production/src/ask.o
 .debug_str     0x000020e8      0x212 build/debug/production/src/fsk.o
 .debug_str     0x000022fa      0x1b2 build/debug/production/src/clock.o
 .debug_str     0x000024ac      0x1d2 build/debug/production/src/rwd.o
 .debug_str     0x0000267e      0x14b build/debug/production/src/detect.o
 .debug_str     0x000027c9      0x144 build/debug/production/src/hitagcrypto.o
 .debug_str     0x0000290d      0x1a5 build/debug/production/src/wiegand.o
 .debug_str     0x00002ab2      0x18f build/debug/production/src/comms.o
 .debug_str     0x00002c41      0x179 build/debug/production/src/nvm.o
 .debug_str     0x00002dba      0x143 build/debug/production/src/mcp414x.o
 .debug_str     0x00002efd      0x14f build/debug/production/src/spi.o
 .debug_str     0x0000304c      0x14d build/debug/production/src/uart3.o
 .debug_str     0x00003199      0x169 build/debug/production/src/tags.o
 .debug_str     0x00003302      0x13f build/debug/production/src/unique.o
 .debug_str     0x00003441      0x153 build/debug/production/src/led.o
 .debug_str     0x00003594      0x138 build/debug/production/src/em.o
 .debug_str     0x000036cc      0x138 build/debug/production/src/hid.o
 .debug_str     0x00003804      0x13d build/debug/production/src/read.o
 .debug_str     0x00003941      0x2db build/debug/production/src/isr.o
 .debug_str     0x00003c1c      0x167 build/debug/production/src/auto.o
 .debug_str     0x00003d83      0x138 build/debug/production/src/fdxb.o
 .debug_str     0x00003ebb      0x1ab build/debug/production/src/hitag.o
 .debug_str     0x00004066      0x146 build/debug/production/src/uid.o
 .debug_str     0x000041ac      0x13d build/debug/production/src/login.o
 .debug_str     0x000042e9      0x13d build/debug/production/src/write.o
 .debug_str     0x00004426      0x13d build/debug/production/src/auth.o
 .debug_str     0x00004563      0x1a9 build/debug/production/src/q5.o
 .debug_str     0x0000470c      0x1d3 build/debug/production/src/vtag.o
 .debug_str     0x000048df      0x137 build/debug/production/src/config.o
 .debug_str     0x00004a16      0x13d build/debug/production/src/select.o
 .debug_str     0x00004b53      0x13a build/debug/production/src/sdcard.o
 .debug_str     0x00004c8d      0x141 build/debug/production/src/debug_pins.o
 .debug_str     0x00004dce      0x13f build/debug/production/src/awid.o
 .debug_str     0x00004f0d      0x1bd build/debug/production/src/analogue.o
 .debug_str     0x000050ca      0x151 build/debug/production/src/iso7816.o
 .debug_str     0x0000521b        0x0 /opt/microchip/xc32/v1.32/pic32mx/lib/libmchp_peripheral_32MX795F512L.a(soft_reset_lib.o)
 .debug_str     0x0000521b        0x0 /opt/microchip/xc32/v1.32/pic32mx/lib/libmchp_peripheral_32MX795F512L.a(pcache.o)
 .debug_str     0x0000521b        0x0 /opt/microchip/xc32/v1.32/pic32mx/lib/libmchp_peripheral_32MX795F512L.a(int_configure_system_lib.o)
 .debug_str     0x0000521b        0x0 /opt/microchip/xc32/v1.32/pic32mx/lib/libmchp_peripheral_32MX795F512L.a(int_enable_interrupts_lib.o)
 .debug_str     0x0000521b        0x0 /opt/microchip/xc32/v1.32/pic32mx/lib/libmchp_peripheral_32MX795F512L.a(int_disable_interrupts_lib.o)
 .debug_str     0x0000521b        0x0 /opt/microchip/xc32/v1.32/pic32mx/lib/libmchp_peripheral_32MX795F512L.a(int_restore_interrupts_lib.o)
 .debug_str     0x0000521b        0x0 /opt/microchip/xc32/v1.32/pic32mx/lib/libmchp_peripheral_32MX795F512L.a(int_enable_mv_int_lib.o)
 .debug_str     0x0000521b        0x0 /opt/microchip/xc32/v1.32/pic32mx/lib/libmchp_peripheral_32MX795F512L.a(int_tbl_lib.o)
 .debug_str     0x0000521b        0x0 /opt/microchip/xc32/v1.32/pic32mx/lib/libmchp_peripheral_32MX795F512L.a(spi_chn_close_lib.o)
 .debug_str     0x0000521b        0x0 /opt/microchip/xc32/v1.32/pic32mx/lib/libmchp_peripheral_32MX795F512L.a(spi_chn_open_lib.o)
 .debug_str     0x0000521b        0x0 /opt/microchip/xc32/v1.32/pic32mx/lib/libmchp_peripheral_32MX795F512L.a(spi_io_tbl_libp.o)
 .debug_str     0x0000521b        0x0 /opt/microchip/xc32/v1.32/pic32mx/lib/libmchp_peripheral_32MX795F512L.a(spi_map_tbl_libp.o)
 .debug_str     0x0000521b        0x0 /opt/microchip/xc32/v1.32/pic32mx/lib/libmchp_peripheral_32MX795F512L.a(spi_getc_spi1_lib_legacy.o)
 .debug_str     0x0000521b        0x0 /opt/microchip/xc32/v1.32/pic32mx/lib/libmchp_peripheral_32MX795F512L.a(spi_open_spi1_lib_legacy.o)
 .debug_str     0x0000521b        0x0 /opt/microchip/xc32/v1.32/pic32mx/lib/libmchp_peripheral_32MX795F512L.a(spi_brg_tbl_lib_legacy.o)
 .debug_str     0x0000521b        0x0 /opt/microchip/xc32/v1.32/pic32mx/lib/libmchp_peripheral_32MX795F512L.a(nvm_erase_page_lib.o)
 .debug_str     0x0000521b        0x0 /opt/microchip/xc32/v1.32/pic32mx/lib/libmchp_peripheral_32MX795F512L.a(nvm_operation_lib.o)
 .debug_str     0x0000521b        0x0 /opt/microchip/xc32/v1.32/pic32mx/lib/libmchp_peripheral_32MX795F512L.a(nvm_program_lib.o)
 .debug_str     0x0000521b        0x0 /opt/microchip/xc32/v1.32/pic32mx/lib/libmchp_peripheral_32MX795F512L.a(nvm_write_row_lib.o)
 .debug_str     0x0000521b        0x0 /opt/microchip/xc32/v1.32/pic32mx/lib/libmchp_peripheral_32MX795F512L.a(port_reset_pins_lib.o)
 .debug_str     0x0000521b        0x0 /opt/microchip/xc32/v1.32/pic32mx/lib/libmchp_peripheral_32MX795F512L.a(port_set_pins_digital_in_lib.o)
 .debug_str     0x0000521b        0x0 /opt/microchip/xc32/v1.32/pic32mx/lib/libmchp_peripheral_32MX795F512L.a(port_set_pins_digital_out_lib.o)
 .debug_str     0x0000521b        0x0 /opt/microchip/xc32/v1.32/pic32mx/lib/libmchp_peripheral_32MX795F512L.a(_ports_tbl_libp.o)
 .debug_str     0x0000521b        0x0 /opt/microchip/xc32/v1.32/bin/bin/../../lib/gcc/pic32mx/4.5.2/libgcc.a(_udivdi3.o)
 .debug_str     0x0000521b        0x0 /opt/microchip/xc32/v1.32/bin/bin/../../lib/gcc/pic32mx/4.5.2/../../../../pic32mx/lib/libpic32.a(default-bootstrap-exception-handler.o)
 .debug_str     0x0000521b        0x0 /opt/microchip/xc32/v1.32/bin/bin/../../lib/gcc/pic32mx/4.5.2/../../../../pic32mx/lib/libpic32.a(default-on-reset.o)
 .debug_str     0x0000521b        0x0 /opt/microchip/xc32/v1.32/bin/bin/../../lib/gcc/pic32mx/4.5.2/../../../../pic32mx/lib/libpic32.a(default-on-bootstrap.o)
 .debug_str     0x0000521b        0x0 /opt/microchip/xc32/v1.32/bin/bin/../../lib/gcc/pic32mx/4.5.2/../../../../pic32mx/lib/libpic32.a(default-general-exception-handler.o)
 .debug_str     0x0000521b        0x0 /opt/microchip/xc32/v1.32/bin/bin/../../lib/gcc/pic32mx/4.5.2/../../../../pic32mx/lib/libpic32.a(defaultinterrupt.o)
 .debug_str     0x0000521b        0x0 /opt/microchip/xc32/v1.32/bin/bin/../../lib/gcc/pic32mx/4.5.2/../../../../pic32mx/lib/libc.a(ctypef.o)
 .debug_str     0x0000521b        0x0 /opt/microchip/xc32/v1.32/bin/bin/../../lib/gcc/pic32mx/4.5.2/../../../../pic32mx/lib/libc.a(rand.o)
 .debug_str     0x0000521b        0x0 /opt/microchip/xc32/v1.32/bin/bin/../../lib/gcc/pic32mx/4.5.2/../../../../pic32mx/lib/libc.a(strncmp.o)
 .debug_str     0x0000521b        0x0 /opt/microchip/xc32/v1.32/bin/bin/../../lib/gcc/pic32mx/4.5.2/../../../../pic32mx/lib/libc.a(strncpy.o)
 .debug_str     0x0000521b        0x0 /opt/microchip/xc32/v1.32/bin/bin/../../lib/gcc/pic32mx/4.5.2/../../../../pic32mx/lib/libc.a(sprintf_cdnopuxX.eo)
 .debug_str     0x0000521b        0x0 /opt/microchip/xc32/v1.32/bin/bin/../../lib/gcc/pic32mx/4.5.2/../../../../pic32mx/lib/libc.a(sprintf.o)
 .debug_str     0x0000521b        0x0 /opt/microchip/xc32/v1.32/bin/bin/../../lib/gcc/pic32mx/4.5.2/../../../../pic32mx/lib/libc.a(sscanf_cdfFnopsuxX.eo)
 .debug_str     0x0000521b        0x0 /opt/microchip/xc32/v1.32/bin/bin/../../lib/gcc/pic32mx/4.5.2/../../../../pic32mx/lib/libc.a(ctype.o)
 .debug_str     0x0000521b        0x0 /opt/microchip/xc32/v1.32/bin/bin/../../lib/gcc/pic32mx/4.5.2/../../../../pic32mx/lib/libc.a(doprnt_cdnopuxX.eo)
 .debug_str     0x0000521b        0x0 /opt/microchip/xc32/v1.32/bin/bin/../../lib/gcc/pic32mx/4.5.2/../../../../pic32mx/lib/libc.a(doprnt.o)
 .debug_str     0x0000521b        0x0 /opt/microchip/xc32/v1.32/bin/bin/../../lib/gcc/pic32mx/4.5.2/../../../../pic32mx/lib/libc.a(doscan_cdfFnopsuxX.eo)
 .debug_str     0x0000521b        0x0 /opt/microchip/xc32/v1.32/bin/bin/../../lib/gcc/pic32mx/4.5.2/../../../../pic32mx/lib/libc.a(doscan_cdnopuxX.eo)
 .debug_str     0x0000521b        0x0 /opt/microchip/xc32/v1.32/bin/bin/../../lib/gcc/pic32mx/4.5.2/../../../../pic32mx/lib/libc.a(fgetc.o)
 .debug_str     0x0000521b        0x0 /opt/microchip/xc32/v1.32/bin/bin/../../lib/gcc/pic32mx/4.5.2/../../../../pic32mx/lib/libc.a(_fputc_simple.o)
 .debug_str     0x0000521b        0x0 /opt/microchip/xc32/v1.32/bin/bin/../../lib/gcc/pic32mx/4.5.2/../../../../pic32mx/lib/libc.a(atoi.o)
 .debug_str     0x0000521b        0x0 /opt/microchip/xc32/v1.32/bin/bin/../../lib/gcc/pic32mx/4.5.2/../../../../pic32mx/lib/libc.a(powersf.o)
 .debug_str     0x0000521b        0x9 /opt/microchip/xc32/v1.32/bin/bin/../../lib/gcc/pic32mx/4.5.2/../../../../pic32mx/lib/libc.a(strtod.o)
 .debug_str     0x00005224        0x9 /opt/microchip/xc32/v1.32/bin/bin/../../lib/gcc/pic32mx/4.5.2/../../../../pic32mx/lib/libc.a(strtof.o)
 .debug_str     0x0000522d        0x0 /opt/microchip/xc32/v1.32/bin/bin/../../lib/gcc/pic32mx/4.5.2/../../../../pic32mx/lib/libc.a(ungetc.o)
 .debug_str     0x0000522d        0x0 /opt/microchip/xc32/v1.32/bin/bin/../../lib/gcc/pic32mx/4.5.2/../../../../pic32mx/lib/libc.a(_iob.o)
 .debug_str     0x0000522d        0x0 /opt/microchip/xc32/v1.32/bin/bin/../../lib/gcc/pic32mx/4.5.2/../../../../pic32mx/lib/libc.a(filbuf.o)
 .debug_str     0x0000522d        0x0 /opt/microchip/xc32/v1.32/bin/bin/../../lib/gcc/pic32mx/4.5.2/../../../../pic32mx/lib/libc.a(_flsbuf_simple.o)
 .debug_str     0x0000522d        0x0 /opt/microchip/xc32/v1.32/bin/bin/../../lib/gcc/pic32mx/4.5.2/../../../../pic32mx/lib/libc.a(fflush.o)
 .debug_str     0x0000522d        0x0 /opt/microchip/xc32/v1.32/bin/bin/../../lib/gcc/pic32mx/4.5.2/../../../../pic32mx/lib/libpic32.a(read.o)
 .debug_str     0x0000522d        0x0 /opt/microchip/xc32/v1.32/bin/bin/../../lib/gcc/pic32mx/4.5.2/../../../../pic32mx/lib/libpic32.a(write.o)
 .debug_str     0x0000522d        0x0 /opt/microchip/xc32/v1.32/bin/bin/../../lib/gcc/pic32mx/4.5.2/../../../../pic32mx/lib/libpic32.a(xc32_uart.o)
 .debug_str     0x0000522d        0x0 /opt/microchip/xc32/v1.32/bin/bin/../../lib/gcc/pic32mx/4.5.2/../../../../pic32mx/lib/libpic32.a(_mon_putc.o)
 .debug_str     0x0000522d        0x0 /opt/microchip/xc32/v1.32/bin/bin/../../lib/gcc/pic32mx/4.5.2/../../../../pic32mx/lib/libm.a(__strtod.o)
 .debug_str     0x0000522d        0x0 /opt/microchip/xc32/v1.32/bin/bin/../../lib/gcc/pic32mx/4.5.2/../../../../pic32mx/lib/libm.a(__strtof.o)
 .debug_str     0x0000522d        0x0 /opt/microchip/xc32/v1.32/bin/bin/../../lib/gcc/pic32mx/4.5.2/../../../../pic32mx/lib/libe.a(_floatdisf.o)
 .debug_str     0x0000522d        0x0 /opt/microchip/xc32/v1.32/bin/bin/../../lib/gcc/pic32mx/4.5.2/../../../../pic32mx/lib/libe.a(_ldexp.o)
 .debug_str     0x0000522d        0x0 /opt/microchip/xc32/v1.32/bin/bin/../../lib/gcc/pic32mx/4.5.2/../../../../pic32mx/lib/libe.a(_ldexpf.o)
 .debug_str     0x0000522d        0x0 /opt/microchip/xc32/v1.32/bin/bin/../../lib/gcc/pic32mx/4.5.2/libgcc.a(_lshrdi3.o)
 .debug_str     0x0000522d        0x0 /opt/microchip/xc32/v1.32/bin/bin/../../lib/gcc/pic32mx/4.5.2/libgcc.a(_ashldi3.o)
 .debug_str     0x0000522d        0x0 /opt/microchip/xc32/v1.32/bin/bin/../../lib/gcc/pic32mx/4.5.2/libgcc.a(_floatundisf.o)
 .debug_str     0x0000522d        0x0 /opt/microchip/xc32/v1.32/bin/bin/../../lib/gcc/pic32mx/4.5.2/libgcc.a(_umoddi3.o)
 .debug_str     0x0000522d        0x0 /opt/microchip/xc32/v1.32/bin/bin/../../lib/gcc/pic32mx/4.5.2/libgcc.a(floatunsisf.o)
 .debug_str     0x0000522d        0x0 /opt/microchip/xc32/v1.32/bin/bin/../../lib/gcc/pic32mx/4.5.2/../../../../pic32mx/lib/libc.a(errno.o)

.debug_loc      0x00000000     0x1514
 *(.debug_loc)
 .debug_loc     0x00000000      0x9c3 /opt/microchip/xc32/v1.32/bin/bin/../../lib/gcc/pic32mx/4.5.2/libgcc.a(_udivdi3.o)
 .debug_loc     0x000009c3       0x4f /opt/microchip/xc32/v1.32/bin/bin/../../lib/gcc/pic32mx/4.5.2/libgcc.a(_lshrdi3.o)
 .debug_loc     0x00000a12       0x3c /opt/microchip/xc32/v1.32/bin/bin/../../lib/gcc/pic32mx/4.5.2/libgcc.a(_ashldi3.o)
 .debug_loc     0x00000a4e       0xc9 /opt/microchip/xc32/v1.32/bin/bin/../../lib/gcc/pic32mx/4.5.2/libgcc.a(_floatundisf.o)
 .debug_loc     0x00000b17      0x995 /opt/microchip/xc32/v1.32/bin/bin/../../lib/gcc/pic32mx/4.5.2/libgcc.a(_umoddi3.o)
 .debug_loc     0x000014ac       0x68 /opt/microchip/xc32/v1.32/bin/bin/../../lib/gcc/pic32mx/4.5.2/libgcc.a(floatunsisf.o)

.debug_macinfo
 *(.debug_macinfo)

.debug_weaknames
 *(.debug_weaknames)

.debug_funcnames
 *(.debug_funcnames)

.debug_typenames
 *(.debug_typenames)

.debug_varnames
 *(.debug_varnames)

.debug_pubtypes
                0x00000000     0x3fc1
 *(.debug_pubtypes)
 .debug_pubtypes
                0x00000000      0x220 build/debug/production/_ext/71113213/SD-SPI.o
 .debug_pubtypes
                0x00000220      0x272 build/debug/production/_ext/71113213/FSIO.o
 .debug_pubtypes
                0x00000492      0x1aa build/debug/production/_ext/2096855388/SClib.o
 .debug_pubtypes
                0x0000063c      0x203 build/debug/production/_ext/2096855388/SCpic32.o
 .debug_pubtypes
                0x0000083f      0x2af build/debug/production/_ext/870548313/usb_device.o
 .debug_pubtypes
                0x00000aee      0x249 build/debug/production/_ext/1379786196/usb_function_cdc.o
 .debug_pubtypes
                0x00000d37      0x125 build/debug/production/src/indala.o
 .debug_pubtypes
                0x00000e5c      0x2be build/debug/production/src/main.o
 .debug_pubtypes
                0x0000111a      0x159 build/debug/production/src/psk.o
 .debug_pubtypes
                0x00001273      0x12e build/debug/production/src/usb_descriptors.o
 .debug_pubtypes
                0x000013a1      0x12f build/debug/production/src/util.o
 .debug_pubtypes
                0x000014d0      0x114 build/debug/production/src/emulate.o
 .debug_pubtypes
                0x000015e4      0x159 build/debug/production/src/ask.o
 .debug_pubtypes
                0x0000173d      0x159 build/debug/production/src/fsk.o
 .debug_pubtypes
                0x00001896      0x158 build/debug/production/src/clock.o
 .debug_pubtypes
                0x000019ee      0x125 build/debug/production/src/rwd.o
 .debug_pubtypes
                0x00001b13      0x124 build/debug/production/src/detect.o
 .debug_pubtypes
                0x00001c37      0x123 build/debug/production/src/hitagcrypto.o
 .debug_pubtypes
                0x00001d5a      0x17d build/debug/production/src/wiegand.o
 .debug_pubtypes
                0x00001ed7      0x13c build/debug/production/src/comms.o
 .debug_pubtypes
                0x00002013      0x123 build/debug/production/src/nvm.o
 .debug_pubtypes
                0x00002136       0xfa build/debug/production/src/mcp414x.o
 .debug_pubtypes
                0x00002230      0x105 build/debug/production/src/spi.o
 .debug_pubtypes
                0x00002335      0x11d build/debug/production/src/uart3.o
 .debug_pubtypes
                0x00002452      0x114 build/debug/production/src/tags.o
 .debug_pubtypes
                0x00002566      0x103 build/debug/production/src/unique.o
 .debug_pubtypes
                0x00002669      0x147 build/debug/production/src/led.o
 .debug_pubtypes
                0x000027b0      0x103 build/debug/production/src/em.o
 .debug_pubtypes
                0x000028b3      0x103 build/debug/production/src/hid.o
 .debug_pubtypes
                0x000029b6      0x114 build/debug/production/src/read.o
 .debug_pubtypes
                0x00002aca      0x159 build/debug/production/src/isr.o
 .debug_pubtypes
                0x00002c23      0x123 build/debug/production/src/auto.o
 .debug_pubtypes
                0x00002d46      0x103 build/debug/production/src/fdxb.o
 .debug_pubtypes
                0x00002e49      0x133 build/debug/production/src/hitag.o
 .debug_pubtypes
                0x00002f7c      0x114 build/debug/production/src/uid.o
 .debug_pubtypes
                0x00003090      0x114 build/debug/production/src/login.o
 .debug_pubtypes
                0x000031a4      0x114 build/debug/production/src/write.o
 .debug_pubtypes
                0x000032b8      0x114 build/debug/production/src/auth.o
 .debug_pubtypes
                0x000033cc      0x135 build/debug/production/src/q5.o
 .debug_pubtypes
                0x00003501      0x123 build/debug/production/src/vtag.o
 .debug_pubtypes
                0x00003624      0x103 build/debug/production/src/config.o
 .debug_pubtypes
                0x00003727      0x114 build/debug/production/src/select.o
 .debug_pubtypes
                0x0000383b      0x108 build/debug/production/src/sdcard.o
 .debug_pubtypes
                0x00003943      0x125 build/debug/production/src/debug_pins.o
 .debug_pubtypes
                0x00003a68      0x103 build/debug/production/src/awid.o
 .debug_pubtypes
                0x00003b6b      0x137 build/debug/production/src/analogue.o
 .debug_pubtypes
                0x00003ca2      0x135 build/debug/production/src/iso7816.o
 .debug_pubtypes
                0x00003dd7       0x59 /opt/microchip/xc32/v1.32/bin/bin/../../lib/gcc/pic32mx/4.5.2/libgcc.a(_udivdi3.o)
 .debug_pubtypes
                0x00003e30       0x62 /opt/microchip/xc32/v1.32/bin/bin/../../lib/gcc/pic32mx/4.5.2/libgcc.a(_lshrdi3.o)
 .debug_pubtypes
                0x00003e92       0x62 /opt/microchip/xc32/v1.32/bin/bin/../../lib/gcc/pic32mx/4.5.2/libgcc.a(_ashldi3.o)
 .debug_pubtypes
                0x00003ef4       0x40 /opt/microchip/xc32/v1.32/bin/bin/../../lib/gcc/pic32mx/4.5.2/libgcc.a(_floatundisf.o)
 .debug_pubtypes
                0x00003f34       0x59 /opt/microchip/xc32/v1.32/bin/bin/../../lib/gcc/pic32mx/4.5.2/libgcc.a(_umoddi3.o)
 .debug_pubtypes
                0x00003f8d       0x34 /opt/microchip/xc32/v1.32/bin/bin/../../lib/gcc/pic32mx/4.5.2/libgcc.a(floatunsisf.o)

.debug_ranges   0x00000000      0x178
 *(.debug_ranges)
 .debug_ranges  0x00000000       0x10 /opt/microchip/xc32/v1.32/pic32mx/lib/libmchp_peripheral_32MX795F512L.a(soft_reset_lib.o)
 .debug_ranges  0x00000010       0x18 /opt/microchip/xc32/v1.32/pic32mx/lib/libmchp_peripheral_32MX795F512L.a(pcache.o)
 .debug_ranges  0x00000028       0x10 /opt/microchip/xc32/v1.32/pic32mx/lib/libmchp_peripheral_32MX795F512L.a(int_configure_system_lib.o)
 .debug_ranges  0x00000038       0x10 /opt/microchip/xc32/v1.32/pic32mx/lib/libmchp_peripheral_32MX795F512L.a(int_enable_interrupts_lib.o)
 .debug_ranges  0x00000048       0x10 /opt/microchip/xc32/v1.32/pic32mx/lib/libmchp_peripheral_32MX795F512L.a(int_disable_interrupts_lib.o)
 .debug_ranges  0x00000058       0x10 /opt/microchip/xc32/v1.32/pic32mx/lib/libmchp_peripheral_32MX795F512L.a(int_restore_interrupts_lib.o)
 .debug_ranges  0x00000068       0x10 /opt/microchip/xc32/v1.32/pic32mx/lib/libmchp_peripheral_32MX795F512L.a(int_enable_mv_int_lib.o)
 .debug_ranges  0x00000078       0x50 /opt/microchip/xc32/v1.32/pic32mx/lib/libmchp_peripheral_32MX795F512L.a(int_tbl_lib.o)
 .debug_ranges  0x000000c8       0x10 /opt/microchip/xc32/v1.32/pic32mx/lib/libmchp_peripheral_32MX795F512L.a(spi_chn_close_lib.o)
 .debug_ranges  0x000000d8       0x10 /opt/microchip/xc32/v1.32/pic32mx/lib/libmchp_peripheral_32MX795F512L.a(spi_chn_open_lib.o)
 .debug_ranges  0x000000e8       0x10 /opt/microchip/xc32/v1.32/pic32mx/lib/libmchp_peripheral_32MX795F512L.a(spi_getc_spi1_lib_legacy.o)
 .debug_ranges  0x000000f8       0x10 /opt/microchip/xc32/v1.32/pic32mx/lib/libmchp_peripheral_32MX795F512L.a(spi_open_spi1_lib_legacy.o)
 .debug_ranges  0x00000108       0x10 /opt/microchip/xc32/v1.32/pic32mx/lib/libmchp_peripheral_32MX795F512L.a(nvm_erase_page_lib.o)
 .debug_ranges  0x00000118       0x10 /opt/microchip/xc32/v1.32/pic32mx/lib/libmchp_peripheral_32MX795F512L.a(nvm_operation_lib.o)
 .debug_ranges  0x00000128       0x10 /opt/microchip/xc32/v1.32/pic32mx/lib/libmchp_peripheral_32MX795F512L.a(nvm_program_lib.o)
 .debug_ranges  0x00000138       0x10 /opt/microchip/xc32/v1.32/pic32mx/lib/libmchp_peripheral_32MX795F512L.a(nvm_write_row_lib.o)
 .debug_ranges  0x00000148       0x10 /opt/microchip/xc32/v1.32/pic32mx/lib/libmchp_peripheral_32MX795F512L.a(port_reset_pins_lib.o)
 .debug_ranges  0x00000158       0x10 /opt/microchip/xc32/v1.32/pic32mx/lib/libmchp_peripheral_32MX795F512L.a(port_set_pins_digital_in_lib.o)
 .debug_ranges  0x00000168       0x10 /opt/microchip/xc32/v1.32/pic32mx/lib/libmchp_peripheral_32MX795F512L.a(port_set_pins_digital_out_lib.o)

.gnu.attributes
                0x00000000       0x10
 *(.gnu.attributes)
 .gnu.attributes
                0x00000000       0x10 build/debug/production/_ext/71113213/SD-SPI.o
 .gnu.attributes
                0x00000010       0x10 build/debug/production/_ext/71113213/FSIO.o
 .gnu.attributes
                0x00000020       0x10 build/debug/production/_ext/2096855388/SClib.o
 .gnu.attributes
                0x00000030       0x10 build/debug/production/_ext/2096855388/SCpic32.o
 .gnu.attributes
                0x00000040       0x10 build/debug/production/_ext/870548313/usb_device.o
 .gnu.attributes
                0x00000050       0x10 build/debug/production/_ext/1379786196/usb_function_cdc.o
 .gnu.attributes
                0x00000060       0x10 build/debug/production/src/indala.o
 .gnu.attributes
                0x00000070       0x10 build/debug/production/src/main.o
 .gnu.attributes
                0x00000080       0x10 build/debug/production/src/psk.o
 .gnu.attributes
                0x00000090       0x10 build/debug/production/src/usb_descriptors.o
 .gnu.attributes
                0x000000a0       0x10 build/debug/production/src/util.o
 .gnu.attributes
                0x000000b0       0x10 build/debug/production/src/emulate.o
 .gnu.attributes
                0x000000c0       0x10 build/debug/production/src/ask.o
 .gnu.attributes
                0x000000d0       0x10 build/debug/production/src/fsk.o
 .gnu.attributes
                0x000000e0       0x10 build/debug/production/src/clock.o
 .gnu.attributes
                0x000000f0       0x10 build/debug/production/src/rwd.o
 .gnu.attributes
                0x00000100       0x10 build/debug/production/src/detect.o
 .gnu.attributes
                0x00000110       0x10 build/debug/production/src/hitagcrypto.o
 .gnu.attributes
                0x00000120       0x10 build/debug/production/src/wiegand.o
 .gnu.attributes
                0x00000130       0x10 build/debug/production/src/comms.o
 .gnu.attributes
                0x00000140       0x10 build/debug/production/src/nvm.o
 .gnu.attributes
                0x00000150       0x10 build/debug/production/src/mcp414x.o
 .gnu.attributes
                0x00000160       0x10 build/debug/production/src/spi.o
 .gnu.attributes
                0x00000170       0x10 build/debug/production/src/uart3.o
 .gnu.attributes
                0x00000180       0x10 build/debug/production/src/tags.o
 .gnu.attributes
                0x00000190       0x10 build/debug/production/src/unique.o
 .gnu.attributes
                0x000001a0       0x10 build/debug/production/src/led.o
 .gnu.attributes
                0x000001b0       0x10 build/debug/production/src/em.o
 .gnu.attributes
                0x000001c0       0x10 build/debug/production/src/hid.o
 .gnu.attributes
                0x000001d0       0x10 build/debug/production/src/read.o
 .gnu.attributes
                0x000001e0       0x10 build/debug/production/src/isr.o
 .gnu.attributes
                0x000001f0       0x10 build/debug/production/src/auto.o
 .gnu.attributes
                0x00000200       0x10 build/debug/production/src/fdxb.o
 .gnu.attributes
                0x00000210       0x10 build/debug/production/src/hitag.o
 .gnu.attributes
                0x00000220       0x10 build/debug/production/src/uid.o
 .gnu.attributes
                0x00000230       0x10 build/debug/production/src/login.o
 .gnu.attributes
                0x00000240       0x10 build/debug/production/src/write.o
 .gnu.attributes
                0x00000250       0x10 build/debug/production/src/auth.o
 .gnu.attributes
                0x00000260       0x10 build/debug/production/src/q5.o
 .gnu.attributes
                0x00000270       0x10 build/debug/production/src/vtag.o
 .gnu.attributes
                0x00000280       0x10 build/debug/production/src/config.o
 .gnu.attributes
                0x00000290       0x10 build/debug/production/src/select.o
 .gnu.attributes
                0x000002a0       0x10 build/debug/production/src/sdcard.o
 .gnu.attributes
                0x000002b0       0x10 build/debug/production/src/debug_pins.o
 .gnu.attributes
                0x000002c0       0x10 build/debug/production/src/awid.o
 .gnu.attributes
                0x000002d0       0x10 build/debug/production/src/analogue.o
 .gnu.attributes
                0x000002e0       0x10 build/debug/production/src/iso7816.o
 .gnu.attributes
                0x000002f0       0x10 /opt/microchip/xc32/v1.32/pic32mx/lib/libmchp_peripheral_32MX795F512L.a(soft_reset_lib.o)
 .gnu.attributes
                0x00000300       0x10 /opt/microchip/xc32/v1.32/pic32mx/lib/libmchp_peripheral_32MX795F512L.a(pcache.o)
 .gnu.attributes
                0x00000310       0x10 /opt/microchip/xc32/v1.32/pic32mx/lib/libmchp_peripheral_32MX795F512L.a(int_configure_system_lib.o)
 .gnu.attributes
                0x00000320       0x10 /opt/microchip/xc32/v1.32/pic32mx/lib/libmchp_peripheral_32MX795F512L.a(int_enable_interrupts_lib.o)
 .gnu.attributes
                0x00000330       0x10 /opt/microchip/xc32/v1.32/pic32mx/lib/libmchp_peripheral_32MX795F512L.a(int_disable_interrupts_lib.o)
 .gnu.attributes
                0x00000340       0x10 /opt/microchip/xc32/v1.32/pic32mx/lib/libmchp_peripheral_32MX795F512L.a(int_restore_interrupts_lib.o)
 .gnu.attributes
                0x00000350       0x10 /opt/microchip/xc32/v1.32/pic32mx/lib/libmchp_peripheral_32MX795F512L.a(int_enable_mv_int_lib.o)
 .gnu.attributes
                0x00000360       0x10 /opt/microchip/xc32/v1.32/pic32mx/lib/libmchp_peripheral_32MX795F512L.a(int_tbl_lib.o)
 .gnu.attributes
                0x00000370       0x10 /opt/microchip/xc32/v1.32/pic32mx/lib/libmchp_peripheral_32MX795F512L.a(spi_chn_close_lib.o)
 .gnu.attributes
                0x00000380       0x10 /opt/microchip/xc32/v1.32/pic32mx/lib/libmchp_peripheral_32MX795F512L.a(spi_chn_open_lib.o)
 .gnu.attributes
                0x00000390       0x10 /opt/microchip/xc32/v1.32/pic32mx/lib/libmchp_peripheral_32MX795F512L.a(spi_io_tbl_libp.o)
 .gnu.attributes
                0x000003a0       0x10 /opt/microchip/xc32/v1.32/pic32mx/lib/libmchp_peripheral_32MX795F512L.a(spi_map_tbl_libp.o)
 .gnu.attributes
                0x000003b0       0x10 /opt/microchip/xc32/v1.32/pic32mx/lib/libmchp_peripheral_32MX795F512L.a(spi_getc_spi1_lib_legacy.o)
 .gnu.attributes
                0x000003c0       0x10 /opt/microchip/xc32/v1.32/pic32mx/lib/libmchp_peripheral_32MX795F512L.a(spi_open_spi1_lib_legacy.o)
 .gnu.attributes
                0x000003d0       0x10 /opt/microchip/xc32/v1.32/pic32mx/lib/libmchp_peripheral_32MX795F512L.a(spi_brg_tbl_lib_legacy.o)
 .gnu.attributes
                0x000003e0       0x10 /opt/microchip/xc32/v1.32/pic32mx/lib/libmchp_peripheral_32MX795F512L.a(nvm_erase_page_lib.o)
 .gnu.attributes
                0x000003f0       0x10 /opt/microchip/xc32/v1.32/pic32mx/lib/libmchp_peripheral_32MX795F512L.a(nvm_operation_lib.o)
 .gnu.attributes
                0x00000400       0x10 /opt/microchip/xc32/v1.32/pic32mx/lib/libmchp_peripheral_32MX795F512L.a(nvm_program_lib.o)
 .gnu.attributes
                0x00000410       0x10 /opt/microchip/xc32/v1.32/pic32mx/lib/libmchp_peripheral_32MX795F512L.a(nvm_write_row_lib.o)
 .gnu.attributes
                0x00000420       0x10 /opt/microchip/xc32/v1.32/pic32mx/lib/libmchp_peripheral_32MX795F512L.a(port_reset_pins_lib.o)
 .gnu.attributes
                0x00000430       0x10 /opt/microchip/xc32/v1.32/pic32mx/lib/libmchp_peripheral_32MX795F512L.a(port_set_pins_digital_in_lib.o)
 .gnu.attributes
                0x00000440       0x10 /opt/microchip/xc32/v1.32/pic32mx/lib/libmchp_peripheral_32MX795F512L.a(port_set_pins_digital_out_lib.o)
 .gnu.attributes
                0x00000450       0x10 /opt/microchip/xc32/v1.32/pic32mx/lib/libmchp_peripheral_32MX795F512L.a(_ports_tbl_libp.o)
 .gnu.attributes
                0x00000460       0x10 /opt/microchip/xc32/v1.32/bin/bin/../../lib/gcc/pic32mx/4.5.2/libgcc.a(_udivdi3.o)
 .gnu.attributes
                0x00000470       0x10 /opt/microchip/xc32/v1.32/bin/bin/../../lib/gcc/pic32mx/4.5.2/../../../../pic32mx/lib/libpic32.a(default-bootstrap-exception-handler.o)
 .gnu.attributes
                0x00000480       0x10 /opt/microchip/xc32/v1.32/bin/bin/../../lib/gcc/pic32mx/4.5.2/../../../../pic32mx/lib/libpic32.a(default-on-reset.o)
 .gnu.attributes
                0x00000490       0x10 /opt/microchip/xc32/v1.32/bin/bin/../../lib/gcc/pic32mx/4.5.2/../../../../pic32mx/lib/libpic32.a(default-on-bootstrap.o)
 .gnu.attributes
                0x000004a0       0x10 /opt/microchip/xc32/v1.32/bin/bin/../../lib/gcc/pic32mx/4.5.2/../../../../pic32mx/lib/libpic32.a(default-general-exception-handler.o)
 .gnu.attributes
                0x000004b0       0x10 /opt/microchip/xc32/v1.32/bin/bin/../../lib/gcc/pic32mx/4.5.2/../../../../pic32mx/lib/libpic32.a(defaultinterrupt.o)
 .gnu.attributes
                0x000004c0       0x10 /opt/microchip/xc32/v1.32/bin/bin/../../lib/gcc/pic32mx/4.5.2/../../../../pic32mx/lib/libc.a(ctypef.o)
 .gnu.attributes
                0x000004d0       0x10 /opt/microchip/xc32/v1.32/bin/bin/../../lib/gcc/pic32mx/4.5.2/../../../../pic32mx/lib/libc.a(rand.o)
 .gnu.attributes
                0x000004e0       0x10 /opt/microchip/xc32/v1.32/bin/bin/../../lib/gcc/pic32mx/4.5.2/../../../../pic32mx/lib/libc.a(strncmp.o)
 .gnu.attributes
                0x000004f0       0x10 /opt/microchip/xc32/v1.32/bin/bin/../../lib/gcc/pic32mx/4.5.2/../../../../pic32mx/lib/libc.a(strncpy.o)
 .gnu.attributes
                0x00000500       0x10 /opt/microchip/xc32/v1.32/bin/bin/../../lib/gcc/pic32mx/4.5.2/../../../../pic32mx/lib/libc.a(sprintf_cdnopuxX.eo)
 .gnu.attributes
                0x00000510       0x10 /opt/microchip/xc32/v1.32/bin/bin/../../lib/gcc/pic32mx/4.5.2/../../../../pic32mx/lib/libc.a(sprintf.o)
 .gnu.attributes
                0x00000520       0x10 /opt/microchip/xc32/v1.32/bin/bin/../../lib/gcc/pic32mx/4.5.2/../../../../pic32mx/lib/libc.a(sscanf_cdfFnopsuxX.eo)
 .gnu.attributes
                0x00000530       0x10 /opt/microchip/xc32/v1.32/bin/bin/../../lib/gcc/pic32mx/4.5.2/../../../../pic32mx/lib/libc.a(ctype.o)
 .gnu.attributes
                0x00000540       0x10 /opt/microchip/xc32/v1.32/bin/bin/../../lib/gcc/pic32mx/4.5.2/../../../../pic32mx/lib/libc.a(doprnt_cdnopuxX.eo)
 .gnu.attributes
                0x00000550       0x10 /opt/microchip/xc32/v1.32/bin/bin/../../lib/gcc/pic32mx/4.5.2/../../../../pic32mx/lib/libc.a(doprnt.o)
 .gnu.attributes
                0x00000560       0x10 /opt/microchip/xc32/v1.32/bin/bin/../../lib/gcc/pic32mx/4.5.2/../../../../pic32mx/lib/libc.a(doscan_cdfFnopsuxX.eo)
 .gnu.attributes
                0x00000570       0x10 /opt/microchip/xc32/v1.32/bin/bin/../../lib/gcc/pic32mx/4.5.2/../../../../pic32mx/lib/libc.a(doscan_cdnopuxX.eo)
 .gnu.attributes
                0x00000580       0x10 /opt/microchip/xc32/v1.32/bin/bin/../../lib/gcc/pic32mx/4.5.2/../../../../pic32mx/lib/libc.a(fgetc.o)
 .gnu.attributes
                0x00000590       0x10 /opt/microchip/xc32/v1.32/bin/bin/../../lib/gcc/pic32mx/4.5.2/../../../../pic32mx/lib/libc.a(_fputc_simple.o)
 .gnu.attributes
                0x000005a0       0x10 /opt/microchip/xc32/v1.32/bin/bin/../../lib/gcc/pic32mx/4.5.2/../../../../pic32mx/lib/libc.a(atoi.o)
 .gnu.attributes
                0x000005b0       0x10 /opt/microchip/xc32/v1.32/bin/bin/../../lib/gcc/pic32mx/4.5.2/../../../../pic32mx/lib/libc.a(powersf.o)
 .gnu.attributes
                0x000005c0       0x10 /opt/microchip/xc32/v1.32/bin/bin/../../lib/gcc/pic32mx/4.5.2/../../../../pic32mx/lib/libc.a(strtod.o)
 .gnu.attributes
                0x000005d0       0x10 /opt/microchip/xc32/v1.32/bin/bin/../../lib/gcc/pic32mx/4.5.2/../../../../pic32mx/lib/libc.a(strtof.o)
 .gnu.attributes
                0x000005e0       0x10 /opt/microchip/xc32/v1.32/bin/bin/../../lib/gcc/pic32mx/4.5.2/../../../../pic32mx/lib/libc.a(ungetc.o)
 .gnu.attributes
                0x000005f0       0x10 /opt/microchip/xc32/v1.32/bin/bin/../../lib/gcc/pic32mx/4.5.2/../../../../pic32mx/lib/libc.a(_iob.o)
 .gnu.attributes
                0x00000600       0x10 /opt/microchip/xc32/v1.32/bin/bin/../../lib/gcc/pic32mx/4.5.2/../../../../pic32mx/lib/libc.a(filbuf.o)
 .gnu.attributes
                0x00000610       0x10 /opt/microchip/xc32/v1.32/bin/bin/../../lib/gcc/pic32mx/4.5.2/../../../../pic32mx/lib/libc.a(_flsbuf_simple.o)
 .gnu.attributes
                0x00000620       0x10 /opt/microchip/xc32/v1.32/bin/bin/../../lib/gcc/pic32mx/4.5.2/../../../../pic32mx/lib/libc.a(fflush.o)
 .gnu.attributes
                0x00000630       0x10 /opt/microchip/xc32/v1.32/bin/bin/../../lib/gcc/pic32mx/4.5.2/../../../../pic32mx/lib/libpic32.a(read.o)
 .gnu.attributes
                0x00000640       0x10 /opt/microchip/xc32/v1.32/bin/bin/../../lib/gcc/pic32mx/4.5.2/../../../../pic32mx/lib/libpic32.a(write.o)
 .gnu.attributes
                0x00000650       0x10 /opt/microchip/xc32/v1.32/bin/bin/../../lib/gcc/pic32mx/4.5.2/../../../../pic32mx/lib/libpic32.a(xc32_uart.o)
 .gnu.attributes
                0x00000660       0x10 /opt/microchip/xc32/v1.32/bin/bin/../../lib/gcc/pic32mx/4.5.2/../../../../pic32mx/lib/libpic32.a(_mon_putc.o)
 .gnu.attributes
                0x00000670       0x10 /opt/microchip/xc32/v1.32/bin/bin/../../lib/gcc/pic32mx/4.5.2/../../../../pic32mx/lib/libm.a(__strtod.o)
 .gnu.attributes
                0x00000680       0x10 /opt/microchip/xc32/v1.32/bin/bin/../../lib/gcc/pic32mx/4.5.2/../../../../pic32mx/lib/libm.a(__strtof.o)
 .gnu.attributes
                0x00000690       0x10 /opt/microchip/xc32/v1.32/bin/bin/../../lib/gcc/pic32mx/4.5.2/../../../../pic32mx/lib/libe.a(_floatdisf.o)
 .gnu.attributes
                0x000006a0       0x10 /opt/microchip/xc32/v1.32/bin/bin/../../lib/gcc/pic32mx/4.5.2/../../../../pic32mx/lib/libe.a(_ldexp.o)
 .gnu.attributes
                0x000006b0       0x10 /opt/microchip/xc32/v1.32/bin/bin/../../lib/gcc/pic32mx/4.5.2/../../../../pic32mx/lib/libe.a(_ldexpf.o)
 .gnu.attributes
                0x000006c0       0x10 /opt/microchip/xc32/v1.32/bin/bin/../../lib/gcc/pic32mx/4.5.2/libgcc.a(_lshrdi3.o)
 .gnu.attributes
                0x000006d0       0x10 /opt/microchip/xc32/v1.32/bin/bin/../../lib/gcc/pic32mx/4.5.2/libgcc.a(_ashldi3.o)
 .gnu.attributes
                0x000006e0       0x10 /opt/microchip/xc32/v1.32/bin/bin/../../lib/gcc/pic32mx/4.5.2/libgcc.a(_floatundisf.o)
 .gnu.attributes
                0x000006f0       0x10 /opt/microchip/xc32/v1.32/bin/bin/../../lib/gcc/pic32mx/4.5.2/libgcc.a(_umoddi3.o)
 .gnu.attributes
                0x00000700       0x10 /opt/microchip/xc32/v1.32/bin/bin/../../lib/gcc/pic32mx/4.5.2/libgcc.a(floatunsisf.o)
 .gnu.attributes
                0x00000710       0x10 /opt/microchip/xc32/v1.32/bin/bin/../../lib/gcc/pic32mx/4.5.2/../../../../pic32mx/lib/libc.a(errno.o)
LOAD /opt/microchip/xc32/v1.32/bin/bin/../../lib/gcc/pic32mx/4.5.2/libgcc.a
START GROUP
LOAD /opt/microchip/xc32/v1.32/bin/bin/../../lib/gcc/pic32mx/4.5.2/../../../../pic32mx/lib/libpic32.a
LOAD /opt/microchip/xc32/v1.32/bin/bin/../../lib/gcc/pic32mx/4.5.2/../../../../pic32mx/lib/libdebug.a
LOAD /opt/microchip/xc32/v1.32/bin/bin/../../lib/gcc/pic32mx/4.5.2/../../../../pic32mx/lib/libpic32.a
LOAD /opt/microchip/xc32/v1.32/bin/bin/../../lib/gcc/pic32mx/4.5.2/../../../../pic32mx/lib/libm.a
LOAD /opt/microchip/xc32/v1.32/bin/bin/../../lib/gcc/pic32mx/4.5.2/../../../../pic32mx/lib/libe.a
LOAD /opt/microchip/xc32/v1.32/bin/bin/../../lib/gcc/pic32mx/4.5.2/../../../../pic32mx/lib/libdsp.a
LOAD /opt/microchip/xc32/v1.32/bin/bin/../../lib/gcc/pic32mx/4.5.2/libgcc.a
LOAD /opt/microchip/xc32/v1.32/bin/bin/../../lib/gcc/pic32mx/4.5.2/../../../../pic32mx/lib/libc.a
LOAD /opt/microchip/xc32/v1.32/bin/bin/../../lib/gcc/pic32mx/4.5.2/../../../../pic32mx/lib/libpic32.a
END GROUP
LOAD /opt/microchip/xc32/v1.32/bin/bin/../../lib/gcc/pic32mx/4.5.2/libgcc.a
OUTPUT(dist/debug/production/RFIDler.X.production.elf elf32-tradlittlemips)
LOAD stack
LOAD data_init

.reginfo        0x00000000       0x18
 .reginfo       0x00000000       0x18 /opt/microchip/xc32/v1.32/bin/bin/../../lib/gcc/pic32mx/4.5.2/../../../../pic32mx/lib/./proc/32MX795F512L/crt0_mips32r2.o

.stack          0xa0007080      0x400
 .stack         0xa0007080      0x400 stack

.bss            0xa0006b70      0x380
 .bss           0xa0006b70      0x380 build/debug/production/src/main.o

.bss            0xa0000290      0x128
 .bss           0xa0000290      0x128 build/debug/production/src/indala.o

.data           0xa0006ef0       0xec
 .data          0xa0006ef0       0xa0 /opt/microchip/xc32/v1.32/bin/bin/../../lib/gcc/pic32mx/4.5.2/../../../../pic32mx/lib/libc.a(_iob.o)
                0xa0006ef0                _iob
 .data          0xa0006f90       0x4c build/debug/production/src/tags.o
                0xa0006f90                TagTypes

.bss            0xa00003b8       0x40
 .bss           0xa00003b8       0x40 /opt/microchip/xc32/v1.32/bin/bin/../../lib/gcc/pic32mx/4.5.2/../../../../pic32mx/lib/libc.a(_iob.o)
                0xa00003b8                _sibuf
                0xa00003d8                _sobuf

.bss            0xa0006fdc       0x28
 .bss           0xa0006fdc       0x28 build/debug/production/_ext/71113213/SD-SPI.o

.data           0xa0007004       0x30
 .data          0xa0007004       0x20 build/debug/production/src/q5.o
                0xa0007004                Q5_Modulation
 .data          0xa0007024       0x10 build/debug/production/src/main.o
                0xa0007024                ModulationSchemes

.bss            0xa0007038       0x1c
 .bss           0xa0007038       0x10 /opt/microchip/xc32/v1.32/bin/bin/../../lib/gcc/pic32mx/4.5.2/../../../../pic32mx/lib/libc.a(rand.o)
 .bss           0xa0007048        0xc build/debug/production/src/q5.o
                0xa0007048                Password

.bss            0xa000028c        0x4
 .bss           0xa000028c        0x4 /opt/microchip/xc32/v1.32/bin/bin/../../lib/gcc/pic32mx/4.5.2/../../../../pic32mx/lib/libc.a(doscan_cdfFnopsuxX.eo)

.bss            0xa0007034        0x4
 .bss           0xa0007034        0x4 /opt/microchip/xc32/v1.32/bin/bin/../../lib/gcc/pic32mx/4.5.2/../../../../pic32mx/lib/libc.a(doscan_cdnopuxX.eo)

.bss%z1         0x00000000        0x0
 .bss           0x00000000        0x0 /opt/microchip/xc32/v1.32/bin/bin/../../lib/gcc/pic32mx/4.5.2/../../../../pic32mx/lib/libc.a(errno.o)

.data%z2        0x00000000        0x0
 .data          0x00000000        0x0 /opt/microchip/xc32/v1.32/bin/bin/../../lib/gcc/pic32mx/4.5.2/../../../../pic32mx/lib/libc.a(errno.o)

.bss%z3         0x00000000        0x0
 .bss           0x00000000        0x0 /opt/microchip/xc32/v1.32/bin/bin/../../lib/gcc/pic32mx/4.5.2/libgcc.a(floatunsisf.o)

.data%z4        0x00000000        0x0
 .data          0x00000000        0x0 /opt/microchip/xc32/v1.32/bin/bin/../../lib/gcc/pic32mx/4.5.2/libgcc.a(floatunsisf.o)

.bss%z5         0x00000000        0x0
 .bss           0x00000000        0x0 /opt/microchip/xc32/v1.32/bin/bin/../../lib/gcc/pic32mx/4.5.2/libgcc.a(_umoddi3.o)

.data%z6        0x00000000        0x0
 .data          0x00000000        0x0 /opt/microchip/xc32/v1.32/bin/bin/../../lib/gcc/pic32mx/4.5.2/libgcc.a(_umoddi3.o)

.bss%z7         0x00000000        0x0
 .bss           0x00000000        0x0 /opt/microchip/xc32/v1.32/bin/bin/../../lib/gcc/pic32mx/4.5.2/libgcc.a(_floatundisf.o)

.data%z8        0x00000000        0x0
 .data          0x00000000        0x0 /opt/microchip/xc32/v1.32/bin/bin/../../lib/gcc/pic32mx/4.5.2/libgcc.a(_floatundisf.o)

.bss%z9         0x00000000        0x0
 .bss           0x00000000        0x0 /opt/microchip/xc32/v1.32/bin/bin/../../lib/gcc/pic32mx/4.5.2/libgcc.a(_ashldi3.o)

.data%z10       0x00000000        0x0
 .data          0x00000000        0x0 /opt/microchip/xc32/v1.32/bin/bin/../../lib/gcc/pic32mx/4.5.2/libgcc.a(_ashldi3.o)

.bss%z11        0x00000000        0x0
 .bss           0x00000000        0x0 /opt/microchip/xc32/v1.32/bin/bin/../../lib/gcc/pic32mx/4.5.2/libgcc.a(_lshrdi3.o)

.data%z12       0x00000000        0x0
 .data          0x00000000        0x0 /opt/microchip/xc32/v1.32/bin/bin/../../lib/gcc/pic32mx/4.5.2/libgcc.a(_lshrdi3.o)

.bss%z13        0x00000000        0x0
 .bss           0x00000000        0x0 /opt/microchip/xc32/v1.32/bin/bin/../../lib/gcc/pic32mx/4.5.2/../../../../pic32mx/lib/libe.a(_ldexpf.o)

.data%z14       0x00000000        0x0
 .data          0x00000000        0x0 /opt/microchip/xc32/v1.32/bin/bin/../../lib/gcc/pic32mx/4.5.2/../../../../pic32mx/lib/libe.a(_ldexpf.o)

.bss%z15        0x00000000        0x0
 .bss           0x00000000        0x0 /opt/microchip/xc32/v1.32/bin/bin/../../lib/gcc/pic32mx/4.5.2/../../../../pic32mx/lib/libe.a(_ldexp.o)

.data%z16       0x00000000        0x0
 .data          0x00000000        0x0 /opt/microchip/xc32/v1.32/bin/bin/../../lib/gcc/pic32mx/4.5.2/../../../../pic32mx/lib/libe.a(_ldexp.o)

.bss%z17        0x00000000        0x0
 .bss           0x00000000        0x0 /opt/microchip/xc32/v1.32/bin/bin/../../lib/gcc/pic32mx/4.5.2/../../../../pic32mx/lib/libe.a(_floatdisf.o)

.data%z18       0x00000000        0x0
 .data          0x00000000        0x0 /opt/microchip/xc32/v1.32/bin/bin/../../lib/gcc/pic32mx/4.5.2/../../../../pic32mx/lib/libe.a(_floatdisf.o)

.bss%z19        0x00000000        0x0
 .bss           0x00000000        0x0 /opt/microchip/xc32/v1.32/bin/bin/../../lib/gcc/pic32mx/4.5.2/../../../../pic32mx/lib/libm.a(sitofp.o)

.data%z20       0x00000000        0x0
 .data          0x00000000        0x0 /opt/microchip/xc32/v1.32/bin/bin/../../lib/gcc/pic32mx/4.5.2/../../../../pic32mx/lib/libm.a(sitofp.o)

.bss%z21        0x00000000        0x0
 .bss           0x00000000        0x0 /opt/microchip/xc32/v1.32/bin/bin/../../lib/gcc/pic32mx/4.5.2/../../../../pic32mx/lib/libm.a(negsf2.o)

.data%z22       0x00000000        0x0
 .data          0x00000000        0x0 /opt/microchip/xc32/v1.32/bin/bin/../../lib/gcc/pic32mx/4.5.2/../../../../pic32mx/lib/libm.a(negsf2.o)

.bss%z23        0x00000000        0x0
 .bss           0x00000000        0x0 /opt/microchip/xc32/v1.32/bin/bin/../../lib/gcc/pic32mx/4.5.2/../../../../pic32mx/lib/libm.a(negdf2.o)

.data%z24       0x00000000        0x0
 .data          0x00000000        0x0 /opt/microchip/xc32/v1.32/bin/bin/../../lib/gcc/pic32mx/4.5.2/../../../../pic32mx/lib/libm.a(negdf2.o)

.bss%z25        0x00000000        0x0
 .bss           0x00000000        0x0 /opt/microchip/xc32/v1.32/bin/bin/../../lib/gcc/pic32mx/4.5.2/../../../../pic32mx/lib/libm.a(litodp.o)

.data%z26       0x00000000        0x0
 .data          0x00000000        0x0 /opt/microchip/xc32/v1.32/bin/bin/../../lib/gcc/pic32mx/4.5.2/../../../../pic32mx/lib/libm.a(litodp.o)

.bss%z27        0x00000000        0x0
 .bss           0x00000000        0x0 /opt/microchip/xc32/v1.32/bin/bin/../../lib/gcc/pic32mx/4.5.2/../../../../pic32mx/lib/libm.a(dp32subadd.o)

.data%z28       0x00000000        0x0
 .data          0x00000000        0x0 /opt/microchip/xc32/v1.32/bin/bin/../../lib/gcc/pic32mx/4.5.2/../../../../pic32mx/lib/libm.a(dp32subadd.o)

.bss%z29        0x00000000        0x0
 .bss           0x00000000        0x0 /opt/microchip/xc32/v1.32/bin/bin/../../lib/gcc/pic32mx/4.5.2/../../../../pic32mx/lib/libm.a(dp32mul.o)

.data%z30       0x00000000        0x0
 .data          0x00000000        0x0 /opt/microchip/xc32/v1.32/bin/bin/../../lib/gcc/pic32mx/4.5.2/../../../../pic32mx/lib/libm.a(dp32mul.o)

.bss%z31        0x00000000        0x0
 .bss           0x00000000        0x0 /opt/microchip/xc32/v1.32/bin/bin/../../lib/gcc/pic32mx/4.5.2/../../../../pic32mx/lib/libm.a(dp32div.o)

.data%z32       0x00000000        0x0
 .data          0x00000000        0x0 /opt/microchip/xc32/v1.32/bin/bin/../../lib/gcc/pic32mx/4.5.2/../../../../pic32mx/lib/libm.a(dp32div.o)

.bss%z33        0x00000000        0x0
 .bss           0x00000000        0x0 /opt/microchip/xc32/v1.32/bin/bin/../../lib/gcc/pic32mx/4.5.2/../../../../pic32mx/lib/libm.a(__strtof.o)

.data%z34       0x00000000        0x0
 .data          0x00000000        0x0 /opt/microchip/xc32/v1.32/bin/bin/../../lib/gcc/pic32mx/4.5.2/../../../../pic32mx/lib/libm.a(__strtof.o)

.bss%z35        0x00000000        0x0
 .bss           0x00000000        0x0 /opt/microchip/xc32/v1.32/bin/bin/../../lib/gcc/pic32mx/4.5.2/../../../../pic32mx/lib/libm.a(__strtod.o)

.data%z36       0x00000000        0x0
 .data          0x00000000        0x0 /opt/microchip/xc32/v1.32/bin/bin/../../lib/gcc/pic32mx/4.5.2/../../../../pic32mx/lib/libm.a(__strtod.o)

.bss%z37        0x00000000        0x0
 .bss           0x00000000        0x0 /opt/microchip/xc32/v1.32/bin/bin/../../lib/gcc/pic32mx/4.5.2/../../../../pic32mx/lib/libm.a(fptodp.o)

.data%z38       0x00000000        0x0
 .data          0x00000000        0x0 /opt/microchip/xc32/v1.32/bin/bin/../../lib/gcc/pic32mx/4.5.2/../../../../pic32mx/lib/libm.a(fptodp.o)

.bss%z39        0x00000000        0x0
 .bss           0x00000000        0x0 /opt/microchip/xc32/v1.32/bin/bin/../../lib/gcc/pic32mx/4.5.2/../../../../pic32mx/lib/libm.a(fpfrexp.o)

.data%z40       0x00000000        0x0
 .data          0x00000000        0x0 /opt/microchip/xc32/v1.32/bin/bin/../../lib/gcc/pic32mx/4.5.2/../../../../pic32mx/lib/libm.a(fpfrexp.o)

.bss%z41        0x00000000        0x0
 .bss           0x00000000        0x0 /opt/microchip/xc32/v1.32/bin/bin/../../lib/gcc/pic32mx/4.5.2/../../../../pic32mx/lib/libm.a(dptofp.o)

.data%z42       0x00000000        0x0
 .data          0x00000000        0x0 /opt/microchip/xc32/v1.32/bin/bin/../../lib/gcc/pic32mx/4.5.2/../../../../pic32mx/lib/libm.a(dptofp.o)

.bss%z43        0x00000000        0x0
 .bss           0x00000000        0x0 /opt/microchip/xc32/v1.32/bin/bin/../../lib/gcc/pic32mx/4.5.2/../../../../pic32mx/lib/libpic32.a(_mon_putc.o)

.data%z44       0x00000000        0x0
 .data          0x00000000        0x0 /opt/microchip/xc32/v1.32/bin/bin/../../lib/gcc/pic32mx/4.5.2/../../../../pic32mx/lib/libpic32.a(_mon_putc.o)

.bss%z45        0x00000000        0x0
 .bss           0x00000000        0x0 /opt/microchip/xc32/v1.32/bin/bin/../../lib/gcc/pic32mx/4.5.2/../../../../pic32mx/lib/libpic32.a(xc32_uart.o)

.data%z46       0x00000000        0x0
 .data          0x00000000        0x0 /opt/microchip/xc32/v1.32/bin/bin/../../lib/gcc/pic32mx/4.5.2/../../../../pic32mx/lib/libpic32.a(xc32_uart.o)

.bss%z47        0x00000000        0x0
 .bss           0x00000000        0x0 /opt/microchip/xc32/v1.32/bin/bin/../../lib/gcc/pic32mx/4.5.2/../../../../pic32mx/lib/libpic32.a(write.o)

.data%z48       0x00000000        0x0
 .data          0x00000000        0x0 /opt/microchip/xc32/v1.32/bin/bin/../../lib/gcc/pic32mx/4.5.2/../../../../pic32mx/lib/libpic32.a(write.o)

.bss%z49        0x00000000        0x0
 .bss           0x00000000        0x0 /opt/microchip/xc32/v1.32/bin/bin/../../lib/gcc/pic32mx/4.5.2/../../../../pic32mx/lib/libpic32.a(read.o)

.data%z50       0x00000000        0x0
 .data          0x00000000        0x0 /opt/microchip/xc32/v1.32/bin/bin/../../lib/gcc/pic32mx/4.5.2/../../../../pic32mx/lib/libpic32.a(read.o)

.bss%z51        0x00000000        0x0
 .bss           0x00000000        0x0 /opt/microchip/xc32/v1.32/bin/bin/../../lib/gcc/pic32mx/4.5.2/../../../../pic32mx/lib/libc.a(fflush.o)

.data%z52       0x00000000        0x0
 .data          0x00000000        0x0 /opt/microchip/xc32/v1.32/bin/bin/../../lib/gcc/pic32mx/4.5.2/../../../../pic32mx/lib/libc.a(fflush.o)

.bss%z53        0x00000000        0x0
 .bss           0x00000000        0x0 /opt/microchip/xc32/v1.32/bin/bin/../../lib/gcc/pic32mx/4.5.2/../../../../pic32mx/lib/libc.a(_flsbuf_simple.o)

.data%z54       0x00000000        0x0
 .data          0x00000000        0x0 /opt/microchip/xc32/v1.32/bin/bin/../../lib/gcc/pic32mx/4.5.2/../../../../pic32mx/lib/libc.a(_flsbuf_simple.o)

.bss%z55        0x00000000        0x0
 .bss           0x00000000        0x0 /opt/microchip/xc32/v1.32/bin/bin/../../lib/gcc/pic32mx/4.5.2/../../../../pic32mx/lib/libc.a(filbuf.o)

.data%z56       0x00000000        0x0
 .data          0x00000000        0x0 /opt/microchip/xc32/v1.32/bin/bin/../../lib/gcc/pic32mx/4.5.2/../../../../pic32mx/lib/libc.a(filbuf.o)

.bss%z57        0x00000000        0x0
 .bss           0x00000000        0x0 /opt/microchip/xc32/v1.32/bin/bin/../../lib/gcc/pic32mx/4.5.2/../../../../pic32mx/lib/libc.a(ungetc.o)

.data%z58       0x00000000        0x0
 .data          0x00000000        0x0 /opt/microchip/xc32/v1.32/bin/bin/../../lib/gcc/pic32mx/4.5.2/../../../../pic32mx/lib/libc.a(ungetc.o)

.bss%z59        0x00000000        0x0
 .bss           0x00000000        0x0 /opt/microchip/xc32/v1.32/bin/bin/../../lib/gcc/pic32mx/4.5.2/../../../../pic32mx/lib/libc.a(strtof.o)

.data%z60       0x00000000        0x0
 .data          0x00000000        0x0 /opt/microchip/xc32/v1.32/bin/bin/../../lib/gcc/pic32mx/4.5.2/../../../../pic32mx/lib/libc.a(strtof.o)

.bss%z61        0x00000000        0x0
 .bss           0x00000000        0x0 /opt/microchip/xc32/v1.32/bin/bin/../../lib/gcc/pic32mx/4.5.2/../../../../pic32mx/lib/libc.a(strtod.o)

.data%z62       0x00000000        0x0
 .data          0x00000000        0x0 /opt/microchip/xc32/v1.32/bin/bin/../../lib/gcc/pic32mx/4.5.2/../../../../pic32mx/lib/libc.a(strtod.o)

.bss%z63        0x00000000        0x0
 .bss           0x00000000        0x0 /opt/microchip/xc32/v1.32/bin/bin/../../lib/gcc/pic32mx/4.5.2/../../../../pic32mx/lib/libc.a(powersf.o)

.data%z64       0x00000000        0x0
 .data          0x00000000        0x0 /opt/microchip/xc32/v1.32/bin/bin/../../lib/gcc/pic32mx/4.5.2/../../../../pic32mx/lib/libc.a(powersf.o)

.bss%z65        0x00000000        0x0
 .bss           0x00000000        0x0 /opt/microchip/xc32/v1.32/bin/bin/../../lib/gcc/pic32mx/4.5.2/../../../../pic32mx/lib/libc.a(atoi.o)

.data%z66       0x00000000        0x0
 .data          0x00000000        0x0 /opt/microchip/xc32/v1.32/bin/bin/../../lib/gcc/pic32mx/4.5.2/../../../../pic32mx/lib/libc.a(atoi.o)

.bss%z67        0x00000000        0x0
 .bss           0x00000000        0x0 /opt/microchip/xc32/v1.32/bin/bin/../../lib/gcc/pic32mx/4.5.2/../../../../pic32mx/lib/libc.a(_fputc_simple.o)

.data%z68       0x00000000        0x0
 .data          0x00000000        0x0 /opt/microchip/xc32/v1.32/bin/bin/../../lib/gcc/pic32mx/4.5.2/../../../../pic32mx/lib/libc.a(_fputc_simple.o)

.bss%z69        0x00000000        0x0
 .bss           0x00000000        0x0 /opt/microchip/xc32/v1.32/bin/bin/../../lib/gcc/pic32mx/4.5.2/../../../../pic32mx/lib/libc.a(fgetc.o)

.data%z70       0x00000000        0x0
 .data          0x00000000        0x0 /opt/microchip/xc32/v1.32/bin/bin/../../lib/gcc/pic32mx/4.5.2/../../../../pic32mx/lib/libc.a(fgetc.o)

.data%z71       0x00000000        0x0
 .data          0x00000000        0x0 /opt/microchip/xc32/v1.32/bin/bin/../../lib/gcc/pic32mx/4.5.2/../../../../pic32mx/lib/libc.a(doscan_cdnopuxX.eo)

.data%z72       0x00000000        0x0
 .data          0x00000000        0x0 /opt/microchip/xc32/v1.32/bin/bin/../../lib/gcc/pic32mx/4.5.2/../../../../pic32mx/lib/libc.a(doscan_cdfFnopsuxX.eo)

.bss%z73        0x00000000        0x0
 .bss           0x00000000        0x0 /opt/microchip/xc32/v1.32/bin/bin/../../lib/gcc/pic32mx/4.5.2/../../../../pic32mx/lib/libc.a(doprnt.o)

.data%z74       0x00000000        0x0
 .data          0x00000000        0x0 /opt/microchip/xc32/v1.32/bin/bin/../../lib/gcc/pic32mx/4.5.2/../../../../pic32mx/lib/libc.a(doprnt.o)

.bss%z75        0x00000000        0x0
 .bss           0x00000000        0x0 /opt/microchip/xc32/v1.32/bin/bin/../../lib/gcc/pic32mx/4.5.2/../../../../pic32mx/lib/libc.a(doprnt_cdnopuxX.eo)

.data%z76       0x00000000        0x0
 .data          0x00000000        0x0 /opt/microchip/xc32/v1.32/bin/bin/../../lib/gcc/pic32mx/4.5.2/../../../../pic32mx/lib/libc.a(doprnt_cdnopuxX.eo)

.bss%z77        0x00000000        0x0
 .bss           0x00000000        0x0 /opt/microchip/xc32/v1.32/bin/bin/../../lib/gcc/pic32mx/4.5.2/../../../../pic32mx/lib/libc.a(ctype.o)

.data%z78       0x00000000        0x0
 .data          0x00000000        0x0 /opt/microchip/xc32/v1.32/bin/bin/../../lib/gcc/pic32mx/4.5.2/../../../../pic32mx/lib/libc.a(ctype.o)

.bss%z79        0x00000000        0x0
 .bss           0x00000000        0x0 /opt/microchip/xc32/v1.32/bin/bin/../../lib/gcc/pic32mx/4.5.2/../../../../pic32mx/lib/libc.a(sscanf_cdfFnopsuxX.eo)

.data%z80       0x00000000        0x0
 .data          0x00000000        0x0 /opt/microchip/xc32/v1.32/bin/bin/../../lib/gcc/pic32mx/4.5.2/../../../../pic32mx/lib/libc.a(sscanf_cdfFnopsuxX.eo)

.bss%z81        0x00000000        0x0
 .bss           0x00000000        0x0 /opt/microchip/xc32/v1.32/bin/bin/../../lib/gcc/pic32mx/4.5.2/../../../../pic32mx/lib/libc.a(sprintf.o)

.data%z82       0x00000000        0x0
 .data          0x00000000        0x0 /opt/microchip/xc32/v1.32/bin/bin/../../lib/gcc/pic32mx/4.5.2/../../../../pic32mx/lib/libc.a(sprintf.o)

.bss%z83        0x00000000        0x0
 .bss           0x00000000        0x0 /opt/microchip/xc32/v1.32/bin/bin/../../lib/gcc/pic32mx/4.5.2/../../../../pic32mx/lib/libc.a(sprintf_cdnopuxX.eo)

.data%z84       0x00000000        0x0
 .data          0x00000000        0x0 /opt/microchip/xc32/v1.32/bin/bin/../../lib/gcc/pic32mx/4.5.2/../../../../pic32mx/lib/libc.a(sprintf_cdnopuxX.eo)

.bss%z85        0x00000000        0x0
 .bss           0x00000000        0x0 /opt/microchip/xc32/v1.32/bin/bin/../../lib/gcc/pic32mx/4.5.2/../../../../pic32mx/lib/libc.a(strncpy.o)

.data%z86       0x00000000        0x0
 .data          0x00000000        0x0 /opt/microchip/xc32/v1.32/bin/bin/../../lib/gcc/pic32mx/4.5.2/../../../../pic32mx/lib/libc.a(strncpy.o)

.bss%z87        0x00000000        0x0
 .bss           0x00000000        0x0 /opt/microchip/xc32/v1.32/bin/bin/../../lib/gcc/pic32mx/4.5.2/../../../../pic32mx/lib/libc.a(strncmp.o)

.data%z88       0x00000000        0x0
 .data          0x00000000        0x0 /opt/microchip/xc32/v1.32/bin/bin/../../lib/gcc/pic32mx/4.5.2/../../../../pic32mx/lib/libc.a(strncmp.o)

.data%z89       0x00000000        0x0
 .data          0x00000000        0x0 /opt/microchip/xc32/v1.32/bin/bin/../../lib/gcc/pic32mx/4.5.2/../../../../pic32mx/lib/libc.a(rand.o)

.bss%z90        0x00000000        0x0
 .bss           0x00000000        0x0 /opt/microchip/xc32/v1.32/bin/bin/../../lib/gcc/pic32mx/4.5.2/../../../../pic32mx/lib/libc.a(ctypef.o)

.data%z91       0x00000000        0x0
 .data          0x00000000        0x0 /opt/microchip/xc32/v1.32/bin/bin/../../lib/gcc/pic32mx/4.5.2/../../../../pic32mx/lib/libc.a(ctypef.o)

.bss%z92        0x00000000        0x0
 .bss           0x00000000        0x0 /opt/microchip/xc32/v1.32/bin/bin/../../lib/gcc/pic32mx/4.5.2/../../../../pic32mx/lib/libm.a(fptoul.o)

.data%z93       0x00000000        0x0
 .data          0x00000000        0x0 /opt/microchip/xc32/v1.32/bin/bin/../../lib/gcc/pic32mx/4.5.2/../../../../pic32mx/lib/libm.a(fptoul.o)

.bss%z94        0x00000000        0x0
 .bss           0x00000000        0x0 /opt/microchip/xc32/v1.32/bin/bin/../../lib/gcc/pic32mx/4.5.2/../../../../pic32mx/lib/libm.a(fptoli.o)

.data%z95       0x00000000        0x0
 .data          0x00000000        0x0 /opt/microchip/xc32/v1.32/bin/bin/../../lib/gcc/pic32mx/4.5.2/../../../../pic32mx/lib/libm.a(fptoli.o)

.bss%z96        0x00000000        0x0
 .bss           0x00000000        0x0 /opt/microchip/xc32/v1.32/bin/bin/../../lib/gcc/pic32mx/4.5.2/../../../../pic32mx/lib/libm.a(fpcmp.o)

.data%z97       0x00000000        0x0
 .data          0x00000000        0x0 /opt/microchip/xc32/v1.32/bin/bin/../../lib/gcc/pic32mx/4.5.2/../../../../pic32mx/lib/libm.a(fpcmp.o)

.bss%z98        0x00000000        0x0
 .bss           0x00000000        0x0 /opt/microchip/xc32/v1.32/bin/bin/../../lib/gcc/pic32mx/4.5.2/../../../../pic32mx/lib/libm.a(fp32subadd.o)

.data%z99       0x00000000        0x0
 .data          0x00000000        0x0 /opt/microchip/xc32/v1.32/bin/bin/../../lib/gcc/pic32mx/4.5.2/../../../../pic32mx/lib/libm.a(fp32subadd.o)

.bss%z100       0x00000000        0x0
 .bss           0x00000000        0x0 /opt/microchip/xc32/v1.32/bin/bin/../../lib/gcc/pic32mx/4.5.2/../../../../pic32mx/lib/libm.a(fp32mul.o)

.data%z101      0x00000000        0x0
 .data          0x00000000        0x0 /opt/microchip/xc32/v1.32/bin/bin/../../lib/gcc/pic32mx/4.5.2/../../../../pic32mx/lib/libm.a(fp32mul.o)

.bss%z102       0x00000000        0x0
 .bss           0x00000000        0x0 /opt/microchip/xc32/v1.32/bin/bin/../../lib/gcc/pic32mx/4.5.2/../../../../pic32mx/lib/libm.a(fp32div.o)

.data%z103      0x00000000        0x0
 .data          0x00000000        0x0 /opt/microchip/xc32/v1.32/bin/bin/../../lib/gcc/pic32mx/4.5.2/../../../../pic32mx/lib/libm.a(fp32div.o)

.bss%z104       0x00000000        0x0
 .bss           0x00000000        0x0 /opt/microchip/xc32/v1.32/bin/bin/../../lib/gcc/pic32mx/4.5.2/../../../../pic32mx/lib/libpic32.a(defaultinterrupt.o)

.data%z105      0x00000000        0x0
 .data          0x00000000        0x0 /opt/microchip/xc32/v1.32/bin/bin/../../lib/gcc/pic32mx/4.5.2/../../../../pic32mx/lib/libpic32.a(defaultinterrupt.o)

.bss%z106       0x00000000        0x0
 .bss           0x00000000        0x0 /opt/microchip/xc32/v1.32/bin/bin/../../lib/gcc/pic32mx/4.5.2/../../../../pic32mx/lib/libpic32.a(default-general-exception-handler.o)

.data%z107      0x00000000        0x0
 .data          0x00000000        0x0 /opt/microchip/xc32/v1.32/bin/bin/../../lib/gcc/pic32mx/4.5.2/../../../../pic32mx/lib/libpic32.a(default-general-exception-handler.o)

.bss%z108       0x00000000        0x0
 .bss           0x00000000        0x0 /opt/microchip/xc32/v1.32/bin/bin/../../lib/gcc/pic32mx/4.5.2/../../../../pic32mx/lib/libpic32.a(vector63.o)

.data%z109      0x00000000        0x0
 .data          0x00000000        0x0 /opt/microchip/xc32/v1.32/bin/bin/../../lib/gcc/pic32mx/4.5.2/../../../../pic32mx/lib/libpic32.a(vector63.o)

.bss%z110       0x00000000        0x0
 .bss           0x00000000        0x0 /opt/microchip/xc32/v1.32/bin/bin/../../lib/gcc/pic32mx/4.5.2/../../../../pic32mx/lib/libpic32.a(vector62.o)

.data%z111      0x00000000        0x0
 .data          0x00000000        0x0 /opt/microchip/xc32/v1.32/bin/bin/../../lib/gcc/pic32mx/4.5.2/../../../../pic32mx/lib/libpic32.a(vector62.o)

.bss%z112       0x00000000        0x0
 .bss           0x00000000        0x0 /opt/microchip/xc32/v1.32/bin/bin/../../lib/gcc/pic32mx/4.5.2/../../../../pic32mx/lib/libpic32.a(vector61.o)

.data%z113      0x00000000        0x0
 .data          0x00000000        0x0 /opt/microchip/xc32/v1.32/bin/bin/../../lib/gcc/pic32mx/4.5.2/../../../../pic32mx/lib/libpic32.a(vector61.o)

.bss%z114       0x00000000        0x0
 .bss           0x00000000        0x0 /opt/microchip/xc32/v1.32/bin/bin/../../lib/gcc/pic32mx/4.5.2/../../../../pic32mx/lib/libpic32.a(vector60.o)

.data%z115      0x00000000        0x0
 .data          0x00000000        0x0 /opt/microchip/xc32/v1.32/bin/bin/../../lib/gcc/pic32mx/4.5.2/../../../../pic32mx/lib/libpic32.a(vector60.o)

.bss%z116       0x00000000        0x0
 .bss           0x00000000        0x0 /opt/microchip/xc32/v1.32/bin/bin/../../lib/gcc/pic32mx/4.5.2/../../../../pic32mx/lib/libpic32.a(vector59.o)

.data%z117      0x00000000        0x0
 .data          0x00000000        0x0 /opt/microchip/xc32/v1.32/bin/bin/../../lib/gcc/pic32mx/4.5.2/../../../../pic32mx/lib/libpic32.a(vector59.o)

.bss%z118       0x00000000        0x0
 .bss           0x00000000        0x0 /opt/microchip/xc32/v1.32/bin/bin/../../lib/gcc/pic32mx/4.5.2/../../../../pic32mx/lib/libpic32.a(vector58.o)

.data%z119      0x00000000        0x0
 .data          0x00000000        0x0 /opt/microchip/xc32/v1.32/bin/bin/../../lib/gcc/pic32mx/4.5.2/../../../../pic32mx/lib/libpic32.a(vector58.o)

.bss%z120       0x00000000        0x0
 .bss           0x00000000        0x0 /opt/microchip/xc32/v1.32/bin/bin/../../lib/gcc/pic32mx/4.5.2/../../../../pic32mx/lib/libpic32.a(vector57.o)

.data%z121      0x00000000        0x0
 .data          0x00000000        0x0 /opt/microchip/xc32/v1.32/bin/bin/../../lib/gcc/pic32mx/4.5.2/../../../../pic32mx/lib/libpic32.a(vector57.o)

.bss%z122       0x00000000        0x0
 .bss           0x00000000        0x0 /opt/microchip/xc32/v1.32/bin/bin/../../lib/gcc/pic32mx/4.5.2/../../../../pic32mx/lib/libpic32.a(vector56.o)

.data%z123      0x00000000        0x0
 .data          0x00000000        0x0 /opt/microchip/xc32/v1.32/bin/bin/../../lib/gcc/pic32mx/4.5.2/../../../../pic32mx/lib/libpic32.a(vector56.o)

.bss%z124       0x00000000        0x0
 .bss           0x00000000        0x0 /opt/microchip/xc32/v1.32/bin/bin/../../lib/gcc/pic32mx/4.5.2/../../../../pic32mx/lib/libpic32.a(vector55.o)

.data%z125      0x00000000        0x0
 .data          0x00000000        0x0 /opt/microchip/xc32/v1.32/bin/bin/../../lib/gcc/pic32mx/4.5.2/../../../../pic32mx/lib/libpic32.a(vector55.o)

.bss%z126       0x00000000        0x0
 .bss           0x00000000        0x0 /opt/microchip/xc32/v1.32/bin/bin/../../lib/gcc/pic32mx/4.5.2/../../../../pic32mx/lib/libpic32.a(vector54.o)

.data%z127      0x00000000        0x0
 .data          0x00000000        0x0 /opt/microchip/xc32/v1.32/bin/bin/../../lib/gcc/pic32mx/4.5.2/../../../../pic32mx/lib/libpic32.a(vector54.o)

.bss%z128       0x00000000        0x0
 .bss           0x00000000        0x0 /opt/microchip/xc32/v1.32/bin/bin/../../lib/gcc/pic32mx/4.5.2/../../../../pic32mx/lib/libpic32.a(vector53.o)

.data%z129      0x00000000        0x0
 .data          0x00000000        0x0 /opt/microchip/xc32/v1.32/bin/bin/../../lib/gcc/pic32mx/4.5.2/../../../../pic32mx/lib/libpic32.a(vector53.o)

.bss%z130       0x00000000        0x0
 .bss           0x00000000        0x0 /opt/microchip/xc32/v1.32/bin/bin/../../lib/gcc/pic32mx/4.5.2/../../../../pic32mx/lib/libpic32.a(vector52.o)

.data%z131      0x00000000        0x0
 .data          0x00000000        0x0 /opt/microchip/xc32/v1.32/bin/bin/../../lib/gcc/pic32mx/4.5.2/../../../../pic32mx/lib/libpic32.a(vector52.o)

.bss%z132       0x00000000        0x0
 .bss           0x00000000        0x0 /opt/microchip/xc32/v1.32/bin/bin/../../lib/gcc/pic32mx/4.5.2/../../../../pic32mx/lib/libpic32.a(vector51.o)

.data%z133      0x00000000        0x0
 .data          0x00000000        0x0 /opt/microchip/xc32/v1.32/bin/bin/../../lib/gcc/pic32mx/4.5.2/../../../../pic32mx/lib/libpic32.a(vector51.o)

.bss%z134       0x00000000        0x0
 .bss           0x00000000        0x0 /opt/microchip/xc32/v1.32/bin/bin/../../lib/gcc/pic32mx/4.5.2/../../../../pic32mx/lib/libpic32.a(vector50.o)

.data%z135      0x00000000        0x0
 .data          0x00000000        0x0 /opt/microchip/xc32/v1.32/bin/bin/../../lib/gcc/pic32mx/4.5.2/../../../../pic32mx/lib/libpic32.a(vector50.o)

.bss%z136       0x00000000        0x0
 .bss           0x00000000        0x0 /opt/microchip/xc32/v1.32/bin/bin/../../lib/gcc/pic32mx/4.5.2/../../../../pic32mx/lib/libpic32.a(vector49.o)

.data%z137      0x00000000        0x0
 .data          0x00000000        0x0 /opt/microchip/xc32/v1.32/bin/bin/../../lib/gcc/pic32mx/4.5.2/../../../../pic32mx/lib/libpic32.a(vector49.o)

.bss%z138       0x00000000        0x0
 .bss           0x00000000        0x0 /opt/microchip/xc32/v1.32/bin/bin/../../lib/gcc/pic32mx/4.5.2/../../../../pic32mx/lib/libpic32.a(vector48.o)

.data%z139      0x00000000        0x0
 .data          0x00000000        0x0 /opt/microchip/xc32/v1.32/bin/bin/../../lib/gcc/pic32mx/4.5.2/../../../../pic32mx/lib/libpic32.a(vector48.o)

.bss%z140       0x00000000        0x0
 .bss           0x00000000        0x0 /opt/microchip/xc32/v1.32/bin/bin/../../lib/gcc/pic32mx/4.5.2/../../../../pic32mx/lib/libpic32.a(vector47.o)

.data%z141      0x00000000        0x0
 .data          0x00000000        0x0 /opt/microchip/xc32/v1.32/bin/bin/../../lib/gcc/pic32mx/4.5.2/../../../../pic32mx/lib/libpic32.a(vector47.o)

.bss%z142       0x00000000        0x0
 .bss           0x00000000        0x0 /opt/microchip/xc32/v1.32/bin/bin/../../lib/gcc/pic32mx/4.5.2/../../../../pic32mx/lib/libpic32.a(vector46.o)

.data%z143      0x00000000        0x0
 .data          0x00000000        0x0 /opt/microchip/xc32/v1.32/bin/bin/../../lib/gcc/pic32mx/4.5.2/../../../../pic32mx/lib/libpic32.a(vector46.o)

.bss%z144       0x00000000        0x0
 .bss           0x00000000        0x0 /opt/microchip/xc32/v1.32/bin/bin/../../lib/gcc/pic32mx/4.5.2/../../../../pic32mx/lib/libpic32.a(vector44.o)

.data%z145      0x00000000        0x0
 .data          0x00000000        0x0 /opt/microchip/xc32/v1.32/bin/bin/../../lib/gcc/pic32mx/4.5.2/../../../../pic32mx/lib/libpic32.a(vector44.o)

.bss%z146       0x00000000        0x0
 .bss           0x00000000        0x0 /opt/microchip/xc32/v1.32/bin/bin/../../lib/gcc/pic32mx/4.5.2/../../../../pic32mx/lib/libpic32.a(vector43.o)

.data%z147      0x00000000        0x0
 .data          0x00000000        0x0 /opt/microchip/xc32/v1.32/bin/bin/../../lib/gcc/pic32mx/4.5.2/../../../../pic32mx/lib/libpic32.a(vector43.o)

.bss%z148       0x00000000        0x0
 .bss           0x00000000        0x0 /opt/microchip/xc32/v1.32/bin/bin/../../lib/gcc/pic32mx/4.5.2/../../../../pic32mx/lib/libpic32.a(vector42.o)

.data%z149      0x00000000        0x0
 .data          0x00000000        0x0 /opt/microchip/xc32/v1.32/bin/bin/../../lib/gcc/pic32mx/4.5.2/../../../../pic32mx/lib/libpic32.a(vector42.o)

.bss%z150       0x00000000        0x0
 .bss           0x00000000        0x0 /opt/microchip/xc32/v1.32/bin/bin/../../lib/gcc/pic32mx/4.5.2/../../../../pic32mx/lib/libpic32.a(vector41.o)

.data%z151      0x00000000        0x0
 .data          0x00000000        0x0 /opt/microchip/xc32/v1.32/bin/bin/../../lib/gcc/pic32mx/4.5.2/../../../../pic32mx/lib/libpic32.a(vector41.o)

.bss%z152       0x00000000        0x0
 .bss           0x00000000        0x0 /opt/microchip/xc32/v1.32/bin/bin/../../lib/gcc/pic32mx/4.5.2/../../../../pic32mx/lib/libpic32.a(vector40.o)

.data%z153      0x00000000        0x0
 .data          0x00000000        0x0 /opt/microchip/xc32/v1.32/bin/bin/../../lib/gcc/pic32mx/4.5.2/../../../../pic32mx/lib/libpic32.a(vector40.o)

.bss%z154       0x00000000        0x0
 .bss           0x00000000        0x0 /opt/microchip/xc32/v1.32/bin/bin/../../lib/gcc/pic32mx/4.5.2/../../../../pic32mx/lib/libpic32.a(vector39.o)

.data%z155      0x00000000        0x0
 .data          0x00000000        0x0 /opt/microchip/xc32/v1.32/bin/bin/../../lib/gcc/pic32mx/4.5.2/../../../../pic32mx/lib/libpic32.a(vector39.o)

.bss%z156       0x00000000        0x0
 .bss           0x00000000        0x0 /opt/microchip/xc32/v1.32/bin/bin/../../lib/gcc/pic32mx/4.5.2/../../../../pic32mx/lib/libpic32.a(vector38.o)

.data%z157      0x00000000        0x0
 .data          0x00000000        0x0 /opt/microchip/xc32/v1.32/bin/bin/../../lib/gcc/pic32mx/4.5.2/../../../../pic32mx/lib/libpic32.a(vector38.o)

.bss%z158       0x00000000        0x0
 .bss           0x00000000        0x0 /opt/microchip/xc32/v1.32/bin/bin/../../lib/gcc/pic32mx/4.5.2/../../../../pic32mx/lib/libpic32.a(vector37.o)

.data%z159      0x00000000        0x0
 .data          0x00000000        0x0 /opt/microchip/xc32/v1.32/bin/bin/../../lib/gcc/pic32mx/4.5.2/../../../../pic32mx/lib/libpic32.a(vector37.o)

.bss%z160       0x00000000        0x0
 .bss           0x00000000        0x0 /opt/microchip/xc32/v1.32/bin/bin/../../lib/gcc/pic32mx/4.5.2/../../../../pic32mx/lib/libpic32.a(vector36.o)

.data%z161      0x00000000        0x0
 .data          0x00000000        0x0 /opt/microchip/xc32/v1.32/bin/bin/../../lib/gcc/pic32mx/4.5.2/../../../../pic32mx/lib/libpic32.a(vector36.o)

.bss%z162       0x00000000        0x0
 .bss           0x00000000        0x0 /opt/microchip/xc32/v1.32/bin/bin/../../lib/gcc/pic32mx/4.5.2/../../../../pic32mx/lib/libpic32.a(vector35.o)

.data%z163      0x00000000        0x0
 .data          0x00000000        0x0 /opt/microchip/xc32/v1.32/bin/bin/../../lib/gcc/pic32mx/4.5.2/../../../../pic32mx/lib/libpic32.a(vector35.o)

.bss%z164       0x00000000        0x0
 .bss           0x00000000        0x0 /opt/microchip/xc32/v1.32/bin/bin/../../lib/gcc/pic32mx/4.5.2/../../../../pic32mx/lib/libpic32.a(vector34.o)

.data%z165      0x00000000        0x0
 .data          0x00000000        0x0 /opt/microchip/xc32/v1.32/bin/bin/../../lib/gcc/pic32mx/4.5.2/../../../../pic32mx/lib/libpic32.a(vector34.o)

.bss%z166       0x00000000        0x0
 .bss           0x00000000        0x0 /opt/microchip/xc32/v1.32/bin/bin/../../lib/gcc/pic32mx/4.5.2/../../../../pic32mx/lib/libpic32.a(vector33.o)

.data%z167      0x00000000        0x0
 .data          0x00000000        0x0 /opt/microchip/xc32/v1.32/bin/bin/../../lib/gcc/pic32mx/4.5.2/../../../../pic32mx/lib/libpic32.a(vector33.o)

.bss%z168       0x00000000        0x0
 .bss           0x00000000        0x0 /opt/microchip/xc32/v1.32/bin/bin/../../lib/gcc/pic32mx/4.5.2/../../../../pic32mx/lib/libpic32.a(vector32.o)

.data%z169      0x00000000        0x0
 .data          0x00000000        0x0 /opt/microchip/xc32/v1.32/bin/bin/../../lib/gcc/pic32mx/4.5.2/../../../../pic32mx/lib/libpic32.a(vector32.o)

.bss%z170       0x00000000        0x0
 .bss           0x00000000        0x0 /opt/microchip/xc32/v1.32/bin/bin/../../lib/gcc/pic32mx/4.5.2/../../../../pic32mx/lib/libpic32.a(vector31.o)

.data%z171      0x00000000        0x0
 .data          0x00000000        0x0 /opt/microchip/xc32/v1.32/bin/bin/../../lib/gcc/pic32mx/4.5.2/../../../../pic32mx/lib/libpic32.a(vector31.o)

.bss%z172       0x00000000        0x0
 .bss           0x00000000        0x0 /opt/microchip/xc32/v1.32/bin/bin/../../lib/gcc/pic32mx/4.5.2/../../../../pic32mx/lib/libpic32.a(vector30.o)

.data%z173      0x00000000        0x0
 .data          0x00000000        0x0 /opt/microchip/xc32/v1.32/bin/bin/../../lib/gcc/pic32mx/4.5.2/../../../../pic32mx/lib/libpic32.a(vector30.o)

.bss%z174       0x00000000        0x0
 .bss           0x00000000        0x0 /opt/microchip/xc32/v1.32/bin/bin/../../lib/gcc/pic32mx/4.5.2/../../../../pic32mx/lib/libpic32.a(vector29.o)

.data%z175      0x00000000        0x0
 .data          0x00000000        0x0 /opt/microchip/xc32/v1.32/bin/bin/../../lib/gcc/pic32mx/4.5.2/../../../../pic32mx/lib/libpic32.a(vector29.o)

.bss%z176       0x00000000        0x0
 .bss           0x00000000        0x0 /opt/microchip/xc32/v1.32/bin/bin/../../lib/gcc/pic32mx/4.5.2/../../../../pic32mx/lib/libpic32.a(vector28.o)

.data%z177      0x00000000        0x0
 .data          0x00000000        0x0 /opt/microchip/xc32/v1.32/bin/bin/../../lib/gcc/pic32mx/4.5.2/../../../../pic32mx/lib/libpic32.a(vector28.o)

.bss%z178       0x00000000        0x0
 .bss           0x00000000        0x0 /opt/microchip/xc32/v1.32/bin/bin/../../lib/gcc/pic32mx/4.5.2/../../../../pic32mx/lib/libpic32.a(vector27.o)

.data%z179      0x00000000        0x0
 .data          0x00000000        0x0 /opt/microchip/xc32/v1.32/bin/bin/../../lib/gcc/pic32mx/4.5.2/../../../../pic32mx/lib/libpic32.a(vector27.o)

.bss%z180       0x00000000        0x0
 .bss           0x00000000        0x0 /opt/microchip/xc32/v1.32/bin/bin/../../lib/gcc/pic32mx/4.5.2/../../../../pic32mx/lib/libpic32.a(vector26.o)

.data%z181      0x00000000        0x0
 .data          0x00000000        0x0 /opt/microchip/xc32/v1.32/bin/bin/../../lib/gcc/pic32mx/4.5.2/../../../../pic32mx/lib/libpic32.a(vector26.o)

.bss%z182       0x00000000        0x0
 .bss           0x00000000        0x0 /opt/microchip/xc32/v1.32/bin/bin/../../lib/gcc/pic32mx/4.5.2/../../../../pic32mx/lib/libpic32.a(vector25.o)

.data%z183      0x00000000        0x0
 .data          0x00000000        0x0 /opt/microchip/xc32/v1.32/bin/bin/../../lib/gcc/pic32mx/4.5.2/../../../../pic32mx/lib/libpic32.a(vector25.o)

.bss%z184       0x00000000        0x0
 .bss           0x00000000        0x0 /opt/microchip/xc32/v1.32/bin/bin/../../lib/gcc/pic32mx/4.5.2/../../../../pic32mx/lib/libpic32.a(vector24.o)

.data%z185      0x00000000        0x0
 .data          0x00000000        0x0 /opt/microchip/xc32/v1.32/bin/bin/../../lib/gcc/pic32mx/4.5.2/../../../../pic32mx/lib/libpic32.a(vector24.o)

.bss%z186       0x00000000        0x0
 .bss           0x00000000        0x0 /opt/microchip/xc32/v1.32/bin/bin/../../lib/gcc/pic32mx/4.5.2/../../../../pic32mx/lib/libpic32.a(vector23.o)

.data%z187      0x00000000        0x0
 .data          0x00000000        0x0 /opt/microchip/xc32/v1.32/bin/bin/../../lib/gcc/pic32mx/4.5.2/../../../../pic32mx/lib/libpic32.a(vector23.o)

.bss%z188       0x00000000        0x0
 .bss           0x00000000        0x0 /opt/microchip/xc32/v1.32/bin/bin/../../lib/gcc/pic32mx/4.5.2/../../../../pic32mx/lib/libpic32.a(vector21.o)

.data%z189      0x00000000        0x0
 .data          0x00000000        0x0 /opt/microchip/xc32/v1.32/bin/bin/../../lib/gcc/pic32mx/4.5.2/../../../../pic32mx/lib/libpic32.a(vector21.o)

.bss%z190       0x00000000        0x0
 .bss           0x00000000        0x0 /opt/microchip/xc32/v1.32/bin/bin/../../lib/gcc/pic32mx/4.5.2/../../../../pic32mx/lib/libpic32.a(vector20.o)

.data%z191      0x00000000        0x0
 .data          0x00000000        0x0 /opt/microchip/xc32/v1.32/bin/bin/../../lib/gcc/pic32mx/4.5.2/../../../../pic32mx/lib/libpic32.a(vector20.o)

.bss%z192       0x00000000        0x0
 .bss           0x00000000        0x0 /opt/microchip/xc32/v1.32/bin/bin/../../lib/gcc/pic32mx/4.5.2/../../../../pic32mx/lib/libpic32.a(vector19.o)

.data%z193      0x00000000        0x0
 .data          0x00000000        0x0 /opt/microchip/xc32/v1.32/bin/bin/../../lib/gcc/pic32mx/4.5.2/../../../../pic32mx/lib/libpic32.a(vector19.o)

.bss%z194       0x00000000        0x0
 .bss           0x00000000        0x0 /opt/microchip/xc32/v1.32/bin/bin/../../lib/gcc/pic32mx/4.5.2/../../../../pic32mx/lib/libpic32.a(vector18.o)

.data%z195      0x00000000        0x0
 .data          0x00000000        0x0 /opt/microchip/xc32/v1.32/bin/bin/../../lib/gcc/pic32mx/4.5.2/../../../../pic32mx/lib/libpic32.a(vector18.o)

.bss%z196       0x00000000        0x0
 .bss           0x00000000        0x0 /opt/microchip/xc32/v1.32/bin/bin/../../lib/gcc/pic32mx/4.5.2/../../../../pic32mx/lib/libpic32.a(vector17.o)

.data%z197      0x00000000        0x0
 .data          0x00000000        0x0 /opt/microchip/xc32/v1.32/bin/bin/../../lib/gcc/pic32mx/4.5.2/../../../../pic32mx/lib/libpic32.a(vector17.o)

.bss%z198       0x00000000        0x0
 .bss           0x00000000        0x0 /opt/microchip/xc32/v1.32/bin/bin/../../lib/gcc/pic32mx/4.5.2/../../../../pic32mx/lib/libpic32.a(vector15.o)

.data%z199      0x00000000        0x0
 .data          0x00000000        0x0 /opt/microchip/xc32/v1.32/bin/bin/../../lib/gcc/pic32mx/4.5.2/../../../../pic32mx/lib/libpic32.a(vector15.o)

.bss%z200       0x00000000        0x0
 .bss           0x00000000        0x0 /opt/microchip/xc32/v1.32/bin/bin/../../lib/gcc/pic32mx/4.5.2/../../../../pic32mx/lib/libpic32.a(vector14.o)

.data%z201      0x00000000        0x0
 .data          0x00000000        0x0 /opt/microchip/xc32/v1.32/bin/bin/../../lib/gcc/pic32mx/4.5.2/../../../../pic32mx/lib/libpic32.a(vector14.o)

.bss%z202       0x00000000        0x0
 .bss           0x00000000        0x0 /opt/microchip/xc32/v1.32/bin/bin/../../lib/gcc/pic32mx/4.5.2/../../../../pic32mx/lib/libpic32.a(vector13.o)

.data%z203      0x00000000        0x0
 .data          0x00000000        0x0 /opt/microchip/xc32/v1.32/bin/bin/../../lib/gcc/pic32mx/4.5.2/../../../../pic32mx/lib/libpic32.a(vector13.o)

.bss%z204       0x00000000        0x0
 .bss           0x00000000        0x0 /opt/microchip/xc32/v1.32/bin/bin/../../lib/gcc/pic32mx/4.5.2/../../../../pic32mx/lib/libpic32.a(vector11.o)

.data%z205      0x00000000        0x0
 .data          0x00000000        0x0 /opt/microchip/xc32/v1.32/bin/bin/../../lib/gcc/pic32mx/4.5.2/../../../../pic32mx/lib/libpic32.a(vector11.o)

.bss%z206       0x00000000        0x0
 .bss           0x00000000        0x0 /opt/microchip/xc32/v1.32/bin/bin/../../lib/gcc/pic32mx/4.5.2/../../../../pic32mx/lib/libpic32.a(vector10.o)

.data%z207      0x00000000        0x0
 .data          0x00000000        0x0 /opt/microchip/xc32/v1.32/bin/bin/../../lib/gcc/pic32mx/4.5.2/../../../../pic32mx/lib/libpic32.a(vector10.o)

.bss%z208       0x00000000        0x0
 .bss           0x00000000        0x0 /opt/microchip/xc32/v1.32/bin/bin/../../lib/gcc/pic32mx/4.5.2/../../../../pic32mx/lib/libpic32.a(vector9.o)

.data%z209      0x00000000        0x0
 .data          0x00000000        0x0 /opt/microchip/xc32/v1.32/bin/bin/../../lib/gcc/pic32mx/4.5.2/../../../../pic32mx/lib/libpic32.a(vector9.o)

.bss%z210       0x00000000        0x0
 .bss           0x00000000        0x0 /opt/microchip/xc32/v1.32/bin/bin/../../lib/gcc/pic32mx/4.5.2/../../../../pic32mx/lib/libpic32.a(vector8.o)

.data%z211      0x00000000        0x0
 .data          0x00000000        0x0 /opt/microchip/xc32/v1.32/bin/bin/../../lib/gcc/pic32mx/4.5.2/../../../../pic32mx/lib/libpic32.a(vector8.o)

.bss%z212       0x00000000        0x0
 .bss           0x00000000        0x0 /opt/microchip/xc32/v1.32/bin/bin/../../lib/gcc/pic32mx/4.5.2/../../../../pic32mx/lib/libpic32.a(vector7.o)

.data%z213      0x00000000        0x0
 .data          0x00000000        0x0 /opt/microchip/xc32/v1.32/bin/bin/../../lib/gcc/pic32mx/4.5.2/../../../../pic32mx/lib/libpic32.a(vector7.o)

.bss%z214       0x00000000        0x0
 .bss           0x00000000        0x0 /opt/microchip/xc32/v1.32/bin/bin/../../lib/gcc/pic32mx/4.5.2/../../../../pic32mx/lib/libpic32.a(vector6.o)

.data%z215      0x00000000        0x0
 .data          0x00000000        0x0 /opt/microchip/xc32/v1.32/bin/bin/../../lib/gcc/pic32mx/4.5.2/../../../../pic32mx/lib/libpic32.a(vector6.o)

.bss%z216       0x00000000        0x0
 .bss           0x00000000        0x0 /opt/microchip/xc32/v1.32/bin/bin/../../lib/gcc/pic32mx/4.5.2/../../../../pic32mx/lib/libpic32.a(vector5.o)

.data%z217      0x00000000        0x0
 .data          0x00000000        0x0 /opt/microchip/xc32/v1.32/bin/bin/../../lib/gcc/pic32mx/4.5.2/../../../../pic32mx/lib/libpic32.a(vector5.o)

.bss%z218       0x00000000        0x0
 .bss           0x00000000        0x0 /opt/microchip/xc32/v1.32/bin/bin/../../lib/gcc/pic32mx/4.5.2/../../../../pic32mx/lib/libpic32.a(vector3.o)

.data%z219      0x00000000        0x0
 .data          0x00000000        0x0 /opt/microchip/xc32/v1.32/bin/bin/../../lib/gcc/pic32mx/4.5.2/../../../../pic32mx/lib/libpic32.a(vector3.o)

.bss%z220       0x00000000        0x0
 .bss           0x00000000        0x0 /opt/microchip/xc32/v1.32/bin/bin/../../lib/gcc/pic32mx/4.5.2/../../../../pic32mx/lib/libpic32.a(vector2.o)

.data%z221      0x00000000        0x0
 .data          0x00000000        0x0 /opt/microchip/xc32/v1.32/bin/bin/../../lib/gcc/pic32mx/4.5.2/../../../../pic32mx/lib/libpic32.a(vector2.o)

.bss%z222       0x00000000        0x0
 .bss           0x00000000        0x0 /opt/microchip/xc32/v1.32/bin/bin/../../lib/gcc/pic32mx/4.5.2/../../../../pic32mx/lib/libpic32.a(vector1.o)

.data%z223      0x00000000        0x0
 .data          0x00000000        0x0 /opt/microchip/xc32/v1.32/bin/bin/../../lib/gcc/pic32mx/4.5.2/../../../../pic32mx/lib/libpic32.a(vector1.o)

.bss%z224       0x00000000        0x0
 .bss           0x00000000        0x0 /opt/microchip/xc32/v1.32/bin/bin/../../lib/gcc/pic32mx/4.5.2/../../../../pic32mx/lib/libpic32.a(vector0.o)

.data%z225      0x00000000        0x0
 .data          0x00000000        0x0 /opt/microchip/xc32/v1.32/bin/bin/../../lib/gcc/pic32mx/4.5.2/../../../../pic32mx/lib/libpic32.a(vector0.o)

.bss%z226       0x00000000        0x0
 .bss           0x00000000        0x0 /opt/microchip/xc32/v1.32/bin/bin/../../lib/gcc/pic32mx/4.5.2/../../../../pic32mx/lib/libpic32.a(general-exception.o)

.data%z227      0x00000000        0x0
 .data          0x00000000        0x0 /opt/microchip/xc32/v1.32/bin/bin/../../lib/gcc/pic32mx/4.5.2/../../../../pic32mx/lib/libpic32.a(general-exception.o)

.bss%z228       0x00000000        0x0
 .bss           0x00000000        0x0 /opt/microchip/xc32/v1.32/bin/bin/../../lib/gcc/pic32mx/4.5.2/../../../../pic32mx/lib/libpic32.a(default-nmi-handler.o)

.data%z229      0x00000000        0x0
 .data          0x00000000        0x0 /opt/microchip/xc32/v1.32/bin/bin/../../lib/gcc/pic32mx/4.5.2/../../../../pic32mx/lib/libpic32.a(default-nmi-handler.o)

.bss%z230       0x00000000        0x0
 .bss           0x00000000        0x0 /opt/microchip/xc32/v1.32/bin/bin/../../lib/gcc/pic32mx/4.5.2/../../../../pic32mx/lib/libpic32.a(default-on-bootstrap.o)

.data%z231      0x00000000        0x0
 .data          0x00000000        0x0 /opt/microchip/xc32/v1.32/bin/bin/../../lib/gcc/pic32mx/4.5.2/../../../../pic32mx/lib/libpic32.a(default-on-bootstrap.o)

.bss%z232       0x00000000        0x0
 .bss           0x00000000        0x0 /opt/microchip/xc32/v1.32/bin/bin/../../lib/gcc/pic32mx/4.5.2/../../../../pic32mx/lib/libpic32.a(default-on-reset.o)

.data%z233      0x00000000        0x0
 .data          0x00000000        0x0 /opt/microchip/xc32/v1.32/bin/bin/../../lib/gcc/pic32mx/4.5.2/../../../../pic32mx/lib/libpic32.a(default-on-reset.o)

.bss%z234       0x00000000        0x0
 .bss           0x00000000        0x0 /opt/microchip/xc32/v1.32/bin/bin/../../lib/gcc/pic32mx/4.5.2/../../../../pic32mx/lib/libpic32.a(default-bootstrap-exception-handler.o)

.data%z235      0x00000000        0x0
 .data          0x00000000        0x0 /opt/microchip/xc32/v1.32/bin/bin/../../lib/gcc/pic32mx/4.5.2/../../../../pic32mx/lib/libpic32.a(default-bootstrap-exception-handler.o)

.bss%z236       0x00000000        0x0
 .bss           0x00000000        0x0 /opt/microchip/xc32/v1.32/bin/bin/../../lib/gcc/pic32mx/4.5.2/../../../../pic32mx/lib/libpic32.a(strlen.o)

.data%z237      0x00000000        0x0
 .data          0x00000000        0x0 /opt/microchip/xc32/v1.32/bin/bin/../../lib/gcc/pic32mx/4.5.2/../../../../pic32mx/lib/libpic32.a(strlen.o)

.bss%z238       0x00000000        0x0
 .bss           0x00000000        0x0 /opt/microchip/xc32/v1.32/bin/bin/../../lib/gcc/pic32mx/4.5.2/../../../../pic32mx/lib/libpic32.a(strcpy.o)

.data%z239      0x00000000        0x0
 .data          0x00000000        0x0 /opt/microchip/xc32/v1.32/bin/bin/../../lib/gcc/pic32mx/4.5.2/../../../../pic32mx/lib/libpic32.a(strcpy.o)

.bss%z240       0x00000000        0x0
 .bss           0x00000000        0x0 /opt/microchip/xc32/v1.32/bin/bin/../../lib/gcc/pic32mx/4.5.2/../../../../pic32mx/lib/libpic32.a(strcmp.o)

.data%z241      0x00000000        0x0
 .data          0x00000000        0x0 /opt/microchip/xc32/v1.32/bin/bin/../../lib/gcc/pic32mx/4.5.2/../../../../pic32mx/lib/libpic32.a(strcmp.o)

.bss%z242       0x00000000        0x0
 .bss           0x00000000        0x0 /opt/microchip/xc32/v1.32/bin/bin/../../lib/gcc/pic32mx/4.5.2/../../../../pic32mx/lib/libpic32.a(memset.o)

.data%z243      0x00000000        0x0
 .data          0x00000000        0x0 /opt/microchip/xc32/v1.32/bin/bin/../../lib/gcc/pic32mx/4.5.2/../../../../pic32mx/lib/libpic32.a(memset.o)

.bss%z244       0x00000000        0x0
 .bss           0x00000000        0x0 /opt/microchip/xc32/v1.32/bin/bin/../../lib/gcc/pic32mx/4.5.2/../../../../pic32mx/lib/libpic32.a(memcpy.o)

.data%z245      0x00000000        0x0
 .data          0x00000000        0x0 /opt/microchip/xc32/v1.32/bin/bin/../../lib/gcc/pic32mx/4.5.2/../../../../pic32mx/lib/libpic32.a(memcpy.o)

.bss%z246       0x00000000        0x0
 .bss           0x00000000        0x0 /opt/microchip/xc32/v1.32/bin/bin/../../lib/gcc/pic32mx/4.5.2/../../../../pic32mx/lib/libpic32.a(memcmp.o)

.data%z247      0x00000000        0x0
 .data          0x00000000        0x0 /opt/microchip/xc32/v1.32/bin/bin/../../lib/gcc/pic32mx/4.5.2/../../../../pic32mx/lib/libpic32.a(memcmp.o)

.bss%z248       0x00000000        0x0
 .bss           0x00000000        0x0 /opt/microchip/xc32/v1.32/bin/bin/../../lib/gcc/pic32mx/4.5.2/libgcc.a(_udivdi3.o)

.data%z249      0x00000000        0x0
 .data          0x00000000        0x0 /opt/microchip/xc32/v1.32/bin/bin/../../lib/gcc/pic32mx/4.5.2/libgcc.a(_udivdi3.o)

.bss%z250       0x00000000        0x0
 .bss           0x00000000        0x0 /opt/microchip/xc32/v1.32/bin/bin/../../lib/gcc/pic32mx/4.5.2/../../../../pic32mx/lib/./proc/32MX795F512L/processor.o

.data%z251      0x00000000        0x0
 .data          0x00000000        0x0 /opt/microchip/xc32/v1.32/bin/bin/../../lib/gcc/pic32mx/4.5.2/../../../../pic32mx/lib/./proc/32MX795F512L/processor.o

.bss%z252       0x00000000        0x0
 .bss           0x00000000        0x0 /opt/microchip/xc32/v1.32/bin/bin/../../lib/gcc/pic32mx/4.5.2/../../../../pic32mx/lib/pic32_software_reset.o

.data%z253      0x00000000        0x0
 .data          0x00000000        0x0 /opt/microchip/xc32/v1.32/bin/bin/../../lib/gcc/pic32mx/4.5.2/../../../../pic32mx/lib/pic32_software_reset.o

.bss%z254       0x00000000        0x0
 .bss           0x00000000        0x0 /opt/microchip/xc32/v1.32/bin/bin/../../lib/gcc/pic32mx/4.5.2/../../../../pic32mx/lib/./proc/32MX795F512L/default_isr_vectors.o

.data%z255      0x00000000        0x0
 .data          0x00000000        0x0 /opt/microchip/xc32/v1.32/bin/bin/../../lib/gcc/pic32mx/4.5.2/../../../../pic32mx/lib/./proc/32MX795F512L/default_isr_vectors.o

.bss%z256       0x00000000        0x0
 .bss           0x00000000        0x0 /opt/microchip/xc32/v1.32/pic32mx/lib/libmchp_peripheral_32MX795F512L.a(_ports_tbl_libp.o)

.data%z257      0x00000000        0x0
 .data          0x00000000        0x0 /opt/microchip/xc32/v1.32/pic32mx/lib/libmchp_peripheral_32MX795F512L.a(_ports_tbl_libp.o)

.bss%z258       0x00000000        0x0
 .bss           0x00000000        0x0 /opt/microchip/xc32/v1.32/pic32mx/lib/libmchp_peripheral_32MX795F512L.a(port_set_pins_digital_out_lib.o)

.data%z259      0x00000000        0x0
 .data          0x00000000        0x0 /opt/microchip/xc32/v1.32/pic32mx/lib/libmchp_peripheral_32MX795F512L.a(port_set_pins_digital_out_lib.o)

.bss%z260       0x00000000        0x0
 .bss           0x00000000        0x0 /opt/microchip/xc32/v1.32/pic32mx/lib/libmchp_peripheral_32MX795F512L.a(port_set_pins_digital_in_lib.o)

.data%z261      0x00000000        0x0
 .data          0x00000000        0x0 /opt/microchip/xc32/v1.32/pic32mx/lib/libmchp_peripheral_32MX795F512L.a(port_set_pins_digital_in_lib.o)

.bss%z262       0x00000000        0x0
 .bss           0x00000000        0x0 /opt/microchip/xc32/v1.32/pic32mx/lib/libmchp_peripheral_32MX795F512L.a(port_reset_pins_lib.o)

.data%z263      0x00000000        0x0
 .data          0x00000000        0x0 /opt/microchip/xc32/v1.32/pic32mx/lib/libmchp_peripheral_32MX795F512L.a(port_reset_pins_lib.o)

.bss%z264       0x00000000        0x0
 .bss           0x00000000        0x0 /opt/microchip/xc32/v1.32/pic32mx/lib/libmchp_peripheral_32MX795F512L.a(nvm_write_row_lib.o)

.data%z265      0x00000000        0x0
 .data          0x00000000        0x0 /opt/microchip/xc32/v1.32/pic32mx/lib/libmchp_peripheral_32MX795F512L.a(nvm_write_row_lib.o)

.bss%z266       0x00000000        0x0
 .bss           0x00000000        0x0 /opt/microchip/xc32/v1.32/pic32mx/lib/libmchp_peripheral_32MX795F512L.a(nvm_program_lib.o)

.data%z267      0x00000000        0x0
 .data          0x00000000        0x0 /opt/microchip/xc32/v1.32/pic32mx/lib/libmchp_peripheral_32MX795F512L.a(nvm_program_lib.o)

.bss%z268       0x00000000        0x0
 .bss           0x00000000        0x0 /opt/microchip/xc32/v1.32/pic32mx/lib/libmchp_peripheral_32MX795F512L.a(nvm_operation_lib.o)

.data%z269      0x00000000        0x0
 .data          0x00000000        0x0 /opt/microchip/xc32/v1.32/pic32mx/lib/libmchp_peripheral_32MX795F512L.a(nvm_operation_lib.o)

.bss%z270       0x00000000        0x0
 .bss           0x00000000        0x0 /opt/microchip/xc32/v1.32/pic32mx/lib/libmchp_peripheral_32MX795F512L.a(nvm_erase_page_lib.o)

.data%z271      0x00000000        0x0
 .data          0x00000000        0x0 /opt/microchip/xc32/v1.32/pic32mx/lib/libmchp_peripheral_32MX795F512L.a(nvm_erase_page_lib.o)

.bss%z272       0x00000000        0x0
 .bss           0x00000000        0x0 /opt/microchip/xc32/v1.32/pic32mx/lib/libmchp_peripheral_32MX795F512L.a(spi_brg_tbl_lib_legacy.o)

.data%z273      0x00000000        0x0
 .data          0x00000000        0x0 /opt/microchip/xc32/v1.32/pic32mx/lib/libmchp_peripheral_32MX795F512L.a(spi_brg_tbl_lib_legacy.o)

.bss%z274       0x00000000        0x0
 .bss           0x00000000        0x0 /opt/microchip/xc32/v1.32/pic32mx/lib/libmchp_peripheral_32MX795F512L.a(spi_open_spi1_lib_legacy.o)

.data%z275      0x00000000        0x0
 .data          0x00000000        0x0 /opt/microchip/xc32/v1.32/pic32mx/lib/libmchp_peripheral_32MX795F512L.a(spi_open_spi1_lib_legacy.o)

.bss%z276       0x00000000        0x0
 .bss           0x00000000        0x0 /opt/microchip/xc32/v1.32/pic32mx/lib/libmchp_peripheral_32MX795F512L.a(spi_getc_spi1_lib_legacy.o)

.data%z277      0x00000000        0x0
 .data          0x00000000        0x0 /opt/microchip/xc32/v1.32/pic32mx/lib/libmchp_peripheral_32MX795F512L.a(spi_getc_spi1_lib_legacy.o)

.bss%z278       0x00000000        0x0
 .bss           0x00000000        0x0 /opt/microchip/xc32/v1.32/pic32mx/lib/libmchp_peripheral_32MX795F512L.a(spi_map_tbl_libp.o)

.data%z279      0x00000000        0x0
 .data          0x00000000        0x0 /opt/microchip/xc32/v1.32/pic32mx/lib/libmchp_peripheral_32MX795F512L.a(spi_map_tbl_libp.o)

.bss%z280       0x00000000        0x0
 .bss           0x00000000        0x0 /opt/microchip/xc32/v1.32/pic32mx/lib/libmchp_peripheral_32MX795F512L.a(spi_io_tbl_libp.o)

.data%z281      0x00000000        0x0
 .data          0x00000000        0x0 /opt/microchip/xc32/v1.32/pic32mx/lib/libmchp_peripheral_32MX795F512L.a(spi_io_tbl_libp.o)

.bss%z282       0x00000000        0x0
 .bss           0x00000000        0x0 /opt/microchip/xc32/v1.32/pic32mx/lib/libmchp_peripheral_32MX795F512L.a(spi_chn_open_lib.o)

.data%z283      0x00000000        0x0
 .data          0x00000000        0x0 /opt/microchip/xc32/v1.32/pic32mx/lib/libmchp_peripheral_32MX795F512L.a(spi_chn_open_lib.o)

.bss%z284       0x00000000        0x0
 .bss           0x00000000        0x0 /opt/microchip/xc32/v1.32/pic32mx/lib/libmchp_peripheral_32MX795F512L.a(spi_chn_close_lib.o)

.data%z285      0x00000000        0x0
 .data          0x00000000        0x0 /opt/microchip/xc32/v1.32/pic32mx/lib/libmchp_peripheral_32MX795F512L.a(spi_chn_close_lib.o)

.bss%z286       0x00000000        0x0
 .bss           0x00000000        0x0 /opt/microchip/xc32/v1.32/pic32mx/lib/libmchp_peripheral_32MX795F512L.a(int_tbl_lib.o)

.data%z287      0x00000000        0x0
 .data          0x00000000        0x0 /opt/microchip/xc32/v1.32/pic32mx/lib/libmchp_peripheral_32MX795F512L.a(int_tbl_lib.o)

.bss%z288       0x00000000        0x0
 .bss           0x00000000        0x0 /opt/microchip/xc32/v1.32/pic32mx/lib/libmchp_peripheral_32MX795F512L.a(int_enable_mv_int_lib.o)

.data%z289      0x00000000        0x0
 .data          0x00000000        0x0 /opt/microchip/xc32/v1.32/pic32mx/lib/libmchp_peripheral_32MX795F512L.a(int_enable_mv_int_lib.o)

.bss%z290       0x00000000        0x0
 .bss           0x00000000        0x0 /opt/microchip/xc32/v1.32/pic32mx/lib/libmchp_peripheral_32MX795F512L.a(int_restore_interrupts_lib.o)

.data%z291      0x00000000        0x0
 .data          0x00000000        0x0 /opt/microchip/xc32/v1.32/pic32mx/lib/libmchp_peripheral_32MX795F512L.a(int_restore_interrupts_lib.o)

.bss%z292       0x00000000        0x0
 .bss           0x00000000        0x0 /opt/microchip/xc32/v1.32/pic32mx/lib/libmchp_peripheral_32MX795F512L.a(int_disable_interrupts_lib.o)

.data%z293      0x00000000        0x0
 .data          0x00000000        0x0 /opt/microchip/xc32/v1.32/pic32mx/lib/libmchp_peripheral_32MX795F512L.a(int_disable_interrupts_lib.o)

.bss%z294       0x00000000        0x0
 .bss           0x00000000        0x0 /opt/microchip/xc32/v1.32/pic32mx/lib/libmchp_peripheral_32MX795F512L.a(int_enable_interrupts_lib.o)

.data%z295      0x00000000        0x0
 .data          0x00000000        0x0 /opt/microchip/xc32/v1.32/pic32mx/lib/libmchp_peripheral_32MX795F512L.a(int_enable_interrupts_lib.o)

.bss%z296       0x00000000        0x0
 .bss           0x00000000        0x0 /opt/microchip/xc32/v1.32/pic32mx/lib/libmchp_peripheral_32MX795F512L.a(int_configure_system_lib.o)

.data%z297      0x00000000        0x0
 .data          0x00000000        0x0 /opt/microchip/xc32/v1.32/pic32mx/lib/libmchp_peripheral_32MX795F512L.a(int_configure_system_lib.o)

.bss%z298       0x00000000        0x0
 .bss           0x00000000        0x0 /opt/microchip/xc32/v1.32/pic32mx/lib/libmchp_peripheral_32MX795F512L.a(pcache.o)

.data%z299      0x00000000        0x0
 .data          0x00000000        0x0 /opt/microchip/xc32/v1.32/pic32mx/lib/libmchp_peripheral_32MX795F512L.a(pcache.o)

.bss%z300       0x00000000        0x0
 .bss           0x00000000        0x0 /opt/microchip/xc32/v1.32/pic32mx/lib/libmchp_peripheral_32MX795F512L.a(soft_reset_lib.o)

.data%z301      0x00000000        0x0
 .data          0x00000000        0x0 /opt/microchip/xc32/v1.32/pic32mx/lib/libmchp_peripheral_32MX795F512L.a(soft_reset_lib.o)

.bss%z302       0x00000000        0x0
 .bss           0x00000000        0x0 build/debug/production/src/iso7816.o

.data%z303      0x00000000        0x0
 .data          0x00000000        0x0 build/debug/production/src/iso7816.o

.bss%z304       0x00000000        0x0
 .bss           0x00000000        0x0 build/debug/production/src/analogue.o

.data%z305      0x00000000        0x0
 .data          0x00000000        0x0 build/debug/production/src/analogue.o

.bss%z306       0x00000000        0x0
 .bss           0x00000000        0x0 build/debug/production/src/awid.o

.data%z307      0x00000000        0x0
 .data          0x00000000        0x0 build/debug/production/src/awid.o

.bss%z308       0x00000000        0x0
 .bss           0x00000000        0x0 build/debug/production/src/debug_pins.o

.data%z309      0x00000000        0x0
 .data          0x00000000        0x0 build/debug/production/src/debug_pins.o

.bss%z310       0x00000000        0x0
 .bss           0x00000000        0x0 build/debug/production/src/sdcard.o

.data%z311      0x00000000        0x0
 .data          0x00000000        0x0 build/debug/production/src/sdcard.o

.bss%z312       0x00000000        0x0
 .bss           0x00000000        0x0 build/debug/production/src/select.o

.data%z313      0x00000000        0x0
 .data          0x00000000        0x0 build/debug/production/src/select.o

.bss%z314       0x00000000        0x0
 .bss           0x00000000        0x0 build/debug/production/src/config.o

.data%z315      0x00000000        0x0
 .data          0x00000000        0x0 build/debug/production/src/config.o

.bss%z316       0x00000000        0x0
 .bss           0x00000000        0x0 build/debug/production/src/vtag.o

.data%z317      0x00000000        0x0
 .data          0x00000000        0x0 build/debug/production/src/vtag.o

.bss%z318       0x00000000        0x0
 .bss           0x00000000        0x0 build/debug/production/src/auth.o

.data%z319      0x00000000        0x0
 .data          0x00000000        0x0 build/debug/production/src/auth.o

.bss%z320       0x00000000        0x0
 .bss           0x00000000        0x0 build/debug/production/src/write.o

.data%z321      0x00000000        0x0
 .data          0x00000000        0x0 build/debug/production/src/write.o

.bss%z322       0x00000000        0x0
 .bss           0x00000000        0x0 build/debug/production/src/login.o

.data%z323      0x00000000        0x0
 .data          0x00000000        0x0 build/debug/production/src/login.o

.bss%z324       0x00000000        0x0
 .bss           0x00000000        0x0 build/debug/production/src/uid.o

.data%z325      0x00000000        0x0
 .data          0x00000000        0x0 build/debug/production/src/uid.o

.bss%z326       0x00000000        0x0
 .bss           0x00000000        0x0 build/debug/production/src/hitag.o

.data%z327      0x00000000        0x0
 .data          0x00000000        0x0 build/debug/production/src/hitag.o

.bss%z328       0x00000000        0x0
 .bss           0x00000000        0x0 build/debug/production/src/fdxb.o

.data%z329      0x00000000        0x0
 .data          0x00000000        0x0 build/debug/production/src/fdxb.o

.bss%z330       0x00000000        0x0
 .bss           0x00000000        0x0 build/debug/production/src/auto.o

.data%z331      0x00000000        0x0
 .data          0x00000000        0x0 build/debug/production/src/auto.o

.bss%z332       0x00000000        0x0
 .bss           0x00000000        0x0 build/debug/production/src/isr.o

.data%z333      0x00000000        0x0
 .data          0x00000000        0x0 build/debug/production/src/isr.o

.bss%z334       0x00000000        0x0
 .bss           0x00000000        0x0 build/debug/production/src/read.o

.data%z335      0x00000000        0x0
 .data          0x00000000        0x0 build/debug/production/src/read.o

.bss%z336       0x00000000        0x0
 .bss           0x00000000        0x0 build/debug/production/src/hid.o

.data%z337      0x00000000        0x0
 .data          0x00000000        0x0 build/debug/production/src/hid.o

.bss%z338       0x00000000        0x0
 .bss           0x00000000        0x0 build/debug/production/src/em.o

.data%z339      0x00000000        0x0
 .data          0x00000000        0x0 build/debug/production/src/em.o

.bss%z340       0x00000000        0x0
 .bss           0x00000000        0x0 build/debug/production/src/led.o

.data%z341      0x00000000        0x0
 .data          0x00000000        0x0 build/debug/production/src/led.o

.bss%z342       0x00000000        0x0
 .bss           0x00000000        0x0 build/debug/production/src/unique.o

.data%z343      0x00000000        0x0
 .data          0x00000000        0x0 build/debug/production/src/unique.o

.bss%z344       0x00000000        0x0
 .bss           0x00000000        0x0 build/debug/production/src/tags.o

.bss%z345       0x00000000        0x0
 .bss           0x00000000        0x0 build/debug/production/src/uart3.o

.data%z346      0x00000000        0x0
 .data          0x00000000        0x0 build/debug/production/src/uart3.o

.bss%z347       0x00000000        0x0
 .bss           0x00000000        0x0 build/debug/production/src/spi.o

.data%z348      0x00000000        0x0
 .data          0x00000000        0x0 build/debug/production/src/spi.o

.bss%z349       0x00000000        0x0
 .bss           0x00000000        0x0 build/debug/production/src/mcp414x.o

.data%z350      0x00000000        0x0
 .data          0x00000000        0x0 build/debug/production/src/mcp414x.o

.bss%z351       0x00000000        0x0
 .bss           0x00000000        0x0 build/debug/production/src/nvm.o

.data%z352      0x00000000        0x0
 .data          0x00000000        0x0 build/debug/production/src/nvm.o

.bss%z353       0x00000000        0x0
 .bss           0x00000000        0x0 build/debug/production/src/comms.o

.data%z354      0x00000000        0x0
 .data          0x00000000        0x0 build/debug/production/src/comms.o

.bss%z355       0x00000000        0x0
 .bss           0x00000000        0x0 build/debug/production/src/wiegand.o

.data%z356      0x00000000        0x0
 .data          0x00000000        0x0 build/debug/production/src/wiegand.o

.bss%z357       0x00000000        0x0
 .bss           0x00000000        0x0 build/debug/production/src/hitagcrypto.o

.data%z358      0x00000000        0x0
 .data          0x00000000        0x0 build/debug/production/src/hitagcrypto.o

.bss%z359       0x00000000        0x0
 .bss           0x00000000        0x0 build/debug/production/src/detect.o

.data%z360      0x00000000        0x0
 .data          0x00000000        0x0 build/debug/production/src/detect.o

.bss%z361       0x00000000        0x0
 .bss           0x00000000        0x0 build/debug/production/src/rwd.o

.data%z362      0x00000000        0x0
 .data          0x00000000        0x0 build/debug/production/src/rwd.o

.bss%z363       0x00000000        0x0
 .bss           0x00000000        0x0 build/debug/production/src/clock.o

.data%z364      0x00000000        0x0
 .data          0x00000000        0x0 build/debug/production/src/clock.o

.bss%z365       0x00000000        0x0
 .bss           0x00000000        0x0 build/debug/production/src/fsk.o

.data%z366      0x00000000        0x0
 .data          0x00000000        0x0 build/debug/production/src/fsk.o

.bss%z367       0x00000000        0x0
 .bss           0x00000000        0x0 build/debug/production/src/ask.o

.data%z368      0x00000000        0x0
 .data          0x00000000        0x0 build/debug/production/src/ask.o

.bss%z369       0x00000000        0x0
 .bss           0x00000000        0x0 build/debug/production/src/emulate.o

.data%z370      0x00000000        0x0
 .data          0x00000000        0x0 build/debug/production/src/emulate.o

.bss%z371       0x00000000        0x0
 .bss           0x00000000        0x0 build/debug/production/src/util.o

.data%z372      0x00000000        0x0
 .data          0x00000000        0x0 build/debug/production/src/util.o

.bss%z373       0x00000000        0x0
 .bss           0x00000000        0x0 build/debug/production/src/usb_descriptors.o

.data%z374      0x00000000        0x0
 .data          0x00000000        0x0 build/debug/production/src/usb_descriptors.o

.bss%z375       0x00000000        0x0
 .bss           0x00000000        0x0 build/debug/production/src/psk.o

.data%z376      0x00000000        0x0
 .data          0x00000000        0x0 build/debug/production/src/psk.o

.data%z377      0x00000000        0x0
 .data          0x00000000        0x0 build/debug/production/src/indala.o

.bss%z378       0x00000000        0x0
 .bss           0x00000000        0x0 build/debug/production/_ext/1379786196/usb_function_cdc.o

.data%z379      0x00000000        0x0
 .data          0x00000000        0x0 build/debug/production/_ext/1379786196/usb_function_cdc.o

.bss%z380       0x00000000        0x0
 .bss           0x00000000        0x0 build/debug/production/_ext/870548313/usb_device.o

.data%z381      0x00000000        0x0
 .data          0x00000000        0x0 build/debug/production/_ext/870548313/usb_device.o

.bss%z382       0x00000000        0x0
 .bss           0x00000000        0x0 build/debug/production/_ext/2096855388/SCpic32.o

.data%z383      0x00000000        0x0
 .data          0x00000000        0x0 build/debug/production/_ext/2096855388/SCpic32.o

.bss%z384       0x00000000        0x0
 .bss           0x00000000        0x0 build/debug/production/_ext/2096855388/SClib.o

.data%z385      0x00000000        0x0
 .data          0x00000000        0x0 build/debug/production/_ext/2096855388/SClib.o

.bss%z386       0x00000000        0x0
 .bss           0x00000000        0x0 build/debug/production/_ext/71113213/FSIO.o

.data%z387      0x00000000        0x0
 .data          0x00000000        0x0 build/debug/production/_ext/71113213/FSIO.o

.data%z388      0x00000000        0x0
 .data          0x00000000        0x0 build/debug/production/_ext/71113213/SD-SPI.o

.bss%z389       0x00000000        0x0
 .bss           0x00000000        0x0 /opt/microchip/xc32/v1.32/bin/bin/../../lib/gcc/pic32mx/4.5.2/../../../../pic32mx/lib/debug-exception-return.o

.data%z390      0x00000000        0x0
 .data          0x00000000        0x0 /opt/microchip/xc32/v1.32/bin/bin/../../lib/gcc/pic32mx/4.5.2/../../../../pic32mx/lib/debug-exception-return.o

.bss%z391       0x00000000        0x0
 .bss           0x00000000        0x0 /opt/microchip/xc32/v1.32/bin/bin/../../lib/gcc/pic32mx/4.5.2/../../../../pic32mx/lib/./proc/32MX795F512L/crt0_mips32r2.o

.data%z392      0x00000000        0x0
 .data          0x00000000        0x0 /opt/microchip/xc32/v1.32/bin/bin/../../lib/gcc/pic32mx/4.5.2/../../../../pic32mx/lib/./proc/32MX795F512L/crt0_mips32r2.o

._debug_exception
                0xbfc00480       0x2c
 ._debug_exception
                0xbfc00480       0x2c /opt/microchip/xc32/v1.32/bin/bin/../../lib/gcc/pic32mx/4.5.2/../../../../pic32mx/lib/debug-exception-return.o
                0xbfc00480                __DbgExecReturn

.text           0x9d006e00    0x18274
 .text          0x9d006e00    0x1151c build/debug/production/_ext/71113213/FSIO.o
                0x9d006e00                FSInit
                0x9d006f6c                FILEfind
                0x9d008acc                FILEopen
                0x9d008d50                FILEget_next_cluster
                0x9d008ebc                DISKmount
                0x9d008fe4                LoadMBR
                0x9d009444                LoadBootSector
                0x9d009c30                GetFullClusterNumber
                0x9d009c88                FSCreateMBR
                0x9d00a004                FSformat
                0x9d00bbc4                Write_File_Entry
                0x9d00bd34                FAT_erase_cluster_chain
                0x9d00bef8                Cache_File_Entry
                0x9d00c304                CreateFileEntry
                0x9d00c9a0                CreateFirstCluster
                0x9d00ca80                FindEmptyEntries
                0x9d00cd54                PopulateEntries
                0x9d00cf10                Alias_LFN_Object
                0x9d00d854                CacheTime
                0x9d00db5c                FILEallocate_new_cluster
                0x9d00dcb0                FATfindEmptyCluster
                0x9d00de5c                FSfclose
                0x9d00e0a4                Fill_File_Object
                0x9d00e38c                Fill_LFN_Object
                0x9d00e4f8                LoadDirAttrib
                0x9d00e628                FILEerase
                0x9d00e88c                FSrename
                0x9d00eae0                wFSrename
                0x9d00eb38                wFSfopen
                0x9d00eb90                FSfopen
                0x9d00f4a8                FSftell
                0x9d00f4d8                FSremove
                0x9d00f768                wFSremove
                0x9d00f7b8                FSrewind
                0x9d00f824                FSerror
                0x9d00f848                FileObjectCopy
                0x9d00f8d4                FILECreateHeadCluster
                0x9d00fa60                EraseCluster
                0x9d00fbac                ReadByte
                0x9d00fbe8                ReadWord
                0x9d00fc6c                ReadDWord
                0x9d00fd00                Cluster2Sector
                0x9d00fdec                FSattrib
                0x9d00ff40                FSfwrite
                0x9d01040c                flushData
                0x9d0104bc                FSfeof
                0x9d0104fc                FSfread
                0x9d010870                FormatFileName
                0x9d01111c                FormatDirName
                0x9d011b4c                ValidateChars
                0x9d0121d8                FSfseek
                0x9d0125a4                ReadFAT
                0x9d012a80                WriteFAT
                0x9d01306c                FSchdir
                0x9d0130ac                wFSchdir
                0x9d013104                chdirhelper
                0x9d013b14                FSgetcwd
                0x9d014968                wFSgetcwd
                0x9d0149c0                GetPreviousEntry
                0x9d0150a8                FSmkdir
                0x9d0150e8                wFSmkdir
                0x9d015140                mkdirhelper
                0x9d015de0                CreateDIR
                0x9d015fc0                writeDotEntries
                0x9d016258                FSrmdir
                0x9d0162a8                wFSrmdir
                0x9d016310                rmdirhelper
                0x9d0177d8                eraseDir
                0x9d017938                FindFirst
                0x9d017e4c                FindNext
                0x9d0182bc                wFindFirst
 .text          0x9d01831c     0x6d58 build/debug/production/src/main.o
                0x9d01831c                main
                0x9d018718                UserInit
                0x9d018c7c                ProcessIO
                0x9d019334                USBCBCheckOtherReq
                0x9d019364                USBCBInitEP
                0x9d019394                USBCBSendResume
                0x9d01946c                USER_USB_CALLBACK_EVENT_HANDLER
                0x9d019504                read_adc
                0x9d019590                ProcessSerialCommand
                0x9d01ef78                parse_BL_packet

.rodata         0x9d01f074     0x44d0
 .rodata        0x9d01f074     0x44d0 build/debug/production/src/main.o

.text           0x9d023544     0x7974
 .text          0x9d023544     0x36f4 build/debug/production/_ext/870548313/usb_device.o
                0x9d023544                USBDeviceInit
                0x9d023840                _USB1Interrupt
                0x9d023d28                USBEnableEndpoint
                0x9d023dcc                USBTransferOnePacket
                0x9d02404c                USBStallEndpoint
                0x9d02425c                USBCancelIO
                0x9d024690                USBDeviceDetach
                0x9d0246c4                USBDeviceAttach
                0x9d0247b8                USBCtrlEPAllowStatusStage
                0x9d0249ec                USBCtrlEPAllowDataStage
 .text          0x9d026c38     0x26a0 build/debug/production/src/util.o
                0x9d026c38                approx
                0x9d026d04                bcdtouint
                0x9d026db8                bcdtoulonglong
                0x9d026f00                binarraytoint
                0x9d026f84                inttobinarray
                0x9d027004                ulongtobinarray
                0x9d027084                ulonglongtobinarray
                0x9d027134                ulongtohex
                0x9d0271a0                inttobinstring
                0x9d0271fc                ulongtobinstring
                0x9d027258                binarraytoulonglong
                0x9d027310                binarraytoulong
                0x9d027394                hextobyte
                0x9d0273ec                hextoulong
                0x9d02745c                hexreversetoulong
                0x9d027548                hextoulonglong
                0x9d0275bc                hexreversetoulonglong
                0x9d0276cc                hextolonglong
                0x9d0278b4                hextobinarray
                0x9d027a48                hextobinstring
                0x9d027abc                binarraytohex
                0x9d027bcc                hexprintbinarray
                0x9d027c50                binstringtohex
                0x9d027d70                getbit
                0x9d027db8                bytestohex
                0x9d027e4c                binstringtobinarray
                0x9d027f24                binarraytobinstring
                0x9d027fb4                invertbinstring
                0x9d02806c                printhexasbin
                0x9d0280c4                printbinstringashex
                0x9d028128                printbinarray
                0x9d028208                manchester_encode
                0x9d028328                manchester_decode
                0x9d0283dc                strip_newline
                0x9d028488                GetTimer_us
                0x9d0284ec                GetTimer_ticks
                0x9d02853c                command_ack
                0x9d028628                command_nack
                0x9d02869c                command_unknown
                0x9d0286f4                ToUpper
                0x9d028810                TimerWait
                0x9d028858                Delay_us
                0x9d0288b4                string_reverse
                0x9d028964                string_byteswap
                0x9d028a04                parity
                0x9d028a98                get_reader_pulse
                0x9d028b90                get_reader_gap
                0x9d028c88                crc_ccitt
                0x9d028cd0                crc16
                0x9d028dd0                space_indent
                0x9d028e40                xml_version
                0x9d028e88                xml_header
                0x9d028f1c                xml_footer
                0x9d028ff0                xml_indented_text
                0x9d02906c                xml_item_text
                0x9d0290dc                xml_item_decimal
                0x9d029174                xml_indented_array
                0x9d029254                xml_item_array
 .text          0x9d0292d8     0x1be0 build/debug/production/src/hitag.o
                0x9d0292d8                hitag1_get_uid
                0x9d029428                hitag1_hex_to_uid
                0x9d029448                hitag1_select
                0x9d0294dc                hitag1_read_page
                0x9d0295a8                hitag1_send_command
                0x9d029728                hitag1_binarray_crc
                0x9d029800                hitag1_crc
                0x9d02984c                hitag1_blocksize
                0x9d029854                hitag1_datablocks
                0x9d02985c                hitag1_config_block_number
                0x9d029864                hitag1_user_block_number
                0x9d02986c                hitag2_get_uid
                0x9d029980                hitag2_hex_to_uid
                0x9d0299a0                hitag2_pwd_auth
                0x9d029ae8                hitag2_crypto_auth
                0x9d02a474                hitag2_read_page
                0x9d02a5e0                hitag2_write_page
                0x9d02a87c                hitag2_test_rwd
                0x9d02ab0c                hitag2_hex_crypt
                0x9d02abd8                hitag2_binstring_crypt
                0x9d02ac68                hitag2_binarray_crypt
                0x9d02acc4                hitag2_crypt
                0x9d02acf8                hitag_ac_to_bin
                0x9d02adb8                hitag2_blocksize
                0x9d02adc0                hitag2_datablocks
                0x9d02adc8                hitag2_config_block_number
                0x9d02add0                hitag2_user_block_number
                0x9d02add8                hitag2_emulate_config_block

.text.vfprintf  0x9d02aeb8     0x1bc8
 .text.vfprintf
                0x9d02aeb8     0x1bc8 /opt/microchip/xc32/v1.32/bin/bin/../../lib/gcc/pic32mx/4.5.2/../../../../pic32mx/lib/libc.a(doprnt.o)
                0x9d02aeb8                vfprintf

.text           0x9d02ca80     0x979c
 .text          0x9d02ca80     0x1a00 build/debug/production/_ext/71113213/SD-SPI.o
                0x9d02ca80                MDD_SDSPI_MediaDetect
                0x9d02cab4                MDD_SDSPI_ReadSectorSize
                0x9d02cad8                MDD_SDSPI_ReadCapacity
                0x9d02cafc                MDD_SDSPI_InitIO
                0x9d02cb68                MDD_SDSPI_ShutdownMedia
                0x9d02cbb0                SendMMCCmd
                0x9d02ce84                MDD_SDSPI_SectorRead
                0x9d02cf28                MDD_SDSPI_AsyncReadTasks
                0x9d02d3d0                MDD_SDSPI_AsyncWriteTasks
                0x9d02d950                MDD_SDSPI_SectorWrite
                0x9d02da44                MDD_SDSPI_WriteProtectState
                0x9d02da74                Delayms
                0x9d02daec                CloseSPIM
                0x9d02db20                WriteSPIM
                0x9d02db80                MDD_SDSPI_ReadMedia
                0x9d02dbd4                OpenSPIM
                0x9d02dd14                InitSPISlowMode
                0x9d02ddf4                MDD_SDSPI_MediaInitialize
 .text          0x9d02e480     0x1820 build/debug/production/src/tags.o
                0x9d02e480                tag_list
                0x9d02e554                tag_get_type
                0x9d02e5fc                tag_get_blocksize
                0x9d02e6b0                tag_get_datablocks
                0x9d02e764                tag_get_databits
                0x9d02e8b0                auto_detect_tag_type
                0x9d02e9f8                tag_set
                0x9d02fac0                tag_uid_to_hex
 .text          0x9d02fca0     0x12b4 build/debug/production/_ext/2096855388/SClib.o
                0x9d02fca0                SC_Initialize
                0x9d02fcd0                SC_CardPresent
                0x9d02fcf4                SC_PowerOnATR
                0x9d030258                SC_DoPPS
                0x9d030698                SC_GetCardState
                0x9d0306d8                SC_Shutdown
                0x9d030b40                SC_TransactT0
 .text          0x9d030f54     0x1234 build/debug/production/src/isr.o
                0x9d030f54                reader_clock_tick
                0x9d031428                emulation_send_bit
                0x9d031930                HW_read_bit
 .text          0x9d032188     0x11dc build/debug/production/src/vtag.o
                0x9d032188                vtag_wipe
                0x9d0321c8                vtag_dump
                0x9d0324f0                vtag_set_tag_type
                0x9d032558                vtag_set_tag_from_type
                0x9d0325dc                vtag_create_from_uid
                0x9d032834                vtag_copy_from_tag
                0x9d032b90                vtag_convert
                0x9d032c60                vtag_write_to_tag
                0x9d033118                vtag_write_blocks
 .text          0x9d033364     0x11c0 build/debug/production/src/q5.o
                0x9d033364                q5_send_command
                0x9d0335a4                q5_get_uid
                0x9d033678                q5_hex_to_uid
                0x9d0336b8                q5_read_block
                0x9d033858                q5_write_block
                0x9d033aa8                q5_login
                0x9d033bfc                q5_rwd_test
                0x9d033fb0                q5_blocksize
                0x9d033fd4                q5_datablocks
                0x9d033ff8                q5_config_block_number
                0x9d03401c                q5_config_block_show
                0x9d0343c0                q5_user_block_number
                0x9d0343e4                q5_emulate_config_block
 .text          0x9d034524      0xf50 build/debug/production/src/wiegand.o
                0x9d034524                learn_wiegand
                0x9d034aa4                read_wiegand
                0x9d034dbc                read_wiegand_bit
                0x9d034f3c                write_wiegand
                0x9d034fb8                write_wiegand_uid
                0x9d034ff8                write_wiegand_bit
                0x9d035180                wiegand_test
                0x9d035264                wiegand_add_parity
                0x9d03533c                wiegand_out_disable
                0x9d035388                wiegand_out_enable
                0x9d035410                wiegand_set_pullups
 .text          0x9d035474      0xda8 build/debug/production/src/fsk.o
                0x9d035474                send_fsk_hex
                0x9d035544                send_fsk_bin
                0x9d0355ec                write_FSK_HW_clock
                0x9d035764                fsk_raw_get_uid
                0x9d03590c                read_fsk_data
                0x9d035c44                fsk_raw_hex_to_uid
                0x9d035c90                read_FSK_HW_clock
                0x9d036020                fskbinarraytobinarray

.text._vfprintf_cdnopuxX
                0x9d03621c      0xae8
 .text._vfprintf_cdnopuxX
                0x9d03621c      0xae8 /opt/microchip/xc32/v1.32/bin/bin/../../lib/gcc/pic32mx/4.5.2/../../../../pic32mx/lib/libc.a(doprnt_cdnopuxX.eo)
                0x9d03621c                _vfprintf_cdnopuxX

.text           0x9d036d04     0x14c4
 .text          0x9d036d04      0xa8c build/debug/production/src/ask.o
                0x9d036d04                send_ask_hex
                0x9d036d90                send_ask_bin
                0x9d036e18                ask_raw_get_uid
                0x9d036f90                ask_raw_hex_to_uid
                0x9d036fdc                read_ask_data
                0x9d0372e8                write_ASK_HW_clock
                0x9d0374b0                read_ASK_HW_clock
 .text          0x9d037790      0xa38 build/debug/production/_ext/1379786196/usb_function_cdc.o
                0x9d037790                USBCheckCDCRequest
                0x9d037b00                CDCInitEP
                0x9d037b8c                USBCDCEventHandler
                0x9d037c2c                getsUSBUSART
                0x9d037d70                putUSBUSART
                0x9d037de0                putsUSBUSART
                0x9d037eb4                putrsUSBUSART
                0x9d037f84                CDCTxService

.text._vfscanf_cdfFnopsuxX
                0x9d0381c8      0xa2c
 .text._vfscanf_cdfFnopsuxX
                0x9d0381c8      0xa2c /opt/microchip/xc32/v1.32/bin/bin/../../lib/gcc/pic32mx/4.5.2/../../../../pic32mx/lib/libc.a(doscan_cdfFnopsuxX.eo)
                0x9d0381c8                _vfscanf_cdfFnopsuxX

.text           0x9d038bf4     0x2664
 .text          0x9d038bf4      0xa20 build/debug/production/src/psk.o
                0x9d038bf4                read_psk1_data
                0x9d038f6c                send_psk1_hex
                0x9d039000                send_psk1_bin
                0x9d0390c4                write_PSK1_HW_clock
                0x9d039240                read_PSK1_HW_clock
                0x9d039424                psk1_raw_get_uid
                0x9d0395ac                psk1_raw_hex_to_uid
 .text          0x9d039614      0xa14 build/debug/production/src/analogue.o
                0x9d039614                init_adc
                0x9d03972c                analogue_sample
                0x9d039848                analogue_xml_out
                0x9d039e24                analogue_frequency
 .text          0x9d03a028      0x9a0 build/debug/production/src/comms.o
                0x9d03a028                UserMessage
                0x9d03a0e4                UserBinary
                0x9d03a158                UserBinaryByte
                0x9d03a1cc                UserMessageNum
                0x9d03a244                GetUserMessage
                0x9d03a2c0                SendUART3Message
                0x9d03a33c                GetUART3Message
                0x9d03a4d0                SendUSBMessage
                0x9d03a598                get_prompt
                0x9d03a634                BlinkCommsStatus
                0x9d03a8f4                get_user_abort
                0x9d03a94c                eod
 .text          0x9d03a9c8      0x890 build/debug/production/src/hitagcrypto.o
                0x9d03aab8                hitag2_init
                0x9d03ae94                hitag2_nstep
                0x9d03afb0                hitag2_benchtest_gen32
                0x9d03b058                hitag2_benchtest
                0x9d03b138                hitag2_verifytest

.text._vfscanf_cdnopuxX
                0x9d03b258      0x868
 .text._vfscanf_cdnopuxX
                0x9d03b258      0x868 /opt/microchip/xc32/v1.32/bin/bin/../../lib/gcc/pic32mx/4.5.2/../../../../pic32mx/lib/libc.a(doscan_cdnopuxX.eo)
                0x9d03b258                _vfscanf_cdnopuxX

.text           0x9d03bac0     0x1844
 .text          0x9d03bac0      0x844 build/debug/production/src/clock.o
                0x9d03bac0                InitHWReaderClock
                0x9d03bd50                InitHWReaderISR
                0x9d03be14                stop_HW_clock
                0x9d03bee8                stop_HW_reader_ISR
                0x9d03bf4c                clock_test
 .text          0x9d03c304      0x81c build/debug/production/_ext/2096855388/SCpic32.o
                0x9d03c304                WaitMicroSec
                0x9d03c378                WaitMilliSec
                0x9d03c3d8                SCdrv_SendTxData
                0x9d03c534                SCdrv_GetRxData
                0x9d03c724                SCdrv_SetBRG
                0x9d03c7b0                SCdrv_CloseUART
                0x9d03c7f0                SCdrv_InitUART
                0x9d03ca90                T1Interrupt
 .text          0x9d03cb20      0x7e4 build/debug/production/src/fdxb.o
                0x9d03cb20                fdxb_get_uid
                0x9d03cb58                uid_to_fdxb_hex
                0x9d03cbcc                uid_to_fdxb_bin
                0x9d03cee4                fdxb_hex_to_uid
                0x9d03d038                fdxb_hex_to_bin

.rodata         0x9d03d304      0x7d4
 .rodata        0x9d03d304      0x7d4 /opt/microchip/xc32/v1.32/pic32mx/lib/libmchp_peripheral_32MX795F512L.a(int_tbl_lib.o)
                0x9d03d304                __IntSrcTbl
                0x9d03d820                __IntVectorTbl

.text           0x9d03dad8     0x2190
 .text          0x9d03dad8      0x790 build/debug/production/src/nvm.o
                0x9d03dad8                saveconfig
                0x9d03db54                checkconfigchanged
                0x9d03dbe0                loadconfig
                0x9d03dcb0                wipeconfig
                0x9d03dd20                showconfig
 .text          0x9d03e268      0x618 build/debug/production/src/awid.o
                0x9d03e268                bcd_to_awid26_hex
                0x9d03e2d0                awid26_hex_to_uid
                0x9d03e5d0                bcd_to_awid26_bin
                0x9d03e848                awid26_get_uid
 .text          0x9d03e880      0x598 build/debug/production/src/mcp414x.o
                0x9d03e880                send_mcp414_command
                0x9d03e99c                get_mcp414_status
                0x9d03e9f0                increment_mcp414
                0x9d03ea70                decrement_mcp414
                0x9d03eaf0                get_mcp414_wiper
                0x9d03ebb0                set_mcp414_wiper
                0x9d03ec70                show_mcp414_wipers
 .text          0x9d03ee18      0x4d8 build/debug/production/src/iso7816.o
                0x9d03ee18                send_iso_7816_apdu
                0x9d03eff0                iso_7816_send_hex_apdu
                0x9d03f22c                iso_7816_output
 .text          0x9d03f2f0      0x4c0 build/debug/production/src/em.o
                0x9d03f2f0                em4x02_get_uid
                0x9d03f328                em4x02_hex_to_uid
                0x9d03f398                hex_to_em4x02_hex
                0x9d03f400                hex_to_em4x02_bin
                0x9d03f4ec                em4x02_hex_to_bin
                0x9d03f604                bin_to_em4x02_bin
 .text          0x9d03f7b0      0x4b8 build/debug/production/src/led.o
                0x9d03f7b0                led_get
                0x9d03f8f8                led_set
                0x9d03fb80                led_toggle
                0x9d03fbe0                led_on
                0x9d03fc24                led_off

.text.dp32mul   0x9d03fc68      0x4b8
 .text.dp32mul  0x9d03fc68      0x4b8 /opt/microchip/xc32/v1.32/bin/bin/../../lib/gcc/pic32mx/4.5.2/../../../../pic32mx/lib/libm.a(dp32div.o)
                0x9d03fc68                __divdf3
                0x9d03fc68                dpdiv

.text           0x9d040120     0x1580
 .text          0x9d040120      0x460 build/debug/production/src/indala.o
                0x9d040120                send_indala_raw
                0x9d040440                indala64_get_uid
                0x9d040478                indala64_hex_to_uid
                0x9d0404e0                indala224_get_uid
                0x9d040518                indala224_hex_to_uid
 .text          0x9d040580      0x45c /opt/microchip/xc32/v1.32/bin/bin/../../lib/gcc/pic32mx/4.5.2/libgcc.a(_umoddi3.o)
                0x9d040580                __umoddi3
 .text          0x9d0409dc      0x44c /opt/microchip/xc32/v1.32/bin/bin/../../lib/gcc/pic32mx/4.5.2/libgcc.a(_udivdi3.o)
                0x9d0409dc                __udivdi3
 .text          0x9d040e28      0x444 build/debug/production/src/uid.o
                0x9d040e28                get_tag_uid
                0x9d040fd8                interpret_uid
                0x9d0411e4                get_interpreted_tag_uid
 .text          0x9d04126c      0x434 build/debug/production/src/debug_pins.o
                0x9d04126c                debug_get
                0x9d041364                debug_set
                0x9d041508                debug_toggle
                0x9d041568                debug_on
                0x9d0415ac                debug_off
                0x9d0415f0                debug_show

.text.dp32subadd
                0x9d0416a0      0x430
 .text.dp32subadd
                0x9d0416a0      0x430 /opt/microchip/xc32/v1.32/bin/bin/../../lib/gcc/pic32mx/4.5.2/../../../../pic32mx/lib/libm.a(dp32subadd.o)
                0x9d0416a0                dpsub
                0x9d0416a0                __subdf3
                0x9d0416a8                dpadd
                0x9d0416a8                __adddf3

.text           0x9d041ad0      0x7d8
 .text          0x9d041ad0      0x3f4 build/debug/production/src/auto.o
                0x9d041ad0                autopot
                0x9d041c60                autorate
 .text          0x9d041ec4      0x3e4 build/debug/production/src/uart3.o
                0x9d041ec4                UART3GetBaudError
                0x9d041ef4                UART3GetChar
                0x9d041f4c                UART3Init
                0x9d041fe8                UART3IsPressed
                0x9d04202c                UART3PrintString
                0x9d04209c                UART3PutChar
                0x9d0420e8                UART3PutDec
                0x9d042264                UART3ClrError

.text.__strtod  0x9d0422a8      0x3e4
 .text.__strtod
                0x9d0422a8      0x3e4 /opt/microchip/xc32/v1.32/bin/bin/../../lib/gcc/pic32mx/4.5.2/../../../../pic32mx/lib/libm.a(__strtod.o)
                0x9d0422a8                __strtod

.rodata         0x9d04268c      0x3b8
 .rodata        0x9d04268c      0x3b8 build/debug/production/src/nvm.o

.text           0x9d042a44      0x3b0
 .text          0x9d042a44      0x3b0 build/debug/production/src/rwd.o
                0x9d042a44                rwd_set_pwm
                0x9d042af4                rwd_send
                0x9d042d50                rwd_test

.dinit          0x9d042df4      0x380
 .dinit         0x9d042df4      0x380 data_init

.text.__strtof  0x9d043174      0x360
 .text.__strtof
                0x9d043174      0x360 /opt/microchip/xc32/v1.32/bin/bin/../../lib/gcc/pic32mx/4.5.2/../../../../pic32mx/lib/libm.a(__strtof.o)
                0x9d043174                __strtof

.text           0x9d0434d4      0x6a4
 .text          0x9d0434d4      0x358 build/debug/production/src/hid.o
                0x9d0434d4                bcd_to_hid26_hex
                0x9d04353c                hid26_hex_to_uid
                0x9d043664                bcd_to_hid26_bin
                0x9d0437f4                hid26_get_uid
 .text          0x9d04382c      0x34c build/debug/production/src/emulate.o
                0x9d04382c                emulate_tag

.text.dp32mul   0x9d043b78      0x32c
 .text.dp32mul  0x9d043b78      0x32c /opt/microchip/xc32/v1.32/bin/bin/../../lib/gcc/pic32mx/4.5.2/../../../../pic32mx/lib/libm.a(dp32mul.o)
                0x9d043b78                dpmul
                0x9d043b78                __muldf3

.text           0x9d043ea4      0xb2c
 .text          0x9d043ea4      0x31c build/debug/production/src/spi.o
                0x9d043ea4                initSpiTransfer
                0x9d043f08                initSpiTransfer16
                0x9d043f64                sendSpiCommand
                0x9d044074                sendSpiCommand16
                0x9d044184                pauseSpi
 .text          0x9d0441c0      0x2bc build/debug/production/src/config.o
                0x9d0441c0                config_block_number
                0x9d044260                config_user_block
                0x9d044300                get_config_block
                0x9d044380                config_block
                0x9d044420                config_block_show
 .text          0x9d04447c      0x2b0 build/debug/production/src/unique.o
                0x9d04447c                unique_get_uid
                0x9d0444b4                unique_hex_to_uid
                0x9d0444f4                hex_to_unique_hex
                0x9d04455c                unique_hex_to_hex
                0x9d044604                hex_to_unique_bin
 .text          0x9d04472c      0x2a4 build/debug/production/src/sdcard.o
                0x9d04472c                sdcard_test

.text.scale     0x9d0449d0      0x2a0
 .text.scale    0x9d0449d0      0x2a0 /opt/microchip/xc32/v1.32/bin/bin/../../lib/gcc/pic32mx/4.5.2/../../../../pic32mx/lib/libc.a(doprnt.o)

.text.fpsubadd  0x9d044c70      0x278
 .text.fpsubadd
                0x9d044c70      0x278 /opt/microchip/xc32/v1.32/bin/bin/../../lib/gcc/pic32mx/4.5.2/../../../../pic32mx/lib/libm.a(fp32subadd.o)
                0x9d044c70                fpsub
                0x9d044c70                __subsf3
                0x9d044c78                fpadd
                0x9d044c78                __addsf3

.text.fp32div   0x9d044ee8      0x230
 .text.fp32div  0x9d044ee8      0x230 /opt/microchip/xc32/v1.32/bin/bin/../../lib/gcc/pic32mx/4.5.2/../../../../pic32mx/lib/libm.a(fp32div.o)
                0x9d044ee8                __divsf3
                0x9d044ee8                fpdiv

.rodata         0x9d045118      0x228
 .rodata        0x9d045118      0x228 build/debug/production/src/analogue.o

.text.__floatdisf
                0x9d045340      0x220
 .text.__floatdisf
                0x9d045340      0x220 /opt/microchip/xc32/v1.32/bin/bin/../../lib/gcc/pic32mx/4.5.2/../../../../pic32mx/lib/libe.a(_floatdisf.o)
                0x9d045340                __floatdisf

.text           0x9d045560      0x20c
 .text          0x9d045560      0x20c build/debug/production/src/detect.o
                0x9d045560                detect_external_clock

.rodata         0x9d04576c      0x1fc
 .rodata        0x9d04576c      0x1fc build/debug/production/src/q5.o
                0x9d0457b4                PSK_Rates

.text           0x9d045968      0x1d4
 .text          0x9d045968      0x1d4 build/debug/production/src/read.o
                0x9d045968                read_tag

.text.__ldexp   0x9d045b3c      0x1d4
 .text.__ldexp  0x9d045b3c      0x1d4 /opt/microchip/xc32/v1.32/bin/bin/../../lib/gcc/pic32mx/4.5.2/../../../../pic32mx/lib/libe.a(_ldexp.o)
                0x9d045b3c                __ldexp

.text.fp32mul   0x9d045d10      0x1bc
 .text.fp32mul  0x9d045d10      0x1bc /opt/microchip/xc32/v1.32/bin/bin/../../lib/gcc/pic32mx/4.5.2/../../../../pic32mx/lib/libm.a(fp32mul.o)
                0x9d045d10                fpmul
                0x9d045d10                __mulsf3

.text.fround    0x9d045ecc      0x1a4
 .text.fround   0x9d045ecc      0x1a4 /opt/microchip/xc32/v1.32/bin/bin/../../lib/gcc/pic32mx/4.5.2/../../../../pic32mx/lib/libc.a(doprnt.o)

.text           0x9d046070      0x1a0
 .text          0x9d046070      0x1a0 /opt/microchip/xc32/v1.32/bin/bin/../../lib/gcc/pic32mx/4.5.2/../../../../pic32mx/lib/libpic32.a(strcpy.o)
                0x9d046070                strcpy

.text._filbuf   0x9d046210      0x188
 .text._filbuf  0x9d046210      0x188 /opt/microchip/xc32/v1.32/bin/bin/../../lib/gcc/pic32mx/4.5.2/../../../../pic32mx/lib/libc.a(filbuf.o)
                0x9d046210                _filbuf

.text.read      0x9d046398      0x174
 .text.read     0x9d046398      0x174 /opt/microchip/xc32/v1.32/bin/bin/../../lib/gcc/pic32mx/4.5.2/../../../../pic32mx/lib/libpic32.a(read.o)
                0x9d046398                read

.text.NVMProgram
                0x9d04650c      0x16c
 .text.NVMProgram
                0x9d04650c      0x16c /opt/microchip/xc32/v1.32/pic32mx/lib/libmchp_peripheral_32MX795F512L.a(nvm_program_lib.o)
                0x9d04650c                NVMProgram

.text           0x9d046678      0x2d0
 .text          0x9d046678      0x168 /opt/microchip/xc32/v1.32/bin/bin/../../lib/gcc/pic32mx/4.5.2/../../../../pic32mx/lib/libpic32.a(memcpy.o)
                0x9d046678                memcpy
 .text          0x9d0467e0      0x168 /opt/microchip/xc32/v1.32/bin/bin/../../lib/gcc/pic32mx/4.5.2/../../../../pic32mx/lib/libpic32.a(strlen.o)
                0x9d0467e0                strlen

.text.fputc     0x9d046948      0x15c
 .text.fputc    0x9d046948      0x15c /opt/microchip/xc32/v1.32/bin/bin/../../lib/gcc/pic32mx/4.5.2/../../../../pic32mx/lib/libc.a(_fputc_simple.o)
                0x9d046948                fputc

.text.SpiChnOpen
                0x9d046aa4      0x150
 .text.SpiChnOpen
                0x9d046aa4      0x150 /opt/microchip/xc32/v1.32/pic32mx/lib/libmchp_peripheral_32MX795F512L.a(spi_chn_open_lib.o)
                0x9d046aa4                SpiChnOpen

.rodata         0x9d046bf4      0x130
 .rodata        0x9d046bf4      0x130 build/debug/production/src/mcp414x.o

.text._flsbuf   0x9d046d24      0x12c
 .text._flsbuf  0x9d046d24      0x12c /opt/microchip/xc32/v1.32/bin/bin/../../lib/gcc/pic32mx/4.5.2/../../../../pic32mx/lib/libc.a(_flsbuf_simple.o)
                0x9d046d24                _flsbuf

.text           0x9d046e50      0x120
 .text          0x9d046e50      0x120 /opt/microchip/xc32/v1.32/bin/bin/../../lib/gcc/pic32mx/4.5.2/../../../../pic32mx/lib/libpic32.a(strcmp.o)
                0x9d046e50                strcmp

.text._NVMOperation
                0x9d046f70      0x114
 .text._NVMOperation
                0x9d046f70      0x114 /opt/microchip/xc32/v1.32/pic32mx/lib/libmchp_peripheral_32MX795F512L.a(nvm_operation_lib.o)
                0x9d046f70                _NVMOperation

.text.fgetc     0x9d047084      0x108
 .text.fgetc    0x9d047084      0x108 /opt/microchip/xc32/v1.32/bin/bin/../../lib/gcc/pic32mx/4.5.2/../../../../pic32mx/lib/libc.a(fgetc.o)
                0x9d047084                fgetc

.rodata         0x9d04718c      0x104
 .rodata        0x9d04718c      0x104 /opt/microchip/xc32/v1.32/bin/bin/../../lib/gcc/pic32mx/4.5.2/../../../../pic32mx/lib/libc.a(ctype.o)
                0x9d04718c                _ctype

.text.__ldexpf  0x9d047290      0x104
 .text.__ldexpf
                0x9d047290      0x104 /opt/microchip/xc32/v1.32/bin/bin/../../lib/gcc/pic32mx/4.5.2/../../../../pic32mx/lib/libe.a(_ldexpf.o)
                0x9d047290                __ldexpf

.text.dptofp    0x9d047394      0x100
 .text.dptofp   0x9d047394      0x100 /opt/microchip/xc32/v1.32/bin/bin/../../lib/gcc/pic32mx/4.5.2/../../../../pic32mx/lib/libm.a(dptofp.o)
                0x9d047394                dptofp
                0x9d047394                __truncdfsf2

.rodata         0x9d047494      0x3a0
 .rodata        0x9d047494       0xf0 build/debug/production/_ext/71113213/SD-SPI.o
                0x9d047494                sdmmc_cmdtable
 .rodata        0x9d047584       0xec build/debug/production/src/hitag.o
 .rodata        0x9d047670       0xe8 /opt/microchip/xc32/v1.32/bin/bin/../../lib/gcc/pic32mx/4.5.2/../../../../pic32mx/lib/libc.a(doprnt.o)
 .rodata        0x9d047758       0xdc build/debug/production/src/vtag.o

.text.general_exception
                0x9d047834       0xdc
 .text.general_exception
                0x9d047834       0xdc /opt/microchip/xc32/v1.32/bin/bin/../../lib/gcc/pic32mx/4.5.2/../../../../pic32mx/lib/libpic32.a(general-exception.o)
                0x9d047834                _general_exception_context

.rodata         0x9d047910       0xd4
 .rodata        0x9d047910       0xd4 build/debug/production/src/usb_descriptors.o
                0x9d047910                device_dsc
                0x9d047924                configDescriptor1
                0x9d047968                sd000
                0x9d04796c                sd001
                0x9d0479a0                sd002
                0x9d0479d4                USB_CD_Ptr
                0x9d0479d8                USB_SD_Ptr

.text           0x9d0479e4       0xd4
 .text          0x9d0479e4       0xd4 /opt/microchip/xc32/v1.32/bin/bin/../../lib/gcc/pic32mx/4.5.2/libgcc.a(_floatundisf.o)
                0x9d0479e4                __floatundisf

.rodata         0x9d047ab8      0x198
 .rodata        0x9d047ab8       0xd0 /opt/microchip/xc32/v1.32/bin/bin/../../lib/gcc/pic32mx/4.5.2/../../../../pic32mx/lib/libc.a(doprnt_cdnopuxX.eo)
 .rodata        0x9d047b88       0xc8 build/debug/production/src/tags.o

.text.SpiChnClose
                0x9d047c50       0xbc
 .text.SpiChnClose
                0x9d047c50       0xbc /opt/microchip/xc32/v1.32/pic32mx/lib/libmchp_peripheral_32MX795F512L.a(spi_chn_close_lib.o)
                0x9d047c50                SpiChnClose

.text           0x9d047d0c       0xb8
 .text          0x9d047d0c       0xb8 build/debug/production/src/write.o
                0x9d047d0c                write_tag

.text._mon_putc
                0x9d047dc4       0xb4
 .text._mon_putc
                0x9d047dc4       0xb4 /opt/microchip/xc32/v1.32/bin/bin/../../lib/gcc/pic32mx/4.5.2/../../../../pic32mx/lib/libpic32.a(_mon_putc.o)
                0x9d047dc4                _mon_putc

.text.fptodp    0x9d047e78       0xac
 .text.fptodp   0x9d047e78       0xac /opt/microchip/xc32/v1.32/bin/bin/../../lib/gcc/pic32mx/4.5.2/../../../../pic32mx/lib/libm.a(fptodp.o)
                0x9d047e78                __extendsfdf2
                0x9d047e78                fptodp

.text           0x9d047f24       0xa8
 .text          0x9d047f24       0xa8 /opt/microchip/xc32/v1.32/bin/bin/../../lib/gcc/pic32mx/4.5.2/../../../../pic32mx/lib/libpic32.a(memset.o)
                0x9d047f24                memset

.text.atoi      0x9d047fcc       0xa8
 .text.atoi     0x9d047fcc       0xa8 /opt/microchip/xc32/v1.32/bin/bin/../../lib/gcc/pic32mx/4.5.2/../../../../pic32mx/lib/libc.a(atoi.o)
                0x9d047fcc                atoi

.rodata         0x9d048074       0xa4
 .rodata        0x9d048074       0xa4 build/debug/production/src/util.o
                0x9d048074                TimeScaler
                0x9d048078                TimeScaler2

.text           0x9d048118      0x144
 .text          0x9d048118       0xa4 build/debug/production/src/select.o
                0x9d048118                select_tag
 .text          0x9d0481bc       0xa0 build/debug/production/src/login.o
                0x9d0481bc                tag_login

.rodata         0x9d04825c       0xa0
 .rodata        0x9d04825c       0xa0 /opt/microchip/xc32/v1.32/pic32mx/lib/libmchp_peripheral_32MX795F512L.a(spi_io_tbl_libp.o)
                0x9d04825c                _SpiIoTbl

.text.range     0x9d0482fc      0x140
 .text.range    0x9d0482fc       0xa0 /opt/microchip/xc32/v1.32/bin/bin/../../lib/gcc/pic32mx/4.5.2/../../../../pic32mx/lib/libc.a(doscan_cdfFnopsuxX.eo)
 .text.range    0x9d04839c       0xa0 /opt/microchip/xc32/v1.32/bin/bin/../../lib/gcc/pic32mx/4.5.2/../../../../pic32mx/lib/libc.a(doscan_cdnopuxX.eo)

.text.fpcmp     0x9d04843c       0x9c
 .text.fpcmp    0x9d04843c       0x9c /opt/microchip/xc32/v1.32/bin/bin/../../lib/gcc/pic32mx/4.5.2/../../../../pic32mx/lib/libm.a(fpcmp.o)
                0x9d04843c                __ltsf2
                0x9d04843c                __eqsf2
                0x9d04843c                __lesf2
                0x9d04843c                __gtsf2
                0x9d04843c                __nesf2
                0x9d04843c                fpcmp
                0x9d04843c                __gesf2

.text           0x9d0484d8       0x98
 .text          0x9d0484d8       0x98 /opt/microchip/xc32/v1.32/bin/bin/../../lib/gcc/pic32mx/4.5.2/../../../../pic32mx/lib/libpic32.a(memcmp.o)
                0x9d0484d8                memcmp

.text.rand      0x9d048570       0x98
 .text.rand     0x9d048570       0x98 /opt/microchip/xc32/v1.32/bin/bin/../../lib/gcc/pic32mx/4.5.2/../../../../pic32mx/lib/libc.a(rand.o)
                0x9d048570                rand

.rodata         0x9d048608       0x94
 .rodata        0x9d048608       0x94 build/debug/production/src/sdcard.o

.text.fflush    0x9d04869c       0x94
 .text.fflush   0x9d04869c       0x94 /opt/microchip/xc32/v1.32/bin/bin/../../lib/gcc/pic32mx/4.5.2/../../../../pic32mx/lib/libc.a(fflush.o)
                0x9d04869c                fflush

.text.write     0x9d048730       0x94
 .text.write    0x9d048730       0x94 /opt/microchip/xc32/v1.32/bin/bin/../../lib/gcc/pic32mx/4.5.2/../../../../pic32mx/lib/libpic32.a(write.o)
                0x9d048730                write

.text.libm      0x9d0487c4       0x88
 .text.libm     0x9d0487c4       0x88 /opt/microchip/xc32/v1.32/bin/bin/../../lib/gcc/pic32mx/4.5.2/../../../../pic32mx/lib/libm.a(fpfrexp.o)
                0x9d0487c4                fpfrexp
                0x9d0487c4                frexpf

.rodata         0x9d04884c      0x104
 .rodata        0x9d04884c       0x84 build/debug/production/src/clock.o
 .rodata        0x9d0488d0       0x80 /opt/microchip/xc32/v1.32/pic32mx/lib/libmchp_peripheral_32MX795F512L.a(spi_brg_tbl_lib_legacy.o)
                0x9d0488d0                _SpiBrgConvTbl

.text.fptoli    0x9d048950       0x80
 .text.fptoli   0x9d048950       0x80 /opt/microchip/xc32/v1.32/bin/bin/../../lib/gcc/pic32mx/4.5.2/../../../../pic32mx/lib/libm.a(fptoli.o)
                0x9d048950                __fixsfsi
                0x9d048950                fptoli
                0x9d048950                fptosi

.text.fptoul    0x9d0489d0       0x7c
 .text.fptoul   0x9d0489d0       0x7c /opt/microchip/xc32/v1.32/bin/bin/../../lib/gcc/pic32mx/4.5.2/../../../../pic32mx/lib/libm.a(fptoul.o)
                0x9d0489d0                __fixunssfsi
                0x9d0489d0                fptoul
                0x9d0489d0                fptoui

.text.SoftReset
                0x9d048a4c       0x78
 .text.SoftReset
                0x9d048a4c       0x78 /opt/microchip/xc32/v1.32/pic32mx/lib/libmchp_peripheral_32MX795F512L.a(soft_reset_lib.o)
                0x9d048a4c                SoftReset

.text.strncmp   0x9d048ac4       0x78
 .text.strncmp  0x9d048ac4       0x78 /opt/microchip/xc32/v1.32/bin/bin/../../lib/gcc/pic32mx/4.5.2/../../../../pic32mx/lib/libc.a(strncmp.o)
                0x9d048ac4                strncmp

.text.litodp    0x9d048b3c       0x78
 .text.litodp   0x9d048b3c       0x78 /opt/microchip/xc32/v1.32/bin/bin/../../lib/gcc/pic32mx/4.5.2/../../../../pic32mx/lib/libm.a(litodp.o)
                0x9d048b3c                litodp
                0x9d048b3c                __floatsidf

.text.ungetc    0x9d048bb4       0x74
 .text.ungetc   0x9d048bb4       0x74 /opt/microchip/xc32/v1.32/bin/bin/../../lib/gcc/pic32mx/4.5.2/../../../../pic32mx/lib/libc.a(ungetc.o)
                0x9d048bb4                ungetc

.text           0x9d048c28       0x6c
 .text          0x9d048c28       0x6c build/debug/production/src/auth.o
                0x9d048c28                tag_auth

.rodata         0x9d048c94       0x68
 .rodata        0x9d048c94       0x68 build/debug/production/src/wiegand.o

.text._sprintf_cdnopuxX
                0x9d048cfc       0x68
 .text._sprintf_cdnopuxX
                0x9d048cfc       0x68 /opt/microchip/xc32/v1.32/bin/bin/../../lib/gcc/pic32mx/4.5.2/../../../../pic32mx/lib/libc.a(sprintf_cdnopuxX.eo)
                0x9d048cfc                _sprintf_cdnopuxX

.text.sprintf   0x9d048d64       0x68
 .text.sprintf  0x9d048d64       0x68 /opt/microchip/xc32/v1.32/bin/bin/../../lib/gcc/pic32mx/4.5.2/../../../../pic32mx/lib/libc.a(sprintf.o)
                0x9d048d64                sprintf

.rodata         0x9d048dcc       0xcc
 .rodata        0x9d048dcc       0x68 /opt/microchip/xc32/v1.32/bin/bin/../../lib/gcc/pic32mx/4.5.2/../../../../pic32mx/lib/libc.a(powersf.o)
                0x9d048dcc                _powers_f
                0x9d048e00                _npowers_f
 .rodata        0x9d048e34       0x64 build/debug/production/src/auto.o

.text.OpenSPI1  0x9d048e98       0x60
 .text.OpenSPI1
                0x9d048e98       0x60 /opt/microchip/xc32/v1.32/pic32mx/lib/libmchp_peripheral_32MX795F512L.a(spi_open_spi1_lib_legacy.o)
                0x9d048e98                OpenSPI1

.text.wspace    0x9d048ef8       0xc0
 .text.wspace   0x9d048ef8       0x60 /opt/microchip/xc32/v1.32/bin/bin/../../lib/gcc/pic32mx/4.5.2/../../../../pic32mx/lib/libc.a(doscan_cdfFnopsuxX.eo)
 .text.wspace   0x9d048f58       0x60 /opt/microchip/xc32/v1.32/bin/bin/../../lib/gcc/pic32mx/4.5.2/../../../../pic32mx/lib/libc.a(doscan_cdnopuxX.eo)

.text.sitofp    0x9d048fb8       0x60
 .text.sitofp   0x9d048fb8       0x60 /opt/microchip/xc32/v1.32/bin/bin/../../lib/gcc/pic32mx/4.5.2/../../../../pic32mx/lib/libm.a(sitofp.o)
                0x9d048fb8                __floatsisf
                0x9d048fb8                sitofp
                0x9d048fb8                litofp

.text.strncpy   0x9d049018       0x58
 .text.strncpy  0x9d049018       0x58 /opt/microchip/xc32/v1.32/bin/bin/../../lib/gcc/pic32mx/4.5.2/../../../../pic32mx/lib/libc.a(strncpy.o)
                0x9d049018                strncpy

.rodata         0x9d049070       0x54
 .rodata        0x9d049070       0x54 /opt/microchip/xc32/v1.32/pic32mx/lib/libmchp_peripheral_32MX795F512L.a(_ports_tbl_libp.o)
                0x9d049070                PortRegTbl

.text._sscanf_cdfFnopsuxX
                0x9d0490c4       0x54
 .text._sscanf_cdfFnopsuxX
                0x9d0490c4       0x54 /opt/microchip/xc32/v1.32/bin/bin/../../lib/gcc/pic32mx/4.5.2/../../../../pic32mx/lib/libc.a(sscanf_cdfFnopsuxX.eo)
                0x9d0490c4                _sscanf_cdfFnopsuxX
                0x9d0490c4                _sscanf_cdnopuxX

.text.INTEnable
                0x9d049118       0x50
 .text.INTEnable
                0x9d049118       0x50 /opt/microchip/xc32/v1.32/pic32mx/lib/libmchp_peripheral_32MX795F512L.a(int_tbl_lib.o)
                0x9d049118                INTEnable

.text.main_entry
                0x9d049168       0x4c
 .text.main_entry
                0x9d049168       0x4c /opt/microchip/xc32/v1.32/bin/bin/../../lib/gcc/pic32mx/4.5.2/../../../../pic32mx/lib/./proc/32MX795F512L/crt0_mips32r2.o
                0x9d049194                __crt0_exit

.rodata         0x9d0491b4       0x4c
 .rodata        0x9d0491b4       0x4c build/debug/production/src/comms.o

.text           0x9d049200       0x4c
 .text          0x9d049200       0x4c /opt/microchip/xc32/v1.32/bin/bin/../../lib/gcc/pic32mx/4.5.2/libgcc.a(floatunsisf.o)
                0x9d049200                __floatunsisf

.text._bootstrap_exception_handler
                0x9d04924c       0x48
 .text._bootstrap_exception_handler
                0x9d04924c       0x48 /opt/microchip/xc32/v1.32/bin/bin/../../lib/gcc/pic32mx/4.5.2/../../../../pic32mx/lib/libpic32.a(default-bootstrap-exception-handler.o)
                0x9d04924c                _bootstrap_exception_handler

.text._general_exception_handler
                0x9d049294       0x48
 .text._general_exception_handler
                0x9d049294       0x48 /opt/microchip/xc32/v1.32/bin/bin/../../lib/gcc/pic32mx/4.5.2/../../../../pic32mx/lib/libpic32.a(default-general-exception-handler.o)
                0x9d049294                _general_exception_handler

.rodata         0x9d0492dc       0x48
 .rodata        0x9d0492dc       0x48 /opt/microchip/xc32/v1.32/bin/bin/../../lib/gcc/pic32mx/4.5.2/../../../../pic32mx/lib/libm.a(__strtod.o)

.text           0x9d049324       0xcc
 .text          0x9d049324       0x44 /opt/microchip/xc32/v1.32/bin/bin/../../lib/gcc/pic32mx/4.5.2/../../../../pic32mx/lib/pic32_software_reset.o
                0x9d049324                __pic32_software_reset
 .text          0x9d049368       0x44 /opt/microchip/xc32/v1.32/bin/bin/../../lib/gcc/pic32mx/4.5.2/libgcc.a(_lshrdi3.o)
                0x9d049368                __lshrdi3
 .text          0x9d0493ac       0x44 /opt/microchip/xc32/v1.32/bin/bin/../../lib/gcc/pic32mx/4.5.2/libgcc.a(_ashldi3.o)
                0x9d0493ac                __ashldi3

.rodata         0x9d0493f0       0x80
 .rodata        0x9d0493f0       0x40 build/debug/production/src/hid.o
 .rodata        0x9d049430       0x40 build/debug/production/src/awid.o

.text.PORTSetPinsDigitalIn
                0x9d049470       0x3c
 .text.PORTSetPinsDigitalIn
                0x9d049470       0x3c /opt/microchip/xc32/v1.32/pic32mx/lib/libmchp_peripheral_32MX795F512L.a(port_set_pins_digital_in_lib.o)
                0x9d049470                PORTSetPinsDigitalIn

.text.PORTSetPinsDigitalOut
                0x9d0494ac       0x3c
 .text.PORTSetPinsDigitalOut
                0x9d0494ac       0x3c /opt/microchip/xc32/v1.32/pic32mx/lib/libmchp_peripheral_32MX795F512L.a(port_set_pins_digital_out_lib.o)
                0x9d0494ac                PORTSetPinsDigitalOut

.text.INTSetVectorPriority
                0x9d0494e8       0x38
 .text.INTSetVectorPriority
                0x9d0494e8       0x38 /opt/microchip/xc32/v1.32/pic32mx/lib/libmchp_peripheral_32MX795F512L.a(int_tbl_lib.o)
                0x9d0494e8                INTSetVectorPriority

.text.INTSetVectorSubPriority
                0x9d049520       0x38
 .text.INTSetVectorSubPriority
                0x9d049520       0x38 /opt/microchip/xc32/v1.32/pic32mx/lib/libmchp_peripheral_32MX795F512L.a(int_tbl_lib.o)
                0x9d049520                INTSetVectorSubPriority

.text.NVMWriteRow
                0x9d049558       0x38
 .text.NVMWriteRow
                0x9d049558       0x38 /opt/microchip/xc32/v1.32/pic32mx/lib/libmchp_peripheral_32MX795F512L.a(nvm_write_row_lib.o)
                0x9d049558                NVMWriteRow

.vector_default
                0x9d049590       0x38
 .vector_default
                0x9d049590       0x38 /opt/microchip/xc32/v1.32/bin/bin/../../lib/gcc/pic32mx/4.5.2/../../../../pic32mx/lib/libpic32.a(defaultinterrupt.o)
                0x9d049590                _DefaultInterrupt

.text.INTEnableSystemMultiVectoredInt
                0x9d0495c8       0x34
 .text.INTEnableSystemMultiVectoredInt
                0x9d0495c8       0x34 /opt/microchip/xc32/v1.32/pic32mx/lib/libmchp_peripheral_32MX795F512L.a(int_enable_mv_int_lib.o)
                0x9d0495c8                INTEnableSystemMultiVectoredInt

.text.INTConfigureSystem
                0x9d0495fc       0x30
 .text.INTConfigureSystem
                0x9d0495fc       0x30 /opt/microchip/xc32/v1.32/pic32mx/lib/libmchp_peripheral_32MX795F512L.a(int_configure_system_lib.o)
                0x9d0495fc                INTConfigureSystem

.text.INTGetVectorPriority
                0x9d04962c       0x2c
 .text.INTGetVectorPriority
                0x9d04962c       0x2c /opt/microchip/xc32/v1.32/pic32mx/lib/libmchp_peripheral_32MX795F512L.a(int_tbl_lib.o)
                0x9d04962c                INTGetVectorPriority

.text.INTGetVectorSubPriority
                0x9d049658       0x2c
 .text.INTGetVectorSubPriority
                0x9d049658       0x2c /opt/microchip/xc32/v1.32/pic32mx/lib/libmchp_peripheral_32MX795F512L.a(int_tbl_lib.o)
                0x9d049658                INTGetVectorSubPriority

.text.NVMErasePage
                0x9d049684       0x2c
 .text.NVMErasePage
                0x9d049684       0x2c /opt/microchip/xc32/v1.32/pic32mx/lib/libmchp_peripheral_32MX795F512L.a(nvm_erase_page_lib.o)
                0x9d049684                NVMErasePage

.text.INTClearFlag
                0x9d0496b0       0x28
 .text.INTClearFlag
                0x9d0496b0       0x28 /opt/microchip/xc32/v1.32/pic32mx/lib/libmchp_peripheral_32MX795F512L.a(int_tbl_lib.o)
                0x9d0496b0                INTClearFlag

.text.INTSetFlag
                0x9d0496d8       0x28
 .text.INTSetFlag
                0x9d0496d8       0x28 /opt/microchip/xc32/v1.32/pic32mx/lib/libmchp_peripheral_32MX795F512L.a(int_tbl_lib.o)
                0x9d0496d8                INTSetFlag

.text.INTGetFlag
                0x9d049700       0x28
 .text.INTGetFlag
                0x9d049700       0x28 /opt/microchip/xc32/v1.32/pic32mx/lib/libmchp_peripheral_32MX795F512L.a(int_tbl_lib.o)
                0x9d049700                INTGetFlag

.text.INTGetEnable
                0x9d049728       0x28
 .text.INTGetEnable
                0x9d049728       0x28 /opt/microchip/xc32/v1.32/pic32mx/lib/libmchp_peripheral_32MX795F512L.a(int_tbl_lib.o)
                0x9d049728                INTGetEnable

.text.PORTResetPins
                0x9d049750       0x28
 .text.PORTResetPins
                0x9d049750       0x28 /opt/microchip/xc32/v1.32/pic32mx/lib/libmchp_peripheral_32MX795F512L.a(port_reset_pins_lib.o)
                0x9d049750                PORTResetPins

.text.strtod    0x9d049778       0x28
 .text.strtod   0x9d049778       0x28 /opt/microchip/xc32/v1.32/bin/bin/../../lib/gcc/pic32mx/4.5.2/../../../../pic32mx/lib/libc.a(strtod.o)
                0x9d049778                strtod

.text.tolower   0x9d0497a0       0x24
 .text.tolower  0x9d0497a0       0x24 /opt/microchip/xc32/v1.32/bin/bin/../../lib/gcc/pic32mx/4.5.2/../../../../pic32mx/lib/libc.a(ctypef.o)
                0x9d0497a0                tolower

.text.toupper   0x9d0497c4       0x24
 .text.toupper  0x9d0497c4       0x24 /opt/microchip/xc32/v1.32/bin/bin/../../lib/gcc/pic32mx/4.5.2/../../../../pic32mx/lib/libc.a(ctypef.o)
                0x9d0497c4                toupper

.rodata         0x9d0497e8       0x20
 .rodata        0x9d0497e8       0x20 build/debug/production/src/debug_pins.o

.text.getcSPI1  0x9d049808       0x20
 .text.getcSPI1
                0x9d049808       0x20 /opt/microchip/xc32/v1.32/pic32mx/lib/libmchp_peripheral_32MX795F512L.a(spi_getc_spi1_lib_legacy.o)
                0x9d049808                getcSPI1

.rodata         0x9d049828       0x1c
 .rodata        0x9d049828       0x1c build/debug/production/src/detect.o

.text.INTRestoreInterrupts
                0x9d049844       0x1c
 .text.INTRestoreInterrupts
                0x9d049844       0x1c /opt/microchip/xc32/v1.32/pic32mx/lib/libmchp_peripheral_32MX795F512L.a(int_restore_interrupts_lib.o)
                0x9d049844                INTRestoreInterrupts

.text.srand     0x9d049860       0x1c
 .text.srand    0x9d049860       0x1c /opt/microchip/xc32/v1.32/bin/bin/../../lib/gcc/pic32mx/4.5.2/../../../../pic32mx/lib/libc.a(rand.o)
                0x9d049860                srand

.text._dstrtod  0x9d04987c       0x1c
 .text._dstrtod
                0x9d04987c       0x1c /opt/microchip/xc32/v1.32/bin/bin/../../lib/gcc/pic32mx/4.5.2/../../../../pic32mx/lib/libc.a(strtod.o)
                0x9d04987c                _dstrtod

.text.strtof    0x9d049898       0x1c
 .text.strtof   0x9d049898       0x1c /opt/microchip/xc32/v1.32/bin/bin/../../lib/gcc/pic32mx/4.5.2/../../../../pic32mx/lib/libc.a(strtof.o)
                0x9d049898                strtof

.text.strtodf   0x9d0498b4       0x1c
 .text.strtodf  0x9d0498b4       0x1c /opt/microchip/xc32/v1.32/bin/bin/../../lib/gcc/pic32mx/4.5.2/../../../../pic32mx/lib/libc.a(strtof.o)
                0x9d0498b4                strtodf

.text.negdf2    0x9d0498d0       0x1c
 .text.negdf2   0x9d0498d0       0x1c /opt/microchip/xc32/v1.32/bin/bin/../../lib/gcc/pic32mx/4.5.2/../../../../pic32mx/lib/libm.a(negdf2.o)
                0x9d0498d0                __negdf2

.rodata         0x9d0498ec       0x18
 .rodata        0x9d0498ec       0x18 build/debug/production/src/iso7816.o

.text.CheKseg0CacheOff
                0x9d049904       0x18
 .text.CheKseg0CacheOff
                0x9d049904       0x18 /opt/microchip/xc32/v1.32/pic32mx/lib/libmchp_peripheral_32MX795F512L.a(pcache.o)
                0x9d049904                CheKseg0CacheOff

.text.CheKseg0CacheOn
                0x9d04991c       0x18
 .text.CheKseg0CacheOn
                0x9d04991c       0x18 /opt/microchip/xc32/v1.32/pic32mx/lib/libmchp_peripheral_32MX795F512L.a(pcache.o)
                0x9d04991c                CheKseg0CacheOn

.text           0x9d049934       0x18
 .text          0x9d049934       0x18 /opt/microchip/xc32/v1.32/bin/bin/../../lib/gcc/pic32mx/4.5.2/../../../../pic32mx/lib/libpic32.a(default-nmi-handler.o)
                0x9d049934                _nmi_handler

.text.isalnum   0x9d04994c       0x18
 .text.isalnum  0x9d04994c       0x18 /opt/microchip/xc32/v1.32/bin/bin/../../lib/gcc/pic32mx/4.5.2/../../../../pic32mx/lib/libc.a(ctypef.o)
                0x9d04994c                isalnum

.text.isalpha   0x9d049964       0x18
 .text.isalpha  0x9d049964       0x18 /opt/microchip/xc32/v1.32/bin/bin/../../lib/gcc/pic32mx/4.5.2/../../../../pic32mx/lib/libc.a(ctypef.o)
                0x9d049964                isalpha

.text.iscntrl   0x9d04997c       0x18
 .text.iscntrl  0x9d04997c       0x18 /opt/microchip/xc32/v1.32/bin/bin/../../lib/gcc/pic32mx/4.5.2/../../../../pic32mx/lib/libc.a(ctypef.o)
                0x9d04997c                iscntrl

.text.isdigit   0x9d049994       0x18
 .text.isdigit  0x9d049994       0x18 /opt/microchip/xc32/v1.32/bin/bin/../../lib/gcc/pic32mx/4.5.2/../../../../pic32mx/lib/libc.a(ctypef.o)
                0x9d049994                isdigit

.text.isgraph   0x9d0499ac       0x18
 .text.isgraph  0x9d0499ac       0x18 /opt/microchip/xc32/v1.32/bin/bin/../../lib/gcc/pic32mx/4.5.2/../../../../pic32mx/lib/libc.a(ctypef.o)
                0x9d0499ac                isgraph

.text.islower   0x9d0499c4       0x18
 .text.islower  0x9d0499c4       0x18 /opt/microchip/xc32/v1.32/bin/bin/../../lib/gcc/pic32mx/4.5.2/../../../../pic32mx/lib/libc.a(ctypef.o)
                0x9d0499c4                islower

.text.isprint   0x9d0499dc       0x18
 .text.isprint  0x9d0499dc       0x18 /opt/microchip/xc32/v1.32/bin/bin/../../lib/gcc/pic32mx/4.5.2/../../../../pic32mx/lib/libc.a(ctypef.o)
                0x9d0499dc                isprint

.text.ispunct   0x9d0499f4       0x18
 .text.ispunct  0x9d0499f4       0x18 /opt/microchip/xc32/v1.32/bin/bin/../../lib/gcc/pic32mx/4.5.2/../../../../pic32mx/lib/libc.a(ctypef.o)
                0x9d0499f4                ispunct

.text.isspace   0x9d049a0c       0x18
 .text.isspace  0x9d049a0c       0x18 /opt/microchip/xc32/v1.32/bin/bin/../../lib/gcc/pic32mx/4.5.2/../../../../pic32mx/lib/libc.a(ctypef.o)
                0x9d049a0c                isspace

.text.isupper   0x9d049a24       0x18
 .text.isupper  0x9d049a24       0x18 /opt/microchip/xc32/v1.32/bin/bin/../../lib/gcc/pic32mx/4.5.2/../../../../pic32mx/lib/libc.a(ctypef.o)
                0x9d049a24                isupper

.text.isxdigit  0x9d049a3c       0x18
 .text.isxdigit
                0x9d049a3c       0x18 /opt/microchip/xc32/v1.32/bin/bin/../../lib/gcc/pic32mx/4.5.2/../../../../pic32mx/lib/libc.a(ctypef.o)
                0x9d049a3c                isxdigit

.rodata         0x9d049a54       0x2c
 .rodata        0x9d049a54       0x18 /opt/microchip/xc32/v1.32/bin/bin/../../lib/gcc/pic32mx/4.5.2/../../../../pic32mx/lib/libm.a(__strtof.o)
 .rodata        0x9d049a6c       0x14 /opt/microchip/xc32/v1.32/pic32mx/lib/libmchp_peripheral_32MX795F512L.a(spi_map_tbl_libp.o)
                0x9d049a6c                _SpiMapTbl

.text.negsf2    0x9d049a80       0x14
 .text.negsf2   0x9d049a80       0x14 /opt/microchip/xc32/v1.32/bin/bin/../../lib/gcc/pic32mx/4.5.2/../../../../pic32mx/lib/libm.a(negsf2.o)
                0x9d049a80                __negsf2

.rodata         0x9d049a94       0x2c
 .rodata        0x9d049a94       0x10 build/debug/production/src/hitagcrypto.o
 .rodata        0x9d049aa4       0x10 build/debug/production/src/fdxb.o
 .rodata        0x9d049ab4        0xc build/debug/production/_ext/71113213/FSIO.o

.text.INTEnableInterrupts
                0x9d049ac0        0x8
 .text.INTEnableInterrupts
                0x9d049ac0        0x8 /opt/microchip/xc32/v1.32/pic32mx/lib/libmchp_peripheral_32MX795F512L.a(int_enable_interrupts_lib.o)
                0x9d049ac0                INTEnableInterrupts

.text.INTDisableInterrupts
                0x9d049ac8        0x8
 .text.INTDisableInterrupts
                0x9d049ac8        0x8 /opt/microchip/xc32/v1.32/pic32mx/lib/libmchp_peripheral_32MX795F512L.a(int_disable_interrupts_lib.o)
                0x9d049ac8                INTDisableInterrupts

.text._on_reset
                0x9d049ad0        0x8
 .text._on_reset
                0x9d049ad0        0x8 /opt/microchip/xc32/v1.32/bin/bin/../../lib/gcc/pic32mx/4.5.2/../../../../pic32mx/lib/libpic32.a(default-on-reset.o)
                0x9d049ad0                _on_reset

.text._on_bootstrap
                0x9d049ad8        0x8
 .text._on_bootstrap
                0x9d049ad8        0x8 /opt/microchip/xc32/v1.32/bin/bin/../../lib/gcc/pic32mx/4.5.2/../../../../pic32mx/lib/libpic32.a(default-on-bootstrap.o)
                0x9d049ad8                _on_bootstrap

.text.isascii   0x9d049ae0        0x8
 .text.isascii  0x9d049ae0        0x8 /opt/microchip/xc32/v1.32/bin/bin/../../lib/gcc/pic32mx/4.5.2/../../../../pic32mx/lib/libc.a(ctypef.o)
                0x9d049ae0                isascii

.text.toascii   0x9d049ae8        0x8
 .text.toascii  0x9d049ae8        0x8 /opt/microchip/xc32/v1.32/bin/bin/../../lib/gcc/pic32mx/4.5.2/../../../../pic32mx/lib/libc.a(ctypef.o)
                0x9d049ae8                toascii

.text._tolower  0x9d049af0        0x8
 .text._tolower
                0x9d049af0        0x8 /opt/microchip/xc32/v1.32/bin/bin/../../lib/gcc/pic32mx/4.5.2/../../../../pic32mx/lib/libc.a(ctypef.o)
                0x9d049af0                _tolower

.text._toupper  0x9d049af8        0x8
 .text._toupper
                0x9d049af8        0x8 /opt/microchip/xc32/v1.32/bin/bin/../../lib/gcc/pic32mx/4.5.2/../../../../pic32mx/lib/libc.a(ctypef.o)
                0x9d049af8                _toupper

.rodata         0x9d049b00        0x8
 .rodata        0x9d049b00        0x8 /opt/microchip/xc32/v1.32/bin/bin/../../lib/gcc/pic32mx/4.5.2/libgcc.a(_floatundisf.o)

.text%z393      0x00000000        0x0
 .text          0x00000000        0x0 /opt/microchip/xc32/v1.32/bin/bin/../../lib/gcc/pic32mx/4.5.2/../../../../pic32mx/lib/libc.a(errno.o)

.text%z394      0x00000000        0x0
 .text          0x00000000        0x0 /opt/microchip/xc32/v1.32/bin/bin/../../lib/gcc/pic32mx/4.5.2/../../../../pic32mx/lib/libe.a(_ldexpf.o)

.text%z395      0x00000000        0x0
 .text          0x00000000        0x0 /opt/microchip/xc32/v1.32/bin/bin/../../lib/gcc/pic32mx/4.5.2/../../../../pic32mx/lib/libe.a(_ldexp.o)

.text%z396      0x00000000        0x0
 .text          0x00000000        0x0 /opt/microchip/xc32/v1.32/bin/bin/../../lib/gcc/pic32mx/4.5.2/../../../../pic32mx/lib/libe.a(_floatdisf.o)

.text%z397      0x00000000        0x0
 .text          0x00000000        0x0 /opt/microchip/xc32/v1.32/bin/bin/../../lib/gcc/pic32mx/4.5.2/../../../../pic32mx/lib/libm.a(sitofp.o)

.text%z398      0x00000000        0x0
 .text          0x00000000        0x0 /opt/microchip/xc32/v1.32/bin/bin/../../lib/gcc/pic32mx/4.5.2/../../../../pic32mx/lib/libm.a(negsf2.o)

.text%z399      0x00000000        0x0
 .text          0x00000000        0x0 /opt/microchip/xc32/v1.32/bin/bin/../../lib/gcc/pic32mx/4.5.2/../../../../pic32mx/lib/libm.a(negdf2.o)

.text%z400      0x00000000        0x0
 .text          0x00000000        0x0 /opt/microchip/xc32/v1.32/bin/bin/../../lib/gcc/pic32mx/4.5.2/../../../../pic32mx/lib/libm.a(litodp.o)

.text%z401      0x00000000        0x0
 .text          0x00000000        0x0 /opt/microchip/xc32/v1.32/bin/bin/../../lib/gcc/pic32mx/4.5.2/../../../../pic32mx/lib/libm.a(dp32subadd.o)

.text%z402      0x00000000        0x0
 .text          0x00000000        0x0 /opt/microchip/xc32/v1.32/bin/bin/../../lib/gcc/pic32mx/4.5.2/../../../../pic32mx/lib/libm.a(dp32mul.o)

.text%z403      0x00000000        0x0
 .text          0x00000000        0x0 /opt/microchip/xc32/v1.32/bin/bin/../../lib/gcc/pic32mx/4.5.2/../../../../pic32mx/lib/libm.a(dp32div.o)

.text%z404      0x00000000        0x0
 .text          0x00000000        0x0 /opt/microchip/xc32/v1.32/bin/bin/../../lib/gcc/pic32mx/4.5.2/../../../../pic32mx/lib/libm.a(__strtof.o)

.text%z405      0x00000000        0x0
 .text          0x00000000        0x0 /opt/microchip/xc32/v1.32/bin/bin/../../lib/gcc/pic32mx/4.5.2/../../../../pic32mx/lib/libm.a(__strtod.o)

.text%z406      0x00000000        0x0
 .text          0x00000000        0x0 /opt/microchip/xc32/v1.32/bin/bin/../../lib/gcc/pic32mx/4.5.2/../../../../pic32mx/lib/libm.a(fptodp.o)

.text%z407      0x00000000        0x0
 .text          0x00000000        0x0 /opt/microchip/xc32/v1.32/bin/bin/../../lib/gcc/pic32mx/4.5.2/../../../../pic32mx/lib/libm.a(fpfrexp.o)

.text%z408      0x00000000        0x0
 .text          0x00000000        0x0 /opt/microchip/xc32/v1.32/bin/bin/../../lib/gcc/pic32mx/4.5.2/../../../../pic32mx/lib/libm.a(dptofp.o)

.text%z409      0x00000000        0x0
 .text          0x00000000        0x0 /opt/microchip/xc32/v1.32/bin/bin/../../lib/gcc/pic32mx/4.5.2/../../../../pic32mx/lib/libpic32.a(_mon_putc.o)

.text%z410      0x00000000        0x0
 .text          0x00000000        0x0 /opt/microchip/xc32/v1.32/bin/bin/../../lib/gcc/pic32mx/4.5.2/../../../../pic32mx/lib/libpic32.a(xc32_uart.o)

.text%z411      0x00000000        0x0
 .text          0x00000000        0x0 /opt/microchip/xc32/v1.32/bin/bin/../../lib/gcc/pic32mx/4.5.2/../../../../pic32mx/lib/libpic32.a(write.o)

.text%z412      0x00000000        0x0
 .text          0x00000000        0x0 /opt/microchip/xc32/v1.32/bin/bin/../../lib/gcc/pic32mx/4.5.2/../../../../pic32mx/lib/libpic32.a(read.o)

.text%z413      0x00000000        0x0
 .text          0x00000000        0x0 /opt/microchip/xc32/v1.32/bin/bin/../../lib/gcc/pic32mx/4.5.2/../../../../pic32mx/lib/libc.a(fflush.o)

.text%z414      0x00000000        0x0
 .text          0x00000000        0x0 /opt/microchip/xc32/v1.32/bin/bin/../../lib/gcc/pic32mx/4.5.2/../../../../pic32mx/lib/libc.a(_flsbuf_simple.o)

.text%z415      0x00000000        0x0
 .text          0x00000000        0x0 /opt/microchip/xc32/v1.32/bin/bin/../../lib/gcc/pic32mx/4.5.2/../../../../pic32mx/lib/libc.a(filbuf.o)

.text%z416      0x00000000        0x0
 .text          0x00000000        0x0 /opt/microchip/xc32/v1.32/bin/bin/../../lib/gcc/pic32mx/4.5.2/../../../../pic32mx/lib/libc.a(_iob.o)

.text%z417      0x00000000        0x0
 .text          0x00000000        0x0 /opt/microchip/xc32/v1.32/bin/bin/../../lib/gcc/pic32mx/4.5.2/../../../../pic32mx/lib/libc.a(ungetc.o)

.text%z418      0x00000000        0x0
 .text          0x00000000        0x0 /opt/microchip/xc32/v1.32/bin/bin/../../lib/gcc/pic32mx/4.5.2/../../../../pic32mx/lib/libc.a(strtof.o)

.text%z419      0x00000000        0x0
 .text          0x00000000        0x0 /opt/microchip/xc32/v1.32/bin/bin/../../lib/gcc/pic32mx/4.5.2/../../../../pic32mx/lib/libc.a(strtod.o)

.text%z420      0x00000000        0x0
 .text          0x00000000        0x0 /opt/microchip/xc32/v1.32/bin/bin/../../lib/gcc/pic32mx/4.5.2/../../../../pic32mx/lib/libc.a(powersf.o)

.text%z421      0x00000000        0x0
 .text          0x00000000        0x0 /opt/microchip/xc32/v1.32/bin/bin/../../lib/gcc/pic32mx/4.5.2/../../../../pic32mx/lib/libc.a(atoi.o)

.text%z422      0x00000000        0x0
 .text          0x00000000        0x0 /opt/microchip/xc32/v1.32/bin/bin/../../lib/gcc/pic32mx/4.5.2/../../../../pic32mx/lib/libc.a(_fputc_simple.o)

.text%z423      0x00000000        0x0
 .text          0x00000000        0x0 /opt/microchip/xc32/v1.32/bin/bin/../../lib/gcc/pic32mx/4.5.2/../../../../pic32mx/lib/libc.a(fgetc.o)

.text%z424      0x00000000        0x0
 .text          0x00000000        0x0 /opt/microchip/xc32/v1.32/bin/bin/../../lib/gcc/pic32mx/4.5.2/../../../../pic32mx/lib/libc.a(doscan_cdnopuxX.eo)

.text%z425      0x00000000        0x0
 .text          0x00000000        0x0 /opt/microchip/xc32/v1.32/bin/bin/../../lib/gcc/pic32mx/4.5.2/../../../../pic32mx/lib/libc.a(doscan_cdfFnopsuxX.eo)

.text%z426      0x00000000        0x0
 .text          0x00000000        0x0 /opt/microchip/xc32/v1.32/bin/bin/../../lib/gcc/pic32mx/4.5.2/../../../../pic32mx/lib/libc.a(doprnt.o)

.text%z427      0x00000000        0x0
 .text          0x00000000        0x0 /opt/microchip/xc32/v1.32/bin/bin/../../lib/gcc/pic32mx/4.5.2/../../../../pic32mx/lib/libc.a(doprnt_cdnopuxX.eo)

.text%z428      0x00000000        0x0
 .text          0x00000000        0x0 /opt/microchip/xc32/v1.32/bin/bin/../../lib/gcc/pic32mx/4.5.2/../../../../pic32mx/lib/libc.a(ctype.o)

.text%z429      0x00000000        0x0
 .text          0x00000000        0x0 /opt/microchip/xc32/v1.32/bin/bin/../../lib/gcc/pic32mx/4.5.2/../../../../pic32mx/lib/libc.a(sscanf_cdfFnopsuxX.eo)

.text%z430      0x00000000        0x0
 .text          0x00000000        0x0 /opt/microchip/xc32/v1.32/bin/bin/../../lib/gcc/pic32mx/4.5.2/../../../../pic32mx/lib/libc.a(sprintf.o)

.text%z431      0x00000000        0x0
 .text          0x00000000        0x0 /opt/microchip/xc32/v1.32/bin/bin/../../lib/gcc/pic32mx/4.5.2/../../../../pic32mx/lib/libc.a(sprintf_cdnopuxX.eo)

.text%z432      0x00000000        0x0
 .text          0x00000000        0x0 /opt/microchip/xc32/v1.32/bin/bin/../../lib/gcc/pic32mx/4.5.2/../../../../pic32mx/lib/libc.a(strncpy.o)

.text%z433      0x00000000        0x0
 .text          0x00000000        0x0 /opt/microchip/xc32/v1.32/bin/bin/../../lib/gcc/pic32mx/4.5.2/../../../../pic32mx/lib/libc.a(strncmp.o)

.text%z434      0x00000000        0x0
 .text          0x00000000        0x0 /opt/microchip/xc32/v1.32/bin/bin/../../lib/gcc/pic32mx/4.5.2/../../../../pic32mx/lib/libc.a(rand.o)

.text%z435      0x00000000        0x0
 .text          0x00000000        0x0 /opt/microchip/xc32/v1.32/bin/bin/../../lib/gcc/pic32mx/4.5.2/../../../../pic32mx/lib/libc.a(ctypef.o)

.text%z436      0x00000000        0x0
 .text          0x00000000        0x0 /opt/microchip/xc32/v1.32/bin/bin/../../lib/gcc/pic32mx/4.5.2/../../../../pic32mx/lib/libm.a(fptoul.o)

.text%z437      0x00000000        0x0
 .text          0x00000000        0x0 /opt/microchip/xc32/v1.32/bin/bin/../../lib/gcc/pic32mx/4.5.2/../../../../pic32mx/lib/libm.a(fptoli.o)

.text%z438      0x00000000        0x0
 .text          0x00000000        0x0 /opt/microchip/xc32/v1.32/bin/bin/../../lib/gcc/pic32mx/4.5.2/../../../../pic32mx/lib/libm.a(fpcmp.o)

.text%z439      0x00000000        0x0
 .text          0x00000000        0x0 /opt/microchip/xc32/v1.32/bin/bin/../../lib/gcc/pic32mx/4.5.2/../../../../pic32mx/lib/libm.a(fp32subadd.o)

.text%z440      0x00000000        0x0
 .text          0x00000000        0x0 /opt/microchip/xc32/v1.32/bin/bin/../../lib/gcc/pic32mx/4.5.2/../../../../pic32mx/lib/libm.a(fp32mul.o)

.text%z441      0x00000000        0x0
 .text          0x00000000        0x0 /opt/microchip/xc32/v1.32/bin/bin/../../lib/gcc/pic32mx/4.5.2/../../../../pic32mx/lib/libm.a(fp32div.o)

.text%z442      0x00000000        0x0
 .text          0x00000000        0x0 /opt/microchip/xc32/v1.32/bin/bin/../../lib/gcc/pic32mx/4.5.2/../../../../pic32mx/lib/libpic32.a(defaultinterrupt.o)

.text%z443      0x00000000        0x0
 .text          0x00000000        0x0 /opt/microchip/xc32/v1.32/bin/bin/../../lib/gcc/pic32mx/4.5.2/../../../../pic32mx/lib/libpic32.a(default-general-exception-handler.o)

.text%z444      0x00000000        0x0
 .text          0x00000000        0x0 /opt/microchip/xc32/v1.32/bin/bin/../../lib/gcc/pic32mx/4.5.2/../../../../pic32mx/lib/libpic32.a(vector63.o)

.text%z445      0x00000000        0x0
 .text          0x00000000        0x0 /opt/microchip/xc32/v1.32/bin/bin/../../lib/gcc/pic32mx/4.5.2/../../../../pic32mx/lib/libpic32.a(vector62.o)

.text%z446      0x00000000        0x0
 .text          0x00000000        0x0 /opt/microchip/xc32/v1.32/bin/bin/../../lib/gcc/pic32mx/4.5.2/../../../../pic32mx/lib/libpic32.a(vector61.o)

.text%z447      0x00000000        0x0
 .text          0x00000000        0x0 /opt/microchip/xc32/v1.32/bin/bin/../../lib/gcc/pic32mx/4.5.2/../../../../pic32mx/lib/libpic32.a(vector60.o)

.text%z448      0x00000000        0x0
 .text          0x00000000        0x0 /opt/microchip/xc32/v1.32/bin/bin/../../lib/gcc/pic32mx/4.5.2/../../../../pic32mx/lib/libpic32.a(vector59.o)

.text%z449      0x00000000        0x0
 .text          0x00000000        0x0 /opt/microchip/xc32/v1.32/bin/bin/../../lib/gcc/pic32mx/4.5.2/../../../../pic32mx/lib/libpic32.a(vector58.o)

.text%z450      0x00000000        0x0
 .text          0x00000000        0x0 /opt/microchip/xc32/v1.32/bin/bin/../../lib/gcc/pic32mx/4.5.2/../../../../pic32mx/lib/libpic32.a(vector57.o)

.text%z451      0x00000000        0x0
 .text          0x00000000        0x0 /opt/microchip/xc32/v1.32/bin/bin/../../lib/gcc/pic32mx/4.5.2/../../../../pic32mx/lib/libpic32.a(vector56.o)

.text%z452      0x00000000        0x0
 .text          0x00000000        0x0 /opt/microchip/xc32/v1.32/bin/bin/../../lib/gcc/pic32mx/4.5.2/../../../../pic32mx/lib/libpic32.a(vector55.o)

.text%z453      0x00000000        0x0
 .text          0x00000000        0x0 /opt/microchip/xc32/v1.32/bin/bin/../../lib/gcc/pic32mx/4.5.2/../../../../pic32mx/lib/libpic32.a(vector54.o)

.text%z454      0x00000000        0x0
 .text          0x00000000        0x0 /opt/microchip/xc32/v1.32/bin/bin/../../lib/gcc/pic32mx/4.5.2/../../../../pic32mx/lib/libpic32.a(vector53.o)

.text%z455      0x00000000        0x0
 .text          0x00000000        0x0 /opt/microchip/xc32/v1.32/bin/bin/../../lib/gcc/pic32mx/4.5.2/../../../../pic32mx/lib/libpic32.a(vector52.o)

.text%z456      0x00000000        0x0
 .text          0x00000000        0x0 /opt/microchip/xc32/v1.32/bin/bin/../../lib/gcc/pic32mx/4.5.2/../../../../pic32mx/lib/libpic32.a(vector51.o)

.text%z457      0x00000000        0x0
 .text          0x00000000        0x0 /opt/microchip/xc32/v1.32/bin/bin/../../lib/gcc/pic32mx/4.5.2/../../../../pic32mx/lib/libpic32.a(vector50.o)

.text%z458      0x00000000        0x0
 .text          0x00000000        0x0 /opt/microchip/xc32/v1.32/bin/bin/../../lib/gcc/pic32mx/4.5.2/../../../../pic32mx/lib/libpic32.a(vector49.o)

.text%z459      0x00000000        0x0
 .text          0x00000000        0x0 /opt/microchip/xc32/v1.32/bin/bin/../../lib/gcc/pic32mx/4.5.2/../../../../pic32mx/lib/libpic32.a(vector48.o)

.text%z460      0x00000000        0x0
 .text          0x00000000        0x0 /opt/microchip/xc32/v1.32/bin/bin/../../lib/gcc/pic32mx/4.5.2/../../../../pic32mx/lib/libpic32.a(vector47.o)

.text%z461      0x00000000        0x0
 .text          0x00000000        0x0 /opt/microchip/xc32/v1.32/bin/bin/../../lib/gcc/pic32mx/4.5.2/../../../../pic32mx/lib/libpic32.a(vector46.o)

.text%z462      0x00000000        0x0
 .text          0x00000000        0x0 /opt/microchip/xc32/v1.32/bin/bin/../../lib/gcc/pic32mx/4.5.2/../../../../pic32mx/lib/libpic32.a(vector44.o)

.text%z463      0x00000000        0x0
 .text          0x00000000        0x0 /opt/microchip/xc32/v1.32/bin/bin/../../lib/gcc/pic32mx/4.5.2/../../../../pic32mx/lib/libpic32.a(vector43.o)

.text%z464      0x00000000        0x0
 .text          0x00000000        0x0 /opt/microchip/xc32/v1.32/bin/bin/../../lib/gcc/pic32mx/4.5.2/../../../../pic32mx/lib/libpic32.a(vector42.o)

.text%z465      0x00000000        0x0
 .text          0x00000000        0x0 /opt/microchip/xc32/v1.32/bin/bin/../../lib/gcc/pic32mx/4.5.2/../../../../pic32mx/lib/libpic32.a(vector41.o)

.text%z466      0x00000000        0x0
 .text          0x00000000        0x0 /opt/microchip/xc32/v1.32/bin/bin/../../lib/gcc/pic32mx/4.5.2/../../../../pic32mx/lib/libpic32.a(vector40.o)

.text%z467      0x00000000        0x0
 .text          0x00000000        0x0 /opt/microchip/xc32/v1.32/bin/bin/../../lib/gcc/pic32mx/4.5.2/../../../../pic32mx/lib/libpic32.a(vector39.o)

.text%z468      0x00000000        0x0
 .text          0x00000000        0x0 /opt/microchip/xc32/v1.32/bin/bin/../../lib/gcc/pic32mx/4.5.2/../../../../pic32mx/lib/libpic32.a(vector38.o)

.text%z469      0x00000000        0x0
 .text          0x00000000        0x0 /opt/microchip/xc32/v1.32/bin/bin/../../lib/gcc/pic32mx/4.5.2/../../../../pic32mx/lib/libpic32.a(vector37.o)

.text%z470      0x00000000        0x0
 .text          0x00000000        0x0 /opt/microchip/xc32/v1.32/bin/bin/../../lib/gcc/pic32mx/4.5.2/../../../../pic32mx/lib/libpic32.a(vector36.o)

.text%z471      0x00000000        0x0
 .text          0x00000000        0x0 /opt/microchip/xc32/v1.32/bin/bin/../../lib/gcc/pic32mx/4.5.2/../../../../pic32mx/lib/libpic32.a(vector35.o)

.text%z472      0x00000000        0x0
 .text          0x00000000        0x0 /opt/microchip/xc32/v1.32/bin/bin/../../lib/gcc/pic32mx/4.5.2/../../../../pic32mx/lib/libpic32.a(vector34.o)

.text%z473      0x00000000        0x0
 .text          0x00000000        0x0 /opt/microchip/xc32/v1.32/bin/bin/../../lib/gcc/pic32mx/4.5.2/../../../../pic32mx/lib/libpic32.a(vector33.o)

.text%z474      0x00000000        0x0
 .text          0x00000000        0x0 /opt/microchip/xc32/v1.32/bin/bin/../../lib/gcc/pic32mx/4.5.2/../../../../pic32mx/lib/libpic32.a(vector32.o)

.text%z475      0x00000000        0x0
 .text          0x00000000        0x0 /opt/microchip/xc32/v1.32/bin/bin/../../lib/gcc/pic32mx/4.5.2/../../../../pic32mx/lib/libpic32.a(vector31.o)

.text%z476      0x00000000        0x0
 .text          0x00000000        0x0 /opt/microchip/xc32/v1.32/bin/bin/../../lib/gcc/pic32mx/4.5.2/../../../../pic32mx/lib/libpic32.a(vector30.o)

.text%z477      0x00000000        0x0
 .text          0x00000000        0x0 /opt/microchip/xc32/v1.32/bin/bin/../../lib/gcc/pic32mx/4.5.2/../../../../pic32mx/lib/libpic32.a(vector29.o)

.text%z478      0x00000000        0x0
 .text          0x00000000        0x0 /opt/microchip/xc32/v1.32/bin/bin/../../lib/gcc/pic32mx/4.5.2/../../../../pic32mx/lib/libpic32.a(vector28.o)

.text%z479      0x00000000        0x0
 .text          0x00000000        0x0 /opt/microchip/xc32/v1.32/bin/bin/../../lib/gcc/pic32mx/4.5.2/../../../../pic32mx/lib/libpic32.a(vector27.o)

.text%z480      0x00000000        0x0
 .text          0x00000000        0x0 /opt/microchip/xc32/v1.32/bin/bin/../../lib/gcc/pic32mx/4.5.2/../../../../pic32mx/lib/libpic32.a(vector26.o)

.text%z481      0x00000000        0x0
 .text          0x00000000        0x0 /opt/microchip/xc32/v1.32/bin/bin/../../lib/gcc/pic32mx/4.5.2/../../../../pic32mx/lib/libpic32.a(vector25.o)

.text%z482      0x00000000        0x0
 .text          0x00000000        0x0 /opt/microchip/xc32/v1.32/bin/bin/../../lib/gcc/pic32mx/4.5.2/../../../../pic32mx/lib/libpic32.a(vector24.o)

.text%z483      0x00000000        0x0
 .text          0x00000000        0x0 /opt/microchip/xc32/v1.32/bin/bin/../../lib/gcc/pic32mx/4.5.2/../../../../pic32mx/lib/libpic32.a(vector23.o)

.text%z484      0x00000000        0x0
 .text          0x00000000        0x0 /opt/microchip/xc32/v1.32/bin/bin/../../lib/gcc/pic32mx/4.5.2/../../../../pic32mx/lib/libpic32.a(vector21.o)

.text%z485      0x00000000        0x0
 .text          0x00000000        0x0 /opt/microchip/xc32/v1.32/bin/bin/../../lib/gcc/pic32mx/4.5.2/../../../../pic32mx/lib/libpic32.a(vector20.o)

.text%z486      0x00000000        0x0
 .text          0x00000000        0x0 /opt/microchip/xc32/v1.32/bin/bin/../../lib/gcc/pic32mx/4.5.2/../../../../pic32mx/lib/libpic32.a(vector19.o)

.text%z487      0x00000000        0x0
 .text          0x00000000        0x0 /opt/microchip/xc32/v1.32/bin/bin/../../lib/gcc/pic32mx/4.5.2/../../../../pic32mx/lib/libpic32.a(vector18.o)

.text%z488      0x00000000        0x0
 .text          0x00000000        0x0 /opt/microchip/xc32/v1.32/bin/bin/../../lib/gcc/pic32mx/4.5.2/../../../../pic32mx/lib/libpic32.a(vector17.o)

.text%z489      0x00000000        0x0
 .text          0x00000000        0x0 /opt/microchip/xc32/v1.32/bin/bin/../../lib/gcc/pic32mx/4.5.2/../../../../pic32mx/lib/libpic32.a(vector15.o)

.text%z490      0x00000000        0x0
 .text          0x00000000        0x0 /opt/microchip/xc32/v1.32/bin/bin/../../lib/gcc/pic32mx/4.5.2/../../../../pic32mx/lib/libpic32.a(vector14.o)

.text%z491      0x00000000        0x0
 .text          0x00000000        0x0 /opt/microchip/xc32/v1.32/bin/bin/../../lib/gcc/pic32mx/4.5.2/../../../../pic32mx/lib/libpic32.a(vector13.o)

.text%z492      0x00000000        0x0
 .text          0x00000000        0x0 /opt/microchip/xc32/v1.32/bin/bin/../../lib/gcc/pic32mx/4.5.2/../../../../pic32mx/lib/libpic32.a(vector11.o)

.text%z493      0x00000000        0x0
 .text          0x00000000        0x0 /opt/microchip/xc32/v1.32/bin/bin/../../lib/gcc/pic32mx/4.5.2/../../../../pic32mx/lib/libpic32.a(vector10.o)

.text%z494      0x00000000        0x0
 .text          0x00000000        0x0 /opt/microchip/xc32/v1.32/bin/bin/../../lib/gcc/pic32mx/4.5.2/../../../../pic32mx/lib/libpic32.a(vector9.o)

.text%z495      0x00000000        0x0
 .text          0x00000000        0x0 /opt/microchip/xc32/v1.32/bin/bin/../../lib/gcc/pic32mx/4.5.2/../../../../pic32mx/lib/libpic32.a(vector8.o)

.text%z496      0x00000000        0x0
 .text          0x00000000        0x0 /opt/microchip/xc32/v1.32/bin/bin/../../lib/gcc/pic32mx/4.5.2/../../../../pic32mx/lib/libpic32.a(vector7.o)

.text%z497      0x00000000        0x0
 .text          0x00000000        0x0 /opt/microchip/xc32/v1.32/bin/bin/../../lib/gcc/pic32mx/4.5.2/../../../../pic32mx/lib/libpic32.a(vector6.o)

.text%z498      0x00000000        0x0
 .text          0x00000000        0x0 /opt/microchip/xc32/v1.32/bin/bin/../../lib/gcc/pic32mx/4.5.2/../../../../pic32mx/lib/libpic32.a(vector5.o)

.text%z499      0x00000000        0x0
 .text          0x00000000        0x0 /opt/microchip/xc32/v1.32/bin/bin/../../lib/gcc/pic32mx/4.5.2/../../../../pic32mx/lib/libpic32.a(vector3.o)

.text%z500      0x00000000        0x0
 .text          0x00000000        0x0 /opt/microchip/xc32/v1.32/bin/bin/../../lib/gcc/pic32mx/4.5.2/../../../../pic32mx/lib/libpic32.a(vector2.o)

.text%z501      0x00000000        0x0
 .text          0x00000000        0x0 /opt/microchip/xc32/v1.32/bin/bin/../../lib/gcc/pic32mx/4.5.2/../../../../pic32mx/lib/libpic32.a(vector1.o)

.text%z502      0x00000000        0x0
 .text          0x00000000        0x0 /opt/microchip/xc32/v1.32/bin/bin/../../lib/gcc/pic32mx/4.5.2/../../../../pic32mx/lib/libpic32.a(vector0.o)

.text%z503      0x00000000        0x0
 .text          0x00000000        0x0 /opt/microchip/xc32/v1.32/bin/bin/../../lib/gcc/pic32mx/4.5.2/../../../../pic32mx/lib/libpic32.a(general-exception.o)

.text%z504      0x00000000        0x0
 .text          0x00000000        0x0 /opt/microchip/xc32/v1.32/bin/bin/../../lib/gcc/pic32mx/4.5.2/../../../../pic32mx/lib/libpic32.a(default-on-bootstrap.o)

.text%z505      0x00000000        0x0
 .text          0x00000000        0x0 /opt/microchip/xc32/v1.32/bin/bin/../../lib/gcc/pic32mx/4.5.2/../../../../pic32mx/lib/libpic32.a(default-on-reset.o)

.text%z506      0x00000000        0x0
 .text          0x00000000        0x0 /opt/microchip/xc32/v1.32/bin/bin/../../lib/gcc/pic32mx/4.5.2/../../../../pic32mx/lib/libpic32.a(default-bootstrap-exception-handler.o)

.text%z507      0x00000000        0x0
 .text          0x00000000        0x0 /opt/microchip/xc32/v1.32/bin/bin/../../lib/gcc/pic32mx/4.5.2/../../../../pic32mx/lib/./proc/32MX795F512L/processor.o

.text%z508      0x00000000        0x0
 .text          0x00000000        0x0 /opt/microchip/xc32/v1.32/bin/bin/../../lib/gcc/pic32mx/4.5.2/../../../../pic32mx/lib/./proc/32MX795F512L/default_isr_vectors.o

.text%z509      0x00000000        0x0
 .text          0x00000000        0x0 /opt/microchip/xc32/v1.32/pic32mx/lib/libmchp_peripheral_32MX795F512L.a(_ports_tbl_libp.o)

.text%z510      0x00000000        0x0
 .text          0x00000000        0x0 /opt/microchip/xc32/v1.32/pic32mx/lib/libmchp_peripheral_32MX795F512L.a(port_set_pins_digital_out_lib.o)

.text%z511      0x00000000        0x0
 .text          0x00000000        0x0 /opt/microchip/xc32/v1.32/pic32mx/lib/libmchp_peripheral_32MX795F512L.a(port_set_pins_digital_in_lib.o)

.text%z512      0x00000000        0x0
 .text          0x00000000        0x0 /opt/microchip/xc32/v1.32/pic32mx/lib/libmchp_peripheral_32MX795F512L.a(port_reset_pins_lib.o)

.text%z513      0x00000000        0x0
 .text          0x00000000        0x0 /opt/microchip/xc32/v1.32/pic32mx/lib/libmchp_peripheral_32MX795F512L.a(nvm_write_row_lib.o)

.text%z514      0x00000000        0x0
 .text          0x00000000        0x0 /opt/microchip/xc32/v1.32/pic32mx/lib/libmchp_peripheral_32MX795F512L.a(nvm_program_lib.o)

.text%z515      0x00000000        0x0
 .text          0x00000000        0x0 /opt/microchip/xc32/v1.32/pic32mx/lib/libmchp_peripheral_32MX795F512L.a(nvm_operation_lib.o)

.text%z516      0x00000000        0x0
 .text          0x00000000        0x0 /opt/microchip/xc32/v1.32/pic32mx/lib/libmchp_peripheral_32MX795F512L.a(nvm_erase_page_lib.o)

.text%z517      0x00000000        0x0
 .text          0x00000000        0x0 /opt/microchip/xc32/v1.32/pic32mx/lib/libmchp_peripheral_32MX795F512L.a(spi_brg_tbl_lib_legacy.o)

.text%z518      0x00000000        0x0
 .text          0x00000000        0x0 /opt/microchip/xc32/v1.32/pic32mx/lib/libmchp_peripheral_32MX795F512L.a(spi_open_spi1_lib_legacy.o)

.text%z519      0x00000000        0x0
 .text          0x00000000        0x0 /opt/microchip/xc32/v1.32/pic32mx/lib/libmchp_peripheral_32MX795F512L.a(spi_getc_spi1_lib_legacy.o)

.text%z520      0x00000000        0x0
 .text          0x00000000        0x0 /opt/microchip/xc32/v1.32/pic32mx/lib/libmchp_peripheral_32MX795F512L.a(spi_map_tbl_libp.o)

.text%z521      0x00000000        0x0
 .text          0x00000000        0x0 /opt/microchip/xc32/v1.32/pic32mx/lib/libmchp_peripheral_32MX795F512L.a(spi_io_tbl_libp.o)

.text%z522      0x00000000        0x0
 .text          0x00000000        0x0 /opt/microchip/xc32/v1.32/pic32mx/lib/libmchp_peripheral_32MX795F512L.a(spi_chn_open_lib.o)

.text%z523      0x00000000        0x0
 .text          0x00000000        0x0 /opt/microchip/xc32/v1.32/pic32mx/lib/libmchp_peripheral_32MX795F512L.a(spi_chn_close_lib.o)

.text%z524      0x00000000        0x0
 .text          0x00000000        0x0 /opt/microchip/xc32/v1.32/pic32mx/lib/libmchp_peripheral_32MX795F512L.a(int_tbl_lib.o)

.text%z525      0x00000000        0x0
 .text          0x00000000        0x0 /opt/microchip/xc32/v1.32/pic32mx/lib/libmchp_peripheral_32MX795F512L.a(int_enable_mv_int_lib.o)

.text%z526      0x00000000        0x0
 .text          0x00000000        0x0 /opt/microchip/xc32/v1.32/pic32mx/lib/libmchp_peripheral_32MX795F512L.a(int_restore_interrupts_lib.o)

.text%z527      0x00000000        0x0
 .text          0x00000000        0x0 /opt/microchip/xc32/v1.32/pic32mx/lib/libmchp_peripheral_32MX795F512L.a(int_disable_interrupts_lib.o)

.text%z528      0x00000000        0x0
 .text          0x00000000        0x0 /opt/microchip/xc32/v1.32/pic32mx/lib/libmchp_peripheral_32MX795F512L.a(int_enable_interrupts_lib.o)

.text%z529      0x00000000        0x0
 .text          0x00000000        0x0 /opt/microchip/xc32/v1.32/pic32mx/lib/libmchp_peripheral_32MX795F512L.a(int_configure_system_lib.o)

.text%z530      0x00000000        0x0
 .text          0x00000000        0x0 /opt/microchip/xc32/v1.32/pic32mx/lib/libmchp_peripheral_32MX795F512L.a(pcache.o)

.text%z531      0x00000000        0x0
 .text          0x00000000        0x0 /opt/microchip/xc32/v1.32/pic32mx/lib/libmchp_peripheral_32MX795F512L.a(soft_reset_lib.o)

.text%z532      0x00000000        0x0
 .text          0x00000000        0x0 build/debug/production/src/usb_descriptors.o

.text%z533      0x00000000        0x0
 .text          0x00000000        0x0 /opt/microchip/xc32/v1.32/bin/bin/../../lib/gcc/pic32mx/4.5.2/../../../../pic32mx/lib/debug-exception-return.o

.text%z534      0x00000000        0x0
 .text          0x00000000        0x0 /opt/microchip/xc32/v1.32/bin/bin/../../lib/gcc/pic32mx/4.5.2/../../../../pic32mx/lib/./proc/32MX795F512L/crt0_mips32r2.o
