Archive member included because of file (symbol)

/opt/microchip/xc32/v1.21/pic32mx/lib/libmchp_peripheral_32MX795F512L.a(soft_reset_lib.o)
                              build/debug/production/src/main.o (SoftReset)
/opt/microchip/xc32/v1.21/pic32mx/lib/libmchp_peripheral_32MX795F512L.a(pcache.o)
                              build/debug/production/src/main.o (CheKseg0CacheOn)
/opt/microchip/xc32/v1.21/pic32mx/lib/libmchp_peripheral_32MX795F512L.a(int_configure_system_lib.o)
                              build/debug/production/_ext/2096855388/SCpic32.o (INTConfigureSystem)
/opt/microchip/xc32/v1.21/pic32mx/lib/libmchp_peripheral_32MX795F512L.a(int_enable_interrupts_lib.o)
                              build/debug/production/_ext/2096855388/SCpic32.o (INTEnableInterrupts)
/opt/microchip/xc32/v1.21/pic32mx/lib/libmchp_peripheral_32MX795F512L.a(int_disable_interrupts_lib.o)
                              build/debug/production/src/main.o (INTDisableInterrupts)
/opt/microchip/xc32/v1.21/pic32mx/lib/libmchp_peripheral_32MX795F512L.a(int_restore_interrupts_lib.o)
                              build/debug/production/src/main.o (INTRestoreInterrupts)
/opt/microchip/xc32/v1.21/pic32mx/lib/libmchp_peripheral_32MX795F512L.a(int_enable_mv_int_lib.o)
                              build/debug/production/_ext/870548313/usb_device.o (INTEnableSystemMultiVectoredInt)
/opt/microchip/xc32/v1.21/pic32mx/lib/libmchp_peripheral_32MX795F512L.a(int_tbl_lib.o)
                              build/debug/production/_ext/870548313/usb_device.o (INTClearFlag)
/opt/microchip/xc32/v1.21/pic32mx/lib/libmchp_peripheral_32MX795F512L.a(spi_chn_close_lib.o)
                              build/debug/production/src/spi.o (SpiChnClose)
/opt/microchip/xc32/v1.21/pic32mx/lib/libmchp_peripheral_32MX795F512L.a(spi_chn_open_lib.o)
                              build/debug/production/src/spi.o (SpiChnOpen)
/opt/microchip/xc32/v1.21/pic32mx/lib/libmchp_peripheral_32MX795F512L.a(spi_io_tbl_libp.o)
                              /opt/microchip/xc32/v1.21/pic32mx/lib/libmchp_peripheral_32MX795F512L.a(spi_chn_close_lib.o) (_SpiIoTbl)
/opt/microchip/xc32/v1.21/pic32mx/lib/libmchp_peripheral_32MX795F512L.a(spi_map_tbl_libp.o)
                              /opt/microchip/xc32/v1.21/pic32mx/lib/libmchp_peripheral_32MX795F512L.a(spi_chn_close_lib.o) (_SpiMapTbl)
/opt/microchip/xc32/v1.21/pic32mx/lib/libmchp_peripheral_32MX795F512L.a(spi_getc_spi1_lib_legacy.o)
                              build/debug/production/_ext/71113213/SD-SPI.o (getcSPI1)
/opt/microchip/xc32/v1.21/pic32mx/lib/libmchp_peripheral_32MX795F512L.a(spi_open_spi1_lib_legacy.o)
                              build/debug/production/_ext/71113213/SD-SPI.o (OpenSPI1)
/opt/microchip/xc32/v1.21/pic32mx/lib/libmchp_peripheral_32MX795F512L.a(spi_brg_tbl_lib_legacy.o)
                              /opt/microchip/xc32/v1.21/pic32mx/lib/libmchp_peripheral_32MX795F512L.a(spi_open_spi1_lib_legacy.o) (_SpiBrgConvTbl)
/opt/microchip/xc32/v1.21/pic32mx/lib/libmchp_peripheral_32MX795F512L.a(nvm_erase_page_lib.o)
                              build/debug/production/src/nvm.o (NVMErasePage)
/opt/microchip/xc32/v1.21/pic32mx/lib/libmchp_peripheral_32MX795F512L.a(nvm_operation_lib.o)
                              /opt/microchip/xc32/v1.21/pic32mx/lib/libmchp_peripheral_32MX795F512L.a(nvm_erase_page_lib.o) (_NVMOperation)
/opt/microchip/xc32/v1.21/pic32mx/lib/libmchp_peripheral_32MX795F512L.a(nvm_program_lib.o)
                              build/debug/production/src/nvm.o (NVMProgram)
/opt/microchip/xc32/v1.21/pic32mx/lib/libmchp_peripheral_32MX795F512L.a(nvm_write_row_lib.o)
                              /opt/microchip/xc32/v1.21/pic32mx/lib/libmchp_peripheral_32MX795F512L.a(nvm_program_lib.o) (NVMWriteRow)
/opt/microchip/xc32/v1.21/pic32mx/lib/libmchp_peripheral_32MX795F512L.a(port_reset_pins_lib.o)
                              /opt/microchip/xc32/v1.21/pic32mx/lib/libmchp_peripheral_32MX795F512L.a(spi_chn_close_lib.o) (PORTResetPins)
/opt/microchip/xc32/v1.21/pic32mx/lib/libmchp_peripheral_32MX795F512L.a(port_set_pins_digital_in_lib.o)
                              /opt/microchip/xc32/v1.21/pic32mx/lib/libmchp_peripheral_32MX795F512L.a(spi_chn_open_lib.o) (PORTSetPinsDigitalIn)
/opt/microchip/xc32/v1.21/pic32mx/lib/libmchp_peripheral_32MX795F512L.a(port_set_pins_digital_out_lib.o)
                              /opt/microchip/xc32/v1.21/pic32mx/lib/libmchp_peripheral_32MX795F512L.a(spi_chn_open_lib.o) (PORTSetPinsDigitalOut)
/opt/microchip/xc32/v1.21/pic32mx/lib/libmchp_peripheral_32MX795F512L.a(_ports_tbl_libp.o)
                              /opt/microchip/xc32/v1.21/pic32mx/lib/libmchp_peripheral_32MX795F512L.a(port_reset_pins_lib.o) (PortRegTbl)
/opt/microchip/xc32/v1.21/bin/../lib/gcc/pic32mx/4.5.2/libgcc.a(_udivdi3.o)
                              build/debug/production/_ext/2096855388/SClib.o (__udivdi3)
/opt/microchip/xc32/v1.21/bin/../lib/gcc/pic32mx/4.5.2/../../../../pic32mx/lib/libpic32.a(memcmp.o)
                              build/debug/production/src/nvm.o (memcmp)
/opt/microchip/xc32/v1.21/bin/../lib/gcc/pic32mx/4.5.2/../../../../pic32mx/lib/libpic32.a(memcpy.o)
                              build/debug/production/src/main.o (memcpy)
/opt/microchip/xc32/v1.21/bin/../lib/gcc/pic32mx/4.5.2/../../../../pic32mx/lib/libpic32.a(memset.o)
                              build/debug/production/_ext/71113213/FSIO.o (memset)
/opt/microchip/xc32/v1.21/bin/../lib/gcc/pic32mx/4.5.2/../../../../pic32mx/lib/libpic32.a(strcmp.o)
                              build/debug/production/src/main.o (strcmp)
/opt/microchip/xc32/v1.21/bin/../lib/gcc/pic32mx/4.5.2/../../../../pic32mx/lib/libpic32.a(strcpy.o)
                              build/debug/production/_ext/71113213/FSIO.o (strcpy)
/opt/microchip/xc32/v1.21/bin/../lib/gcc/pic32mx/4.5.2/../../../../pic32mx/lib/libpic32.a(strlen.o)
                              build/debug/production/_ext/71113213/FSIO.o (strlen)
/opt/microchip/xc32/v1.21/bin/../lib/gcc/pic32mx/4.5.2/../../../../pic32mx/lib/libpic32.a(default-bootstrap-exception-handler.o)
                              /opt/microchip/xc32/v1.21/bin/../lib/gcc/pic32mx/4.5.2/../../../../pic32mx/lib/crt0.o (_bootstrap_exception_handler)
/opt/microchip/xc32/v1.21/bin/../lib/gcc/pic32mx/4.5.2/../../../../pic32mx/lib/libpic32.a(default-on-reset.o)
                              /opt/microchip/xc32/v1.21/bin/../lib/gcc/pic32mx/4.5.2/../../../../pic32mx/lib/crt0.o (_on_reset)
/opt/microchip/xc32/v1.21/bin/../lib/gcc/pic32mx/4.5.2/../../../../pic32mx/lib/libpic32.a(default-on-bootstrap.o)
                              /opt/microchip/xc32/v1.21/bin/../lib/gcc/pic32mx/4.5.2/../../../../pic32mx/lib/crt0.o (_on_bootstrap)
/opt/microchip/xc32/v1.21/bin/../lib/gcc/pic32mx/4.5.2/../../../../pic32mx/lib/libpic32.a(default-nmi-handler.o)
                              /opt/microchip/xc32/v1.21/bin/../lib/gcc/pic32mx/4.5.2/../../../../pic32mx/lib/crt0.o (_nmi_handler)
/opt/microchip/xc32/v1.21/bin/../lib/gcc/pic32mx/4.5.2/../../../../pic32mx/lib/libpic32.a(general-exception.o)
                              /opt/microchip/xc32/v1.21/bin/../lib/gcc/pic32mx/4.5.2/../../../../pic32mx/lib/crt0.o (_general_exception_context)
/opt/microchip/xc32/v1.21/bin/../lib/gcc/pic32mx/4.5.2/../../../../pic32mx/lib/libpic32.a(vector0.o)
                              /opt/microchip/xc32/v1.21/bin/../lib/gcc/pic32mx/4.5.2/../../../../pic32mx/lib/./proc/32MX795F512L/default_isr_vectors.o (__vector_dispatch_0)
/opt/microchip/xc32/v1.21/bin/../lib/gcc/pic32mx/4.5.2/../../../../pic32mx/lib/libpic32.a(vector1.o)
                              /opt/microchip/xc32/v1.21/bin/../lib/gcc/pic32mx/4.5.2/../../../../pic32mx/lib/./proc/32MX795F512L/default_isr_vectors.o (__vector_dispatch_1)
/opt/microchip/xc32/v1.21/bin/../lib/gcc/pic32mx/4.5.2/../../../../pic32mx/lib/libpic32.a(vector2.o)
                              /opt/microchip/xc32/v1.21/bin/../lib/gcc/pic32mx/4.5.2/../../../../pic32mx/lib/./proc/32MX795F512L/default_isr_vectors.o (__vector_dispatch_2)
/opt/microchip/xc32/v1.21/bin/../lib/gcc/pic32mx/4.5.2/../../../../pic32mx/lib/libpic32.a(vector3.o)
                              /opt/microchip/xc32/v1.21/bin/../lib/gcc/pic32mx/4.5.2/../../../../pic32mx/lib/./proc/32MX795F512L/default_isr_vectors.o (__vector_dispatch_3)
/opt/microchip/xc32/v1.21/bin/../lib/gcc/pic32mx/4.5.2/../../../../pic32mx/lib/libpic32.a(vector5.o)
                              /opt/microchip/xc32/v1.21/bin/../lib/gcc/pic32mx/4.5.2/../../../../pic32mx/lib/./proc/32MX795F512L/default_isr_vectors.o (__vector_dispatch_5)
/opt/microchip/xc32/v1.21/bin/../lib/gcc/pic32mx/4.5.2/../../../../pic32mx/lib/libpic32.a(vector6.o)
                              /opt/microchip/xc32/v1.21/bin/../lib/gcc/pic32mx/4.5.2/../../../../pic32mx/lib/./proc/32MX795F512L/default_isr_vectors.o (__vector_dispatch_6)
/opt/microchip/xc32/v1.21/bin/../lib/gcc/pic32mx/4.5.2/../../../../pic32mx/lib/libpic32.a(vector7.o)
                              /opt/microchip/xc32/v1.21/bin/../lib/gcc/pic32mx/4.5.2/../../../../pic32mx/lib/./proc/32MX795F512L/default_isr_vectors.o (__vector_dispatch_7)
/opt/microchip/xc32/v1.21/bin/../lib/gcc/pic32mx/4.5.2/../../../../pic32mx/lib/libpic32.a(vector8.o)
                              /opt/microchip/xc32/v1.21/bin/../lib/gcc/pic32mx/4.5.2/../../../../pic32mx/lib/./proc/32MX795F512L/default_isr_vectors.o (__vector_dispatch_8)
/opt/microchip/xc32/v1.21/bin/../lib/gcc/pic32mx/4.5.2/../../../../pic32mx/lib/libpic32.a(vector9.o)
                              /opt/microchip/xc32/v1.21/bin/../lib/gcc/pic32mx/4.5.2/../../../../pic32mx/lib/./proc/32MX795F512L/default_isr_vectors.o (__vector_dispatch_9)
/opt/microchip/xc32/v1.21/bin/../lib/gcc/pic32mx/4.5.2/../../../../pic32mx/lib/libpic32.a(vector10.o)
                              /opt/microchip/xc32/v1.21/bin/../lib/gcc/pic32mx/4.5.2/../../../../pic32mx/lib/./proc/32MX795F512L/default_isr_vectors.o (__vector_dispatch_10)
/opt/microchip/xc32/v1.21/bin/../lib/gcc/pic32mx/4.5.2/../../../../pic32mx/lib/libpic32.a(vector11.o)
                              /opt/microchip/xc32/v1.21/bin/../lib/gcc/pic32mx/4.5.2/../../../../pic32mx/lib/./proc/32MX795F512L/default_isr_vectors.o (__vector_dispatch_11)
/opt/microchip/xc32/v1.21/bin/../lib/gcc/pic32mx/4.5.2/../../../../pic32mx/lib/libpic32.a(vector13.o)
                              /opt/microchip/xc32/v1.21/bin/../lib/gcc/pic32mx/4.5.2/../../../../pic32mx/lib/./proc/32MX795F512L/default_isr_vectors.o (__vector_dispatch_13)
/opt/microchip/xc32/v1.21/bin/../lib/gcc/pic32mx/4.5.2/../../../../pic32mx/lib/libpic32.a(vector14.o)
                              /opt/microchip/xc32/v1.21/bin/../lib/gcc/pic32mx/4.5.2/../../../../pic32mx/lib/./proc/32MX795F512L/default_isr_vectors.o (__vector_dispatch_14)
/opt/microchip/xc32/v1.21/bin/../lib/gcc/pic32mx/4.5.2/../../../../pic32mx/lib/libpic32.a(vector15.o)
                              /opt/microchip/xc32/v1.21/bin/../lib/gcc/pic32mx/4.5.2/../../../../pic32mx/lib/./proc/32MX795F512L/default_isr_vectors.o (__vector_dispatch_15)
/opt/microchip/xc32/v1.21/bin/../lib/gcc/pic32mx/4.5.2/../../../../pic32mx/lib/libpic32.a(vector17.o)
                              /opt/microchip/xc32/v1.21/bin/../lib/gcc/pic32mx/4.5.2/../../../../pic32mx/lib/./proc/32MX795F512L/default_isr_vectors.o (__vector_dispatch_17)
/opt/microchip/xc32/v1.21/bin/../lib/gcc/pic32mx/4.5.2/../../../../pic32mx/lib/libpic32.a(vector18.o)
                              /opt/microchip/xc32/v1.21/bin/../lib/gcc/pic32mx/4.5.2/../../../../pic32mx/lib/./proc/32MX795F512L/default_isr_vectors.o (__vector_dispatch_18)
/opt/microchip/xc32/v1.21/bin/../lib/gcc/pic32mx/4.5.2/../../../../pic32mx/lib/libpic32.a(vector19.o)
                              /opt/microchip/xc32/v1.21/bin/../lib/gcc/pic32mx/4.5.2/../../../../pic32mx/lib/./proc/32MX795F512L/default_isr_vectors.o (__vector_dispatch_19)
/opt/microchip/xc32/v1.21/bin/../lib/gcc/pic32mx/4.5.2/../../../../pic32mx/lib/libpic32.a(vector20.o)
                              /opt/microchip/xc32/v1.21/bin/../lib/gcc/pic32mx/4.5.2/../../../../pic32mx/lib/./proc/32MX795F512L/default_isr_vectors.o (__vector_dispatch_20)
/opt/microchip/xc32/v1.21/bin/../lib/gcc/pic32mx/4.5.2/../../../../pic32mx/lib/libpic32.a(vector21.o)
                              /opt/microchip/xc32/v1.21/bin/../lib/gcc/pic32mx/4.5.2/../../../../pic32mx/lib/./proc/32MX795F512L/default_isr_vectors.o (__vector_dispatch_21)
/opt/microchip/xc32/v1.21/bin/../lib/gcc/pic32mx/4.5.2/../../../../pic32mx/lib/libpic32.a(vector23.o)
                              /opt/microchip/xc32/v1.21/bin/../lib/gcc/pic32mx/4.5.2/../../../../pic32mx/lib/./proc/32MX795F512L/default_isr_vectors.o (__vector_dispatch_23)
/opt/microchip/xc32/v1.21/bin/../lib/gcc/pic32mx/4.5.2/../../../../pic32mx/lib/libpic32.a(vector24.o)
                              /opt/microchip/xc32/v1.21/bin/../lib/gcc/pic32mx/4.5.2/../../../../pic32mx/lib/./proc/32MX795F512L/default_isr_vectors.o (__vector_dispatch_24)
/opt/microchip/xc32/v1.21/bin/../lib/gcc/pic32mx/4.5.2/../../../../pic32mx/lib/libpic32.a(vector25.o)
                              /opt/microchip/xc32/v1.21/bin/../lib/gcc/pic32mx/4.5.2/../../../../pic32mx/lib/./proc/32MX795F512L/default_isr_vectors.o (__vector_dispatch_25)
/opt/microchip/xc32/v1.21/bin/../lib/gcc/pic32mx/4.5.2/../../../../pic32mx/lib/libpic32.a(vector26.o)
                              /opt/microchip/xc32/v1.21/bin/../lib/gcc/pic32mx/4.5.2/../../../../pic32mx/lib/./proc/32MX795F512L/default_isr_vectors.o (__vector_dispatch_26)
/opt/microchip/xc32/v1.21/bin/../lib/gcc/pic32mx/4.5.2/../../../../pic32mx/lib/libpic32.a(vector27.o)
                              /opt/microchip/xc32/v1.21/bin/../lib/gcc/pic32mx/4.5.2/../../../../pic32mx/lib/./proc/32MX795F512L/default_isr_vectors.o (__vector_dispatch_27)
/opt/microchip/xc32/v1.21/bin/../lib/gcc/pic32mx/4.5.2/../../../../pic32mx/lib/libpic32.a(vector28.o)
                              /opt/microchip/xc32/v1.21/bin/../lib/gcc/pic32mx/4.5.2/../../../../pic32mx/lib/./proc/32MX795F512L/default_isr_vectors.o (__vector_dispatch_28)
/opt/microchip/xc32/v1.21/bin/../lib/gcc/pic32mx/4.5.2/../../../../pic32mx/lib/libpic32.a(vector29.o)
                              /opt/microchip/xc32/v1.21/bin/../lib/gcc/pic32mx/4.5.2/../../../../pic32mx/lib/./proc/32MX795F512L/default_isr_vectors.o (__vector_dispatch_29)
/opt/microchip/xc32/v1.21/bin/../lib/gcc/pic32mx/4.5.2/../../../../pic32mx/lib/libpic32.a(vector30.o)
                              /opt/microchip/xc32/v1.21/bin/../lib/gcc/pic32mx/4.5.2/../../../../pic32mx/lib/./proc/32MX795F512L/default_isr_vectors.o (__vector_dispatch_30)
/opt/microchip/xc32/v1.21/bin/../lib/gcc/pic32mx/4.5.2/../../../../pic32mx/lib/libpic32.a(vector31.o)
                              /opt/microchip/xc32/v1.21/bin/../lib/gcc/pic32mx/4.5.2/../../../../pic32mx/lib/./proc/32MX795F512L/default_isr_vectors.o (__vector_dispatch_31)
/opt/microchip/xc32/v1.21/bin/../lib/gcc/pic32mx/4.5.2/../../../../pic32mx/lib/libpic32.a(vector32.o)
                              /opt/microchip/xc32/v1.21/bin/../lib/gcc/pic32mx/4.5.2/../../../../pic32mx/lib/./proc/32MX795F512L/default_isr_vectors.o (__vector_dispatch_32)
/opt/microchip/xc32/v1.21/bin/../lib/gcc/pic32mx/4.5.2/../../../../pic32mx/lib/libpic32.a(vector33.o)
                              /opt/microchip/xc32/v1.21/bin/../lib/gcc/pic32mx/4.5.2/../../../../pic32mx/lib/./proc/32MX795F512L/default_isr_vectors.o (__vector_dispatch_33)
/opt/microchip/xc32/v1.21/bin/../lib/gcc/pic32mx/4.5.2/../../../../pic32mx/lib/libpic32.a(vector34.o)
                              /opt/microchip/xc32/v1.21/bin/../lib/gcc/pic32mx/4.5.2/../../../../pic32mx/lib/./proc/32MX795F512L/default_isr_vectors.o (__vector_dispatch_34)
/opt/microchip/xc32/v1.21/bin/../lib/gcc/pic32mx/4.5.2/../../../../pic32mx/lib/libpic32.a(vector35.o)
                              /opt/microchip/xc32/v1.21/bin/../lib/gcc/pic32mx/4.5.2/../../../../pic32mx/lib/./proc/32MX795F512L/default_isr_vectors.o (__vector_dispatch_35)
/opt/microchip/xc32/v1.21/bin/../lib/gcc/pic32mx/4.5.2/../../../../pic32mx/lib/libpic32.a(vector36.o)
                              /opt/microchip/xc32/v1.21/bin/../lib/gcc/pic32mx/4.5.2/../../../../pic32mx/lib/./proc/32MX795F512L/default_isr_vectors.o (__vector_dispatch_36)
/opt/microchip/xc32/v1.21/bin/../lib/gcc/pic32mx/4.5.2/../../../../pic32mx/lib/libpic32.a(vector37.o)
                              /opt/microchip/xc32/v1.21/bin/../lib/gcc/pic32mx/4.5.2/../../../../pic32mx/lib/./proc/32MX795F512L/default_isr_vectors.o (__vector_dispatch_37)
/opt/microchip/xc32/v1.21/bin/../lib/gcc/pic32mx/4.5.2/../../../../pic32mx/lib/libpic32.a(vector38.o)
                              /opt/microchip/xc32/v1.21/bin/../lib/gcc/pic32mx/4.5.2/../../../../pic32mx/lib/./proc/32MX795F512L/default_isr_vectors.o (__vector_dispatch_38)
/opt/microchip/xc32/v1.21/bin/../lib/gcc/pic32mx/4.5.2/../../../../pic32mx/lib/libpic32.a(vector39.o)
                              /opt/microchip/xc32/v1.21/bin/../lib/gcc/pic32mx/4.5.2/../../../../pic32mx/lib/./proc/32MX795F512L/default_isr_vectors.o (__vector_dispatch_39)
/opt/microchip/xc32/v1.21/bin/../lib/gcc/pic32mx/4.5.2/../../../../pic32mx/lib/libpic32.a(vector40.o)
                              /opt/microchip/xc32/v1.21/bin/../lib/gcc/pic32mx/4.5.2/../../../../pic32mx/lib/./proc/32MX795F512L/default_isr_vectors.o (__vector_dispatch_40)
/opt/microchip/xc32/v1.21/bin/../lib/gcc/pic32mx/4.5.2/../../../../pic32mx/lib/libpic32.a(vector41.o)
                              /opt/microchip/xc32/v1.21/bin/../lib/gcc/pic32mx/4.5.2/../../../../pic32mx/lib/./proc/32MX795F512L/default_isr_vectors.o (__vector_dispatch_41)
/opt/microchip/xc32/v1.21/bin/../lib/gcc/pic32mx/4.5.2/../../../../pic32mx/lib/libpic32.a(vector42.o)
                              /opt/microchip/xc32/v1.21/bin/../lib/gcc/pic32mx/4.5.2/../../../../pic32mx/lib/./proc/32MX795F512L/default_isr_vectors.o (__vector_dispatch_42)
/opt/microchip/xc32/v1.21/bin/../lib/gcc/pic32mx/4.5.2/../../../../pic32mx/lib/libpic32.a(vector43.o)
                              /opt/microchip/xc32/v1.21/bin/../lib/gcc/pic32mx/4.5.2/../../../../pic32mx/lib/./proc/32MX795F512L/default_isr_vectors.o (__vector_dispatch_43)
/opt/microchip/xc32/v1.21/bin/../lib/gcc/pic32mx/4.5.2/../../../../pic32mx/lib/libpic32.a(vector44.o)
                              /opt/microchip/xc32/v1.21/bin/../lib/gcc/pic32mx/4.5.2/../../../../pic32mx/lib/./proc/32MX795F512L/default_isr_vectors.o (__vector_dispatch_44)
/opt/microchip/xc32/v1.21/bin/../lib/gcc/pic32mx/4.5.2/../../../../pic32mx/lib/libpic32.a(vector46.o)
                              /opt/microchip/xc32/v1.21/bin/../lib/gcc/pic32mx/4.5.2/../../../../pic32mx/lib/./proc/32MX795F512L/default_isr_vectors.o (__vector_dispatch_46)
/opt/microchip/xc32/v1.21/bin/../lib/gcc/pic32mx/4.5.2/../../../../pic32mx/lib/libpic32.a(vector47.o)
                              /opt/microchip/xc32/v1.21/bin/../lib/gcc/pic32mx/4.5.2/../../../../pic32mx/lib/./proc/32MX795F512L/default_isr_vectors.o (__vector_dispatch_47)
/opt/microchip/xc32/v1.21/bin/../lib/gcc/pic32mx/4.5.2/../../../../pic32mx/lib/libpic32.a(vector48.o)
                              /opt/microchip/xc32/v1.21/bin/../lib/gcc/pic32mx/4.5.2/../../../../pic32mx/lib/./proc/32MX795F512L/default_isr_vectors.o (__vector_dispatch_48)
/opt/microchip/xc32/v1.21/bin/../lib/gcc/pic32mx/4.5.2/../../../../pic32mx/lib/libpic32.a(vector49.o)
                              /opt/microchip/xc32/v1.21/bin/../lib/gcc/pic32mx/4.5.2/../../../../pic32mx/lib/./proc/32MX795F512L/default_isr_vectors.o (__vector_dispatch_49)
/opt/microchip/xc32/v1.21/bin/../lib/gcc/pic32mx/4.5.2/../../../../pic32mx/lib/libpic32.a(vector50.o)
                              /opt/microchip/xc32/v1.21/bin/../lib/gcc/pic32mx/4.5.2/../../../../pic32mx/lib/./proc/32MX795F512L/default_isr_vectors.o (__vector_dispatch_50)
/opt/microchip/xc32/v1.21/bin/../lib/gcc/pic32mx/4.5.2/../../../../pic32mx/lib/libpic32.a(vector51.o)
                              /opt/microchip/xc32/v1.21/bin/../lib/gcc/pic32mx/4.5.2/../../../../pic32mx/lib/./proc/32MX795F512L/default_isr_vectors.o (__vector_dispatch_51)
/opt/microchip/xc32/v1.21/bin/../lib/gcc/pic32mx/4.5.2/../../../../pic32mx/lib/libpic32.a(vector52.o)
                              /opt/microchip/xc32/v1.21/bin/../lib/gcc/pic32mx/4.5.2/../../../../pic32mx/lib/./proc/32MX795F512L/default_isr_vectors.o (__vector_dispatch_52)
/opt/microchip/xc32/v1.21/bin/../lib/gcc/pic32mx/4.5.2/../../../../pic32mx/lib/libpic32.a(vector53.o)
                              /opt/microchip/xc32/v1.21/bin/../lib/gcc/pic32mx/4.5.2/../../../../pic32mx/lib/./proc/32MX795F512L/default_isr_vectors.o (__vector_dispatch_53)
/opt/microchip/xc32/v1.21/bin/../lib/gcc/pic32mx/4.5.2/../../../../pic32mx/lib/libpic32.a(vector54.o)
                              /opt/microchip/xc32/v1.21/bin/../lib/gcc/pic32mx/4.5.2/../../../../pic32mx/lib/./proc/32MX795F512L/default_isr_vectors.o (__vector_dispatch_54)
/opt/microchip/xc32/v1.21/bin/../lib/gcc/pic32mx/4.5.2/../../../../pic32mx/lib/libpic32.a(vector55.o)
                              /opt/microchip/xc32/v1.21/bin/../lib/gcc/pic32mx/4.5.2/../../../../pic32mx/lib/./proc/32MX795F512L/default_isr_vectors.o (__vector_dispatch_55)
/opt/microchip/xc32/v1.21/bin/../lib/gcc/pic32mx/4.5.2/../../../../pic32mx/lib/libpic32.a(vector56.o)
                              /opt/microchip/xc32/v1.21/bin/../lib/gcc/pic32mx/4.5.2/../../../../pic32mx/lib/./proc/32MX795F512L/default_isr_vectors.o (__vector_dispatch_56)
/opt/microchip/xc32/v1.21/bin/../lib/gcc/pic32mx/4.5.2/../../../../pic32mx/lib/libpic32.a(vector57.o)
                              /opt/microchip/xc32/v1.21/bin/../lib/gcc/pic32mx/4.5.2/../../../../pic32mx/lib/./proc/32MX795F512L/default_isr_vectors.o (__vector_dispatch_57)
/opt/microchip/xc32/v1.21/bin/../lib/gcc/pic32mx/4.5.2/../../../../pic32mx/lib/libpic32.a(vector58.o)
                              /opt/microchip/xc32/v1.21/bin/../lib/gcc/pic32mx/4.5.2/../../../../pic32mx/lib/./proc/32MX795F512L/default_isr_vectors.o (__vector_dispatch_58)
/opt/microchip/xc32/v1.21/bin/../lib/gcc/pic32mx/4.5.2/../../../../pic32mx/lib/libpic32.a(vector59.o)
                              /opt/microchip/xc32/v1.21/bin/../lib/gcc/pic32mx/4.5.2/../../../../pic32mx/lib/./proc/32MX795F512L/default_isr_vectors.o (__vector_dispatch_59)
/opt/microchip/xc32/v1.21/bin/../lib/gcc/pic32mx/4.5.2/../../../../pic32mx/lib/libpic32.a(vector60.o)
                              /opt/microchip/xc32/v1.21/bin/../lib/gcc/pic32mx/4.5.2/../../../../pic32mx/lib/./proc/32MX795F512L/default_isr_vectors.o (__vector_dispatch_60)
/opt/microchip/xc32/v1.21/bin/../lib/gcc/pic32mx/4.5.2/../../../../pic32mx/lib/libpic32.a(vector61.o)
                              /opt/microchip/xc32/v1.21/bin/../lib/gcc/pic32mx/4.5.2/../../../../pic32mx/lib/./proc/32MX795F512L/default_isr_vectors.o (__vector_dispatch_61)
/opt/microchip/xc32/v1.21/bin/../lib/gcc/pic32mx/4.5.2/../../../../pic32mx/lib/libpic32.a(vector62.o)
                              /opt/microchip/xc32/v1.21/bin/../lib/gcc/pic32mx/4.5.2/../../../../pic32mx/lib/./proc/32MX795F512L/default_isr_vectors.o (__vector_dispatch_62)
/opt/microchip/xc32/v1.21/bin/../lib/gcc/pic32mx/4.5.2/../../../../pic32mx/lib/libpic32.a(vector63.o)
                              /opt/microchip/xc32/v1.21/bin/../lib/gcc/pic32mx/4.5.2/../../../../pic32mx/lib/./proc/32MX795F512L/default_isr_vectors.o (__vector_dispatch_63)
/opt/microchip/xc32/v1.21/bin/../lib/gcc/pic32mx/4.5.2/../../../../pic32mx/lib/libpic32.a(default-general-exception-handler.o)
                              /opt/microchip/xc32/v1.21/bin/../lib/gcc/pic32mx/4.5.2/../../../../pic32mx/lib/libpic32.a(general-exception.o) (_general_exception_handler)
/opt/microchip/xc32/v1.21/bin/../lib/gcc/pic32mx/4.5.2/../../../../pic32mx/lib/libpic32.a(defaultinterrupt.o)
                              /opt/microchip/xc32/v1.21/bin/../lib/gcc/pic32mx/4.5.2/../../../../pic32mx/lib/libpic32.a(vector0.o) (_DefaultInterrupt)
/opt/microchip/xc32/v1.21/bin/../lib/gcc/pic32mx/4.5.2/../../../../pic32mx/lib/libm.a(fp32.o)
                              build/debug/production/src/analogue.o (fpadd)
/opt/microchip/xc32/v1.21/bin/../lib/gcc/pic32mx/4.5.2/../../../../pic32mx/lib/libc.a(ctypef.o)
                              build/debug/production/_ext/71113213/FSIO.o (tolower)
/opt/microchip/xc32/v1.21/bin/../lib/gcc/pic32mx/4.5.2/../../../../pic32mx/lib/libc.a(rand.o)
                              build/debug/production/src/hitag.o (srand)
/opt/microchip/xc32/v1.21/bin/../lib/gcc/pic32mx/4.5.2/../../../../pic32mx/lib/libc.a(strncmp.o)
                              build/debug/production/src/main.o (strncmp)
/opt/microchip/xc32/v1.21/bin/../lib/gcc/pic32mx/4.5.2/../../../../pic32mx/lib/libc.a(strncpy.o)
                              build/debug/production/_ext/71113213/FSIO.o (strncpy)
/opt/microchip/xc32/v1.21/bin/../lib/gcc/pic32mx/4.5.2/../../../../pic32mx/lib/libc.a(sprintf_cdnopuxX.eo)
                              build/debug/production/src/main.o (_sprintf_cdnopuxX)
/opt/microchip/xc32/v1.21/bin/../lib/gcc/pic32mx/4.5.2/../../../../pic32mx/lib/libc.a(sprintf.o)
                              build/debug/production/src/comms.o (sprintf)
/opt/microchip/xc32/v1.21/bin/../lib/gcc/pic32mx/4.5.2/../../../../pic32mx/lib/libc.a(sscanf_cdfFnopsuxX.eo)
                              build/debug/production/src/main.o (_sscanf_cdfFnopsuxX)
/opt/microchip/xc32/v1.21/bin/../lib/gcc/pic32mx/4.5.2/../../../../pic32mx/lib/libc.a(sscanf_cdnopuxX.eo)
                              build/debug/production/src/util.o (_sscanf_cdnopuxX)
/opt/microchip/xc32/v1.21/bin/../lib/gcc/pic32mx/4.5.2/../../../../pic32mx/lib/libc.a(ctype.o)
                              /opt/microchip/xc32/v1.21/bin/../lib/gcc/pic32mx/4.5.2/../../../../pic32mx/lib/libc.a(ctypef.o) (_ctype)
/opt/microchip/xc32/v1.21/bin/../lib/gcc/pic32mx/4.5.2/../../../../pic32mx/lib/libc.a(doprnt_cdnopuxX.eo)
                              /opt/microchip/xc32/v1.21/bin/../lib/gcc/pic32mx/4.5.2/../../../../pic32mx/lib/libc.a(sprintf_cdnopuxX.eo) (_vfprintf_cdnopuxX)
/opt/microchip/xc32/v1.21/bin/../lib/gcc/pic32mx/4.5.2/../../../../pic32mx/lib/libc.a(doprnt.o)
                              /opt/microchip/xc32/v1.21/bin/../lib/gcc/pic32mx/4.5.2/../../../../pic32mx/lib/libc.a(sprintf.o) (vfprintf)
/opt/microchip/xc32/v1.21/bin/../lib/gcc/pic32mx/4.5.2/../../../../pic32mx/lib/libc.a(doscan_cdfFnopsuxX.eo)
                              /opt/microchip/xc32/v1.21/bin/../lib/gcc/pic32mx/4.5.2/../../../../pic32mx/lib/libc.a(sscanf_cdfFnopsuxX.eo) (_vfscanf_cdfFnopsuxX)
/opt/microchip/xc32/v1.21/bin/../lib/gcc/pic32mx/4.5.2/../../../../pic32mx/lib/libc.a(doscan_cdnopuxX.eo)
                              /opt/microchip/xc32/v1.21/bin/../lib/gcc/pic32mx/4.5.2/../../../../pic32mx/lib/libc.a(sscanf_cdnopuxX.eo) (_vfscanf_cdnopuxX)
/opt/microchip/xc32/v1.21/bin/../lib/gcc/pic32mx/4.5.2/../../../../pic32mx/lib/libc.a(fgetc.o)
                              /opt/microchip/xc32/v1.21/bin/../lib/gcc/pic32mx/4.5.2/../../../../pic32mx/lib/libc.a(doscan_cdfFnopsuxX.eo) (fgetc)
/opt/microchip/xc32/v1.21/bin/../lib/gcc/pic32mx/4.5.2/../../../../pic32mx/lib/libc.a(_fputc_simple.o)
                              /opt/microchip/xc32/v1.21/bin/../lib/gcc/pic32mx/4.5.2/../../../../pic32mx/lib/libc.a(doprnt_cdnopuxX.eo) (fputc)
/opt/microchip/xc32/v1.21/bin/../lib/gcc/pic32mx/4.5.2/../../../../pic32mx/lib/libc.a(atoi.o)
                              /opt/microchip/xc32/v1.21/bin/../lib/gcc/pic32mx/4.5.2/../../../../pic32mx/lib/libc.a(doscan_cdfFnopsuxX.eo) (atoi)
/opt/microchip/xc32/v1.21/bin/../lib/gcc/pic32mx/4.5.2/../../../../pic32mx/lib/libc.a(powersf.o)
                              /opt/microchip/xc32/v1.21/bin/../lib/gcc/pic32mx/4.5.2/../../../../pic32mx/lib/libc.a(doprnt.o) (_powers_f)
/opt/microchip/xc32/v1.21/bin/../lib/gcc/pic32mx/4.5.2/../../../../pic32mx/lib/libc.a(strtod.o)
                              /opt/microchip/xc32/v1.21/bin/../lib/gcc/pic32mx/4.5.2/../../../../pic32mx/lib/libc.a(doscan_cdfFnopsuxX.eo) (strtod)
/opt/microchip/xc32/v1.21/bin/../lib/gcc/pic32mx/4.5.2/../../../../pic32mx/lib/libc.a(strtof.o)
                              /opt/microchip/xc32/v1.21/bin/../lib/gcc/pic32mx/4.5.2/../../../../pic32mx/lib/libc.a(doscan_cdfFnopsuxX.eo) (strtof)
/opt/microchip/xc32/v1.21/bin/../lib/gcc/pic32mx/4.5.2/../../../../pic32mx/lib/libc.a(ungetc.o)
                              /opt/microchip/xc32/v1.21/bin/../lib/gcc/pic32mx/4.5.2/../../../../pic32mx/lib/libc.a(doscan_cdfFnopsuxX.eo) (ungetc)
/opt/microchip/xc32/v1.21/bin/../lib/gcc/pic32mx/4.5.2/../../../../pic32mx/lib/libc.a(_iob.o)
                              /opt/microchip/xc32/v1.21/bin/../lib/gcc/pic32mx/4.5.2/../../../../pic32mx/lib/libc.a(_fputc_simple.o) (_outdone)
/opt/microchip/xc32/v1.21/bin/../lib/gcc/pic32mx/4.5.2/../../../../pic32mx/lib/libc.a(filbuf.o)
                              /opt/microchip/xc32/v1.21/bin/../lib/gcc/pic32mx/4.5.2/../../../../pic32mx/lib/libc.a(fgetc.o) (_filbuf)
/opt/microchip/xc32/v1.21/bin/../lib/gcc/pic32mx/4.5.2/../../../../pic32mx/lib/libc.a(_flsbuf_simple.o)
                              /opt/microchip/xc32/v1.21/bin/../lib/gcc/pic32mx/4.5.2/../../../../pic32mx/lib/libc.a(_fputc_simple.o) (_flsbuf)
/opt/microchip/xc32/v1.21/bin/../lib/gcc/pic32mx/4.5.2/../../../../pic32mx/lib/libc.a(fflush.o)
                              /opt/microchip/xc32/v1.21/bin/../lib/gcc/pic32mx/4.5.2/../../../../pic32mx/lib/libc.a(filbuf.o) (fflush)
/opt/microchip/xc32/v1.21/bin/../lib/gcc/pic32mx/4.5.2/../../../../pic32mx/lib/libpic32.a(read.o)
                              /opt/microchip/xc32/v1.21/bin/../lib/gcc/pic32mx/4.5.2/../../../../pic32mx/lib/libc.a(filbuf.o) (read)
/opt/microchip/xc32/v1.21/bin/../lib/gcc/pic32mx/4.5.2/../../../../pic32mx/lib/libpic32.a(write.o)
                              /opt/microchip/xc32/v1.21/bin/../lib/gcc/pic32mx/4.5.2/../../../../pic32mx/lib/libc.a(_fputc_simple.o) (write)
/opt/microchip/xc32/v1.21/bin/../lib/gcc/pic32mx/4.5.2/../../../../pic32mx/lib/libpic32.a(xc32_uart.o)
                              /opt/microchip/xc32/v1.21/bin/../lib/gcc/pic32mx/4.5.2/../../../../pic32mx/lib/libpic32.a(read.o) (__XC_UART)
/opt/microchip/xc32/v1.21/bin/../lib/gcc/pic32mx/4.5.2/../../../../pic32mx/lib/libpic32.a(_mon_putc.o)
                              /opt/microchip/xc32/v1.21/bin/../lib/gcc/pic32mx/4.5.2/../../../../pic32mx/lib/libpic32.a(write.o) (_mon_putc)
/opt/microchip/xc32/v1.21/bin/../lib/gcc/pic32mx/4.5.2/../../../../pic32mx/lib/libm.a(fpmod32.o)
                              /opt/microchip/xc32/v1.21/bin/../lib/gcc/pic32mx/4.5.2/../../../../pic32mx/lib/libc.a(doprnt.o) (frexpf)
/opt/microchip/xc32/v1.21/bin/../lib/gcc/pic32mx/4.5.2/../../../../pic32mx/lib/libm.a(dp32.o)
                              /opt/microchip/xc32/v1.21/bin/../lib/gcc/pic32mx/4.5.2/../../../../pic32mx/lib/libc.a(doscan_cdfFnopsuxX.eo) (fptodp)
/opt/microchip/xc32/v1.21/bin/../lib/gcc/pic32mx/4.5.2/../../../../pic32mx/lib/libe.a(_floatdisf.o)
                              /opt/microchip/xc32/v1.21/bin/../lib/gcc/pic32mx/4.5.2/../../../../pic32mx/lib/libc.a(doprnt.o) (__floatdisf)
/opt/microchip/xc32/v1.21/bin/../lib/gcc/pic32mx/4.5.2/../../../../pic32mx/lib/libe.a(_strtod.o)
                              /opt/microchip/xc32/v1.21/bin/../lib/gcc/pic32mx/4.5.2/../../../../pic32mx/lib/libc.a(strtod.o) (__strtod)
/opt/microchip/xc32/v1.21/bin/../lib/gcc/pic32mx/4.5.2/../../../../pic32mx/lib/libe.a(_strtof.o)
                              /opt/microchip/xc32/v1.21/bin/../lib/gcc/pic32mx/4.5.2/../../../../pic32mx/lib/libc.a(strtof.o) (__strtof)
/opt/microchip/xc32/v1.21/bin/../lib/gcc/pic32mx/4.5.2/../../../../pic32mx/lib/libe.a(_ldexp.o)
                              /opt/microchip/xc32/v1.21/bin/../lib/gcc/pic32mx/4.5.2/../../../../pic32mx/lib/libe.a(_strtod.o) (__ldexp)
/opt/microchip/xc32/v1.21/bin/../lib/gcc/pic32mx/4.5.2/../../../../pic32mx/lib/libe.a(_ldexpf.o)
                              /opt/microchip/xc32/v1.21/bin/../lib/gcc/pic32mx/4.5.2/../../../../pic32mx/lib/libe.a(_strtof.o) (__ldexpf)
/opt/microchip/xc32/v1.21/bin/../lib/gcc/pic32mx/4.5.2/libgcc.a(_lshrdi3.o)
                              /opt/microchip/xc32/v1.21/bin/../lib/gcc/pic32mx/4.5.2/../../../../pic32mx/lib/libe.a(_ldexp.o) (__lshrdi3)
/opt/microchip/xc32/v1.21/bin/../lib/gcc/pic32mx/4.5.2/libgcc.a(_ashldi3.o)
                              /opt/microchip/xc32/v1.21/bin/../lib/gcc/pic32mx/4.5.2/../../../../pic32mx/lib/libe.a(_ldexp.o) (__ashldi3)
/opt/microchip/xc32/v1.21/bin/../lib/gcc/pic32mx/4.5.2/libgcc.a(_floatundisf.o)
                              /opt/microchip/xc32/v1.21/bin/../lib/gcc/pic32mx/4.5.2/../../../../pic32mx/lib/libc.a(doprnt.o) (__floatundisf)
/opt/microchip/xc32/v1.21/bin/../lib/gcc/pic32mx/4.5.2/libgcc.a(_umoddi3.o)
                              /opt/microchip/xc32/v1.21/bin/../lib/gcc/pic32mx/4.5.2/../../../../pic32mx/lib/libc.a(doprnt_cdnopuxX.eo) (__umoddi3)
/opt/microchip/xc32/v1.21/bin/../lib/gcc/pic32mx/4.5.2/libgcc.a(floatunsisf.o)
                              /opt/microchip/xc32/v1.21/bin/../lib/gcc/pic32mx/4.5.2/../../../../pic32mx/lib/libc.a(doprnt.o) (__floatunsisf)
/opt/microchip/xc32/v1.21/bin/../lib/gcc/pic32mx/4.5.2/../../../../pic32mx/lib/libpic32.a(errno.o)
                              /opt/microchip/xc32/v1.21/bin/../lib/gcc/pic32mx/4.5.2/../../../../pic32mx/lib/libe.a(_strtod.o) (errno)

Allocating common symbols
Common symbol       size              file

stringPrinted       0x4               build/debug/production/src/main.o
ep_data_in          0x4               build/debug/production/_ext/870548313/usb_device.o
tempCWDobj          0x44              build/debug/production/_ext/71113213/FSIO.o
rxETUtimeDivisorFactor
                    0x2               build/debug/production/_ext/2096855388/SCpic32.o
RTC_date            0x4               build/debug/production/src/util.o
gMediaSectorSize    0x2               build/debug/production/_ext/71113213/SD-SPI.o
inPipes             0x10              build/debug/production/_ext/870548313/usb_device.o
TmpBuff             0x1000            build/debug/production/src/main.o
gSDMode             0x1               build/debug/production/_ext/71113213/SD-SPI.o
control_signal_bitmap
                    0x4               build/debug/production/_ext/1379786196/usb_function_cdc.o
Comms_Out_Buffer    0x80              build/debug/production/src/main.o
scTA2               0x1               build/debug/production/_ext/2096855388/SClib.o
baudRate            0x4               build/debug/production/_ext/2096855388/SCpic32.o
USBDeferStatusStagePacket
                    0x4               build/debug/production/_ext/870548313/usb_device.o
USTATcopy           0x1               build/debug/production/_ext/870548313/usb_device.o
utf16Filename       0x4               build/debug/production/_ext/71113213/FSIO.o
MDD_SDSPI_finalLBA  0x4               build/debug/production/_ext/71113213/SD-SPI.o
recordSearchLength  0x2               build/debug/production/_ext/71113213/FSIO.o
CtrlTrfData         0x40              build/debug/production/_ext/870548313/usb_device.o
RemoteWakeup        0x4               build/debug/production/_ext/870548313/usb_device.o
TempClusterCalc     0x4               build/debug/production/_ext/71113213/FSIO.o
cdc_tx_len          0x1               build/debug/production/_ext/1379786196/usb_function_cdc.o
EMU_Reset_Data      0x4               build/debug/production/src/main.o
cgtETU              0x2               build/debug/production/_ext/2096855388/SClib.o
controlTransferState
                    0x1               build/debug/production/_ext/870548313/usb_device.o
gTimeCrtTime        0x2               build/debug/production/_ext/71113213/FSIO.o
PSK_Min_Pulse       0x4               build/debug/production/src/isr.o
cdc_trf_state       0x1               build/debug/production/_ext/1379786196/usb_function_cdc.o
USBStatusStageTimeoutCounter
                    0x1               build/debug/production/_ext/870548313/usb_device.o
cdc_data_tx         0x40              build/debug/production/_ext/1379786196/usb_function_cdc.o
EMU_SubCarrier_T0   0x1               build/debug/production/src/main.o
scTB3               0x1               build/debug/production/_ext/2096855388/SClib.o
RFIDlerConfig       0xf8              build/debug/production/src/main.o
fileFoundString     0x20a             build/debug/production/_ext/71113213/FSIO.o
pDst                0x4               build/debug/production/_ext/870548313/usb_device.o
lfnData             0x606             build/debug/production/_ext/71113213/FSIO.o
gFileSlotOpen       0x3               build/debug/production/_ext/71113213/FSIO.o
scTA1               0x1               build/debug/production/_ext/2096855388/SClib.o
EMU_DataBitRate     0x4               build/debug/production/src/main.o
cgtInMicroSeconds   0x4               build/debug/production/_ext/2096855388/SClib.o
USBDeferINDataStagePackets
                    0x4               build/debug/production/_ext/870548313/usb_device.o
cdc_notice          0x8               build/debug/production/_ext/1379786196/usb_function_cdc.o
buttonPressed       0x4               build/debug/production/src/main.o
ep_data_out         0x4               build/debug/production/_ext/870548313/usb_device.o
cdc_mem_type        0x1               build/debug/production/_ext/1379786196/usb_function_cdc.o
SetupPkt            0x8               build/debug/production/_ext/870548313/usb_device.o
pBDTEntryEP0OutNext
                    0x4               build/debug/production/_ext/870548313/usb_device.o
USBAlternateInterface
                    0x1               build/debug/production/_ext/870548313/usb_device.o
outPipes            0xb               build/debug/production/_ext/870548313/usb_device.o
gDiskData           0x26              build/debug/production/_ext/71113213/FSIO.o
scTD3               0x1               build/debug/production/_ext/2096855388/SClib.o
EMU_ThisBit         0x1               build/debug/production/src/main.o
gFATBuffer          0x200             build/debug/production/_ext/71113213/FSIO.o
CDCDataInHandle     0x4               build/debug/production/_ext/1379786196/usb_function_cdc.o
scTC3               0x1               build/debug/production/_ext/2096855388/SClib.o
USBStatusStageEnabledFlag2
                    0x4               build/debug/production/_ext/870548313/usb_device.o
HW_Bits             0x4               build/debug/production/src/isr.o
scPPSresponseLength
                    0x1               build/debug/production/_ext/2096855388/SClib.o
BothEP0OutUOWNsSet  0x4               build/debug/production/_ext/870548313/usb_device.o
cwd                 0x44              build/debug/production/_ext/71113213/FSIO.o
gTimeAccDate        0x2               build/debug/production/_ext/71113213/FSIO.o
USBBusIsSuspended   0x4               build/debug/production/_ext/870548313/usb_device.o
USBDeferOUTDataStagePackets
                    0x4               build/debug/production/_ext/870548313/usb_device.o
pCDCSrc             0x4               build/debug/production/_ext/1379786196/usb_function_cdc.o
scTB2               0x1               build/debug/production/_ext/2096855388/SClib.o
gTimeCrtDate        0x2               build/debug/production/_ext/71113213/FSIO.o
EMU_SubCarrier_T1   0x1               build/debug/production/src/main.o
EMU_Data            0x4               build/debug/production/src/main.o
scReferenceClock    0x4               build/debug/production/_ext/2096855388/SCpic32.o
pBDTEntryOut        0x10              build/debug/production/_ext/870548313/usb_device.o
USBActiveConfiguration
                    0x1               build/debug/production/_ext/870548313/usb_device.o
RTC_time            0x4               build/debug/production/src/util.o
asciiFilename       0x4               build/debug/production/_ext/71113213/FSIO.o
RWD_Command_Buff    0x100             build/debug/production/src/main.o
cdc_rx_len          0x1               build/debug/production/_ext/1379786196/usb_function_cdc.o
DataBuff            0x800             build/debug/production/src/main.o
scTD2               0x1               build/debug/production/_ext/2096855388/SClib.o
FSerrno             0x1               build/debug/production/_ext/71113213/FSIO.o
BaudRateGen         0x4               build/debug/production/_ext/1379786196/usb_function_cdc.o
gDataBuffer         0x200             build/debug/production/_ext/71113213/FSIO.o
pCDCDst             0x4               build/debug/production/_ext/1379786196/usb_function_cdc.o
fileNameLength      0x2               build/debug/production/_ext/71113213/FSIO.o
dirCleared          0x1               build/debug/production/_ext/71113213/FSIO.o
SampleAnalogue      0x2000            build/debug/production/src/main.o
gTimeWrtTime        0x2               build/debug/production/_ext/71113213/FSIO.o
scTC2               0x1               build/debug/production/_ext/2096855388/SClib.o
USBStatusStageEnabledFlag1
                    0x4               build/debug/production/_ext/870548313/usb_device.o
buttonCount         0x1               build/debug/production/src/main.o
recordFoundName     0x202             build/debug/production/_ext/71113213/FSIO.o
USBDeviceState      0x4               build/debug/production/_ext/870548313/usb_device.o
t0WWTetu            0x4               build/debug/production/_ext/2096855388/SClib.o
gFileArray          0xcc              build/debug/production/_ext/71113213/FSIO.o
recordSearchName    0x202             build/debug/production/_ext/71113213/FSIO.o
scPPSresponse       0x7               build/debug/production/_ext/2096855388/SClib.o
scTB1               0x1               build/debug/production/_ext/2096855388/SClib.o
RFIDlerVTag         0x1208            build/debug/production/src/main.o
pBDTEntryIn         0x10              build/debug/production/_ext/870548313/usb_device.o
Comms_In_Buffer     0x80              build/debug/production/src/main.o
pBDTEntryEP0OutCurrent
                    0x4               build/debug/production/_ext/870548313/usb_device.o
line_coding         0x8               build/debug/production/_ext/1379786196/usb_function_cdc.o
Hitag_Crypto_State  0x10              build/debug/production/src/hitag.o
scTA3               0x1               build/debug/production/_ext/2096855388/SClib.o
scCardATR           0x21              build/debug/production/_ext/2096855388/SClib.o
ReaderPeriod        0x1               build/debug/production/src/main.o
FatRootDirClusterValue
                    0x4               build/debug/production/_ext/71113213/FSIO.o
shortPacketStatus   0x1               build/debug/production/_ext/870548313/usb_device.o
EMU_Repeat          0x4               build/debug/production/src/main.o
gTimeCrtMS          0x1               build/debug/production/_ext/71113213/FSIO.o
gFileTemp           0x44              build/debug/production/_ext/71113213/FSIO.o
scTD1               0x1               build/debug/production/_ext/2096855388/SClib.o
cdc_data_rx         0x40              build/debug/production/_ext/1379786196/usb_function_cdc.o
tempDirectoryString
                    0x20a             build/debug/production/_ext/71113213/FSIO.o
CDCDataOutHandle    0x4               build/debug/production/_ext/1379786196/usb_function_cdc.o
defaultArray        0xa               build/debug/production/_ext/71113213/FSIO.o
gTimeWrtDate        0x2               build/debug/production/_ext/71113213/FSIO.o
oneETUtimeinMicroSeconds
                    0x2               build/debug/production/_ext/2096855388/SCpic32.o
TmpBits             0x800             build/debug/production/src/main.o
scTC1               0x1               build/debug/production/_ext/2096855388/SClib.o
BDT                 0x80              build/debug/production/_ext/870548313/usb_device.o
dummy_encapsulated_cmd_response
                    0x8               build/debug/production/_ext/1379786196/usb_function_cdc.o
endpoint_number     0x1               build/debug/production/_ext/870548313/usb_device.o

Microchip PIC32 Memory-Usage Report

kseg0 Program-Memory Usage
section                    address  length [bytes]      (dec)  Description
-------                 ----------  -------------------------  -----------
.text                   0x9d006a20        0x17f40       98112  App's exec code 
.rodata                 0x9d01e960         0x4380       17280  Read-only const 
.text                   0x9d022ce0         0x78f8       30968  App's exec code 
.text.vfprintf          0x9d02a5d8         0x1b30        6960   
.text                   0x9d02c108         0xa3fc       41980  App's exec code 
.text._vfprintf_cdnopux 0x9d036504          0xab0        2736   
.text._vfscanf_cdfFnops 0x9d036fb4          0xa7c        2684   
.text                   0x9d037a30         0x39c4       14788  App's exec code 
.text._vfscanf_cdnopuxX 0x9d03b3f4          0x884        2180   
.text                   0x9d03bc78         0x107c        4220  App's exec code 
.rodata                 0x9d03ccf4          0x7d4        2004  Read-only const 
.text                   0x9d03d4c8         0x4518       17688  App's exec code 
.text.__strtod          0x9d0419e0          0x3e8        1000   
.text                   0x9d041dc8          0xb70        2928  App's exec code 
.rodata                 0x9d042938          0x3b8         952  Read-only const 
.text                   0x9d042cf0          0x358         856  App's exec code 
.text.__strtof          0x9d043048          0x358         856   
.text                   0x9d0433a0          0x34c         844  App's exec code 
.dinit                  0x9d0436ec          0x348         840   
.text                   0x9d043a34          0x870        2160  App's exec code 
.text.__floatdisf       0x9d0442a4          0x220         544   
.text                   0x9d0444c4          0x5c4        1476  App's exec code 
.text.__ldexp           0x9d044a88          0x1d0         464   
.text                   0x9d044c58          0x1a0         416  App's exec code 
.text.scale             0x9d044df8          0x194         404   
.text.fround            0x9d044f8c          0x17c         380   
.rodata                 0x9d045108          0x16c         364  Read-only const 
.text.NVMProgram        0x9d045274          0x16c         364   
.text                   0x9d0453e0          0x2d0         720  App's exec code 
.text._filbuf           0x9d0456b0          0x168         360   
.text.SpiChnOpen        0x9d045818          0x150         336   
.text.fputc             0x9d045968          0x140         320   
.text.read              0x9d045aa8          0x140         320   
.rodata                 0x9d045be8          0x12c         300  Read-only const 
.text._flsbuf           0x9d045d14          0x12c         300   
.text                   0x9d045e40          0x120         288  App's exec code 
.text._NVMOperation     0x9d045f60          0x114         276   
.text.fgetc             0x9d046074          0x108         264   
.rodata                 0x9d04617c          0x104         260  Read-only const 
.text.__ldexpf          0x9d046280          0x104         260   
.rodata                 0x9d046384          0x398         920  Read-only const 
.text                   0x9d04671c           0xd4         212  App's exec code 
.text.general_exception 0x9d0467f0           0xd0         208   
.rodata                 0x9d0468c0          0x260         608  Read-only const 
.text.SpiChnClose       0x9d046b20           0xbc         188   
.text                   0x9d046bdc           0xb8         184  App's exec code 
.text._mon_putc         0x9d046c94           0xb4         180   
.text                   0x9d046d48           0xa8         168  App's exec code 
.rodata                 0x9d046df0           0xa4         164  Read-only const 
.text                   0x9d046e94          0x144         324  App's exec code 
.rodata                 0x9d046fd8           0xa0         160  Read-only const 
.text.atoi              0x9d047078           0xa0         160   
.rodata                 0x9d047118           0x9c         156  Read-only const 
.text                   0x9d0471b4           0x98         152  App's exec code 
.text.rand              0x9d04724c           0x98         152   
.rodata                 0x9d0472e4           0x94         148  Read-only const 
.text.range             0x9d047378          0x120         288   
.text.fflush            0x9d047498           0x90         144   
.rodata                 0x9d047528           0x84         132  Read-only const 
.text.write             0x9d0475ac           0x84         132   
.rodata                 0x9d047630           0x80         128  Read-only const 
.text.SoftReset         0x9d0476b0           0x78         120   
.text.strncmp           0x9d047728           0x74         116   
.text.ungetc            0x9d04779c           0x74         116   
.text                   0x9d047810           0x6c         108  App's exec code 
.rodata                 0x9d04787c           0x68         104  Read-only const 
.text._sprintf_cdnopuxX 0x9d0478e4           0x68         104   
.text.sprintf           0x9d04794c           0x68         104   
.rodata                 0x9d0479b4           0xcc         204  Read-only const 
.text.OpenSPI1          0x9d047a80           0x60          96   
.text.wspace            0x9d047ae0           0xc0         192   
.text.strncpy           0x9d047ba0           0x5c          92   
.rodata                 0x9d047bfc           0x54          84  Read-only const 
.text._sscanf_cdfFnopsu 0x9d047c50           0x54          84   
.text.INTEnable         0x9d047ca4           0x50          80   
.rodata                 0x9d047cf4           0x4c          76  Read-only const 
.text                   0x9d047d40           0x4c          76  App's exec code 
.text._DefaultInterrupt 0x9d047d8c           0x48          72   
.rodata.f5pow.f5pow     0x9d047dd4           0x48          72   
.text                   0x9d047e1c           0x88         136  App's exec code 
.rodata                 0x9d047ea4           0x80         128  Read-only const 
.text.PORTSetPinsDigita 0x9d047f24           0x3c          60   
.text.PORTSetPinsDigita 0x9d047f60           0x3c          60   
.text                   0x9d047f9c           0x38          56  App's exec code 
.text.INTSetVectorPrior 0x9d047fd4           0x38          56   
.text.INTSetVectorSubPr 0x9d04800c           0x38          56   
.text.NVMWriteRow       0x9d048044           0x38          56   
.text.INTEnableSystemMu 0x9d04807c           0x34          52   
.text.INTConfigureSyste 0x9d0480b0           0x30          48   
.text.INTGetVectorPrior 0x9d0480e0           0x2c          44   
.text.INTGetVectorSubPr 0x9d04810c           0x2c          44   
.text.NVMErasePage      0x9d048138           0x2c          44   
.text.INTClearFlag      0x9d048164           0x28          40   
.text.INTSetFlag        0x9d04818c           0x28          40   
.text.INTGetFlag        0x9d0481b4           0x28          40   
.text.INTGetEnable      0x9d0481dc           0x28          40   
.text.PORTResetPins     0x9d048204           0x28          40   
.text.strtod            0x9d04822c           0x28          40   
.text.tolower           0x9d048254           0x24          36   
.text.toupper           0x9d048278           0x24          36   
.rodata                 0x9d04829c           0x20          32  Read-only const 
.text.getcSPI1          0x9d0482bc           0x20          32   
.rodata                 0x9d0482dc           0x1c          28  Read-only const 
.text.INTRestoreInterru 0x9d0482f8           0x1c          28   
.text.srand             0x9d048314           0x1c          28   
.text._dstrtod          0x9d048330           0x1c          28   
.text.strtof            0x9d04834c           0x1c          28   
.text.strtodf           0x9d048368           0x1c          28   
.text.CheKseg0CacheOff  0x9d048384           0x18          24   
.text.CheKseg0CacheOn   0x9d04839c           0x18          24   
.text                   0x9d0483b4           0x18          24  App's exec code 
.text.isalnum           0x9d0483cc           0x18          24   
.text.isalpha           0x9d0483e4           0x18          24   
.text.iscntrl           0x9d0483fc           0x18          24   
.text.isdigit           0x9d048414           0x18          24   
.text.isgraph           0x9d04842c           0x18          24   
.text.islower           0x9d048444           0x18          24   
.text.isprint           0x9d04845c           0x18          24   
.text.ispunct           0x9d048474           0x18          24   
.text.isspace           0x9d04848c           0x18          24   
.text.isupper           0x9d0484a4           0x18          24   
.text.isxdigit          0x9d0484bc           0x18          24   
.rodata.f5pow.f5pow     0x9d0484d4           0x18          24   
.rodata                 0x9d0484ec           0x40          64  Read-only const 
.text._bootstrap_except 0x9d04852c            0xc          12   
.text._general_exceptio 0x9d048538            0xc          12   
.text.INTEnableInterrup 0x9d048544            0x8           8   
.text.INTDisableInterru 0x9d04854c            0x8           8   
.text._on_reset         0x9d048554            0x8           8   
.text._on_bootstrap     0x9d04855c            0x8           8   
.text.isascii           0x9d048564            0x8           8   
.text.toascii           0x9d04856c            0x8           8   
.text._tolower          0x9d048574            0x8           8   
.text._toupper          0x9d04857c            0x8           8   
.rodata                 0x9d048584            0x8           8  Read-only const 
      Total kseg0_program_mem used  :     0x41b6c      269164  53.7% of 0x7a600

kseg0 Boot-Memory Usage
section                    address  length [bytes]      (dec)  Description
-------                 ----------  -------------------------  -----------
         Total kseg0_boot_mem used  :           0           0  <1% of 0x970

Exception-Memory Usage 
section                    address  length [bytes]      (dec)  Description
-------                 ----------  -------------------------  -----------
.app_excpt              0x9d005180           0x10          16  General-Exception 
.vector_0               0x9d005200            0x8           8  Interrupt Vector 0 
.vector_1               0x9d005220            0x8           8  Interrupt Vector 1 
.vector_2               0x9d005240            0x8           8  Interrupt Vector 2 
.vector_3               0x9d005260            0x8           8  Interrupt Vector 3 
.vector_4               0x9d005280            0x8           8  Interrupt Vector 4 
.vector_5               0x9d0052a0            0x8           8  Interrupt Vector 5 
.vector_6               0x9d0052c0            0x8           8  Interrupt Vector 6 
.vector_7               0x9d0052e0            0x8           8  Interrupt Vector 7 
.vector_8               0x9d005300            0x8           8  Interrupt Vector 8 
.vector_9               0x9d005320            0x8           8  Interrupt Vector 9 
.vector_10              0x9d005340            0x8           8  Interrupt Vector 10 
.vector_11              0x9d005360            0x8           8  Interrupt Vector 11 
.vector_12              0x9d005380            0x8           8  Interrupt Vector 12 
.vector_13              0x9d0053a0            0x8           8  Interrupt Vector 13 
.vector_14              0x9d0053c0            0x8           8  Interrupt Vector 14 
.vector_15              0x9d0053e0            0x8           8  Interrupt Vector 15 
.vector_16              0x9d005400            0x8           8  Interrupt Vector 16 
.vector_17              0x9d005420            0x8           8  Interrupt Vector 17 
.vector_18              0x9d005440            0x8           8  Interrupt Vector 18 
.vector_19              0x9d005460            0x8           8  Interrupt Vector 19 
.vector_20              0x9d005480            0x8           8  Interrupt Vector 20 
.vector_21              0x9d0054a0            0x8           8  Interrupt Vector 21 
.vector_22              0x9d0054c0            0x8           8  Interrupt Vector 22 
.vector_23              0x9d0054e0            0x8           8  Interrupt Vector 23 
.vector_24              0x9d005500            0x8           8  Interrupt Vector 24 
.vector_25              0x9d005520            0x8           8  Interrupt Vector 25 
.vector_26              0x9d005540            0x8           8  Interrupt Vector 26 
.vector_27              0x9d005560            0x8           8  Interrupt Vector 27 
.vector_28              0x9d005580            0x8           8  Interrupt Vector 28 
.vector_29              0x9d0055a0            0x8           8  Interrupt Vector 29 
.vector_30              0x9d0055c0            0x8           8  Interrupt Vector 30 
.vector_31              0x9d0055e0            0x8           8  Interrupt Vector 31 
.vector_32              0x9d005600            0x8           8  Interrupt Vector 32 
.vector_33              0x9d005620            0x8           8  Interrupt Vector 33 
.vector_34              0x9d005640            0x8           8  Interrupt Vector 34 
.vector_35              0x9d005660            0x8           8  Interrupt Vector 35 
.vector_36              0x9d005680            0x8           8  Interrupt Vector 36 
.vector_37              0x9d0056a0            0x8           8  Interrupt Vector 37 
.vector_38              0x9d0056c0            0x8           8  Interrupt Vector 38 
.vector_39              0x9d0056e0            0x8           8  Interrupt Vector 39 
.vector_40              0x9d005700            0x8           8  Interrupt Vector 40 
.vector_41              0x9d005720            0x8           8  Interrupt Vector 41 
.vector_42              0x9d005740            0x8           8  Interrupt Vector 42 
.vector_43              0x9d005760            0x8           8  Interrupt Vector 43 
.vector_44              0x9d005780            0x8           8  Interrupt Vector 44 
.vector_45              0x9d0057a0            0x8           8  Interrupt Vector 45 
.vector_46              0x9d0057c0            0x8           8  Interrupt Vector 46 
.vector_47              0x9d0057e0            0x8           8  Interrupt Vector 47 
.vector_48              0x9d005800            0x8           8  Interrupt Vector 48 
.vector_49              0x9d005820            0x8           8  Interrupt Vector 49 
.vector_50              0x9d005840            0x8           8  Interrupt Vector 50 
.vector_51              0x9d005860            0x8           8  Interrupt Vector 51 
.vector_52              0x9d005880            0x8           8  Interrupt Vector 52 
.vector_53              0x9d0058a0            0x8           8  Interrupt Vector 53 
.vector_54              0x9d0058c0            0x8           8  Interrupt Vector 54 
.vector_55              0x9d0058e0            0x8           8  Interrupt Vector 55 
.vector_56              0x9d005900            0x8           8  Interrupt Vector 56 
.vector_57              0x9d005920            0x8           8  Interrupt Vector 57 
.vector_58              0x9d005940            0x8           8  Interrupt Vector 58 
.vector_59              0x9d005960            0x8           8  Interrupt Vector 59 
.vector_60              0x9d005980            0x8           8  Interrupt Vector 60 
.vector_61              0x9d0059a0            0x8           8  Interrupt Vector 61 
.vector_62              0x9d0059c0            0x8           8  Interrupt Vector 62 
.vector_63              0x9d0059e0            0x8           8  Interrupt Vector 63 
          Total exception_mem used  :       0x210         528  12.9% of 0x1000

kseg1 Boot-Memory Usage
section                    address  length [bytes]      (dec)  Description
-------                 ----------  -------------------------  -----------
.reset                  0x9d006000          0x1f4         500  Reset handler 
.bev_excpt              0x9d006380           0x10          16  BEV-Exception 
         Total kseg1_boot_mem used  :       0x204         516  44.2% of 0x490
        --------------------------------------------------------------------------
         Total Program Memory used  :     0x41f80      270208  53.1% of 0x7c400
        --------------------------------------------------------------------------


kseg1 Data-Memory Usage
section                    address  length [bytes]      (dec)  Description
-------                 ----------  -------------------------  -----------
.eh_frame               0xa0000004           0x30          48   
.sdata                  0xa0000034           0x40          64  Small init data 
.sbss                   0xa0000074          0x204         516  Small uninit data 
.bss                    0xa0000278          0x128         296  Uninitialized data 
.data                   0xa00003a0           0x4c          76  Initialized data 
.data                   0xa00003ec           0x10          16  Initialized data 
.bss                    0xa00003fc            0x4           4  Uninitialized data 
.bss                    0xa0000400         0x6e10       28176  Uninitialized data 
.bss                    0xa0007210          0x680        1664  Uninitialized data 
.data                   0xa0007890           0xa0         160  Initialized data 
.bss                    0xa0007930           0x68         104  Uninitialized data 
.bss                    0xa0007998           0x1c          28  Uninitialized data 
.bss                    0xa00079b4            0x4           4  Uninitialized data 
         Total kseg1_data_mem used  :      0x79b4       31156  95.8% of 0x7f00
        --------------------------------------------------------------------------
            Total Data Memory used  :      0x79b4       31156  95.8% of 0x7f00
        --------------------------------------------------------------------------


Dynamic Data-Memory Reservation
section                    address  length [bytes]      (dec)  Description
-------                 ----------  -------------------------  -----------
heap                    0xa00079c0           0x10          16  Reserved for heap 
stack                   0xa00079e8          0x510        1296  Reserved for stack 

        --------------------------------------------------------------------------

Discarded input sections

 .pdr           0x00000000       0xa0 /opt/microchip/xc32/v1.21/bin/../lib/gcc/pic32mx/4.5.2/../../../../pic32mx/lib/crt0.o
 .reginfo       0x00000000       0x18 build/debug/production/_ext/71113213/SD-SPI.o
 .pdr           0x00000000      0x240 build/debug/production/_ext/71113213/SD-SPI.o
 .reginfo       0x00000000       0x18 build/debug/production/_ext/71113213/FSIO.o
 .pdr           0x00000000      0x8e0 build/debug/production/_ext/71113213/FSIO.o
 .reginfo       0x00000000       0x18 build/debug/production/_ext/2096855388/SClib.o
 .pdr           0x00000000      0x120 build/debug/production/_ext/2096855388/SClib.o
 .reginfo       0x00000000       0x18 build/debug/production/_ext/2096855388/SCpic32.o
 .pdr           0x00000000      0x120 build/debug/production/_ext/2096855388/SCpic32.o
 .reginfo       0x00000000       0x18 build/debug/production/_ext/870548313/usb_device.o
 .pdr           0x00000000      0x360 build/debug/production/_ext/870548313/usb_device.o
 .reginfo       0x00000000       0x18 build/debug/production/_ext/1379786196/usb_function_cdc.o
 .pdr           0x00000000      0x100 build/debug/production/_ext/1379786196/usb_function_cdc.o
 .reginfo       0x00000000       0x18 build/debug/production/src/indala.o
 .pdr           0x00000000       0xa0 build/debug/production/src/indala.o
 .reginfo       0x00000000       0x18 build/debug/production/src/main.o
 .pdr           0x00000000      0x160 build/debug/production/src/main.o
 .reginfo       0x00000000       0x18 build/debug/production/src/psk.o
 .pdr           0x00000000       0xe0 build/debug/production/src/psk.o
 .reginfo       0x00000000       0x18 build/debug/production/src/usb_descriptors.o
 .pdr           0x00000000        0x0 build/debug/production/src/usb_descriptors.o
 .reginfo       0x00000000       0x18 build/debug/production/src/util.o
 .pdr           0x00000000      0x720 build/debug/production/src/util.o
 .reginfo       0x00000000       0x18 build/debug/production/src/emulate.o
 .pdr           0x00000000       0x20 build/debug/production/src/emulate.o
 .reginfo       0x00000000       0x18 build/debug/production/src/ask.o
 .pdr           0x00000000       0xe0 build/debug/production/src/ask.o
 .reginfo       0x00000000       0x18 build/debug/production/src/fsk.o
 .pdr           0x00000000      0x100 build/debug/production/src/fsk.o
 .reginfo       0x00000000       0x18 build/debug/production/src/clock.o
 .pdr           0x00000000       0xa0 build/debug/production/src/clock.o
 .reginfo       0x00000000       0x18 build/debug/production/src/rwd.o
 .pdr           0x00000000       0x60 build/debug/production/src/rwd.o
 .reginfo       0x00000000       0x18 build/debug/production/src/detect.o
 .pdr           0x00000000       0x20 build/debug/production/src/detect.o
 .reginfo       0x00000000       0x18 build/debug/production/src/hitagcrypto.o
 .pdr           0x00000000       0xc0 build/debug/production/src/hitagcrypto.o
 .reginfo       0x00000000       0x18 build/debug/production/src/wiegand.o
 .pdr           0x00000000      0x160 build/debug/production/src/wiegand.o
 .reginfo       0x00000000       0x18 build/debug/production/src/comms.o
 .pdr           0x00000000      0x180 build/debug/production/src/comms.o
 .reginfo       0x00000000       0x18 build/debug/production/src/nvm.o
 .pdr           0x00000000       0xa0 build/debug/production/src/nvm.o
 .reginfo       0x00000000       0x18 build/debug/production/src/mcp414x.o
 .pdr           0x00000000       0xe0 build/debug/production/src/mcp414x.o
 .reginfo       0x00000000       0x18 build/debug/production/src/spi.o
 .pdr           0x00000000       0xa0 build/debug/production/src/spi.o
 .reginfo       0x00000000       0x18 build/debug/production/src/uart3.o
 .pdr           0x00000000      0x100 build/debug/production/src/uart3.o
 .reginfo       0x00000000       0x18 build/debug/production/src/tags.o
 .pdr           0x00000000      0x100 build/debug/production/src/tags.o
 .reginfo       0x00000000       0x18 build/debug/production/src/unique.o
 .pdr           0x00000000       0xa0 build/debug/production/src/unique.o
 .reginfo       0x00000000       0x18 build/debug/production/src/led.o
 .pdr           0x00000000       0xa0 build/debug/production/src/led.o
 .reginfo       0x00000000       0x18 build/debug/production/src/em.o
 .pdr           0x00000000       0xc0 build/debug/production/src/em.o
 .reginfo       0x00000000       0x18 build/debug/production/src/hid.o
 .pdr           0x00000000       0x80 build/debug/production/src/hid.o
 .reginfo       0x00000000       0x18 build/debug/production/src/read.o
 .pdr           0x00000000       0x20 build/debug/production/src/read.o
 .reginfo       0x00000000       0x18 build/debug/production/src/isr.o
 .pdr           0x00000000       0xc0 build/debug/production/src/isr.o
 .reginfo       0x00000000       0x18 build/debug/production/src/auto.o
 .pdr           0x00000000       0x40 build/debug/production/src/auto.o
 .reginfo       0x00000000       0x18 build/debug/production/src/fdxb.o
 .pdr           0x00000000       0xa0 build/debug/production/src/fdxb.o
 .reginfo       0x00000000       0x18 build/debug/production/src/hitag.o
 .pdr           0x00000000      0x380 build/debug/production/src/hitag.o
 .reginfo       0x00000000       0x18 build/debug/production/src/uid.o
 .pdr           0x00000000       0x60 build/debug/production/src/uid.o
 .reginfo       0x00000000       0x18 build/debug/production/src/login.o
 .pdr           0x00000000       0x20 build/debug/production/src/login.o
 .reginfo       0x00000000       0x18 build/debug/production/src/write.o
 .pdr           0x00000000       0x20 build/debug/production/src/write.o
 .reginfo       0x00000000       0x18 build/debug/production/src/auth.o
 .pdr           0x00000000       0x20 build/debug/production/src/auth.o
 .reginfo       0x00000000       0x18 build/debug/production/src/q5.o
 .pdr           0x00000000      0x180 build/debug/production/src/q5.o
 .reginfo       0x00000000       0x18 build/debug/production/src/vtag.o
 .pdr           0x00000000      0x120 build/debug/production/src/vtag.o
 .reginfo       0x00000000       0x18 build/debug/production/src/config.o
 .pdr           0x00000000       0x60 build/debug/production/src/config.o
 .reginfo       0x00000000       0x18 build/debug/production/src/select.o
 .pdr           0x00000000       0x20 build/debug/production/src/select.o
 .reginfo       0x00000000       0x18 build/debug/production/src/sdcard.o
 .pdr           0x00000000       0x20 build/debug/production/src/sdcard.o
 .reginfo       0x00000000       0x18 build/debug/production/src/debug_pins.o
 .pdr           0x00000000       0xc0 build/debug/production/src/debug_pins.o
 .reginfo       0x00000000       0x18 build/debug/production/src/awid.o
 .pdr           0x00000000       0x80 build/debug/production/src/awid.o
 .reginfo       0x00000000       0x18 build/debug/production/src/analogue.o
 .pdr           0x00000000       0x80 build/debug/production/src/analogue.o
 .reginfo       0x00000000       0x18 /opt/microchip/xc32/v1.21/pic32mx/lib/libmchp_peripheral_32MX795F512L.a(soft_reset_lib.o)
 .pdr           0x00000000       0x20 /opt/microchip/xc32/v1.21/pic32mx/lib/libmchp_peripheral_32MX795F512L.a(soft_reset_lib.o)
 .reginfo       0x00000000       0x18 /opt/microchip/xc32/v1.21/pic32mx/lib/libmchp_peripheral_32MX795F512L.a(pcache.o)
 .pdr           0x00000000       0x40 /opt/microchip/xc32/v1.21/pic32mx/lib/libmchp_peripheral_32MX795F512L.a(pcache.o)
 .reginfo       0x00000000       0x18 /opt/microchip/xc32/v1.21/pic32mx/lib/libmchp_peripheral_32MX795F512L.a(int_configure_system_lib.o)
 .pdr           0x00000000       0x20 /opt/microchip/xc32/v1.21/pic32mx/lib/libmchp_peripheral_32MX795F512L.a(int_configure_system_lib.o)
 .reginfo       0x00000000       0x18 /opt/microchip/xc32/v1.21/pic32mx/lib/libmchp_peripheral_32MX795F512L.a(int_enable_interrupts_lib.o)
 .pdr           0x00000000       0x20 /opt/microchip/xc32/v1.21/pic32mx/lib/libmchp_peripheral_32MX795F512L.a(int_enable_interrupts_lib.o)
 .reginfo       0x00000000       0x18 /opt/microchip/xc32/v1.21/pic32mx/lib/libmchp_peripheral_32MX795F512L.a(int_disable_interrupts_lib.o)
 .pdr           0x00000000       0x20 /opt/microchip/xc32/v1.21/pic32mx/lib/libmchp_peripheral_32MX795F512L.a(int_disable_interrupts_lib.o)
 .reginfo       0x00000000       0x18 /opt/microchip/xc32/v1.21/pic32mx/lib/libmchp_peripheral_32MX795F512L.a(int_restore_interrupts_lib.o)
 .pdr           0x00000000       0x20 /opt/microchip/xc32/v1.21/pic32mx/lib/libmchp_peripheral_32MX795F512L.a(int_restore_interrupts_lib.o)
 .reginfo       0x00000000       0x18 /opt/microchip/xc32/v1.21/pic32mx/lib/libmchp_peripheral_32MX795F512L.a(int_enable_mv_int_lib.o)
 .pdr           0x00000000       0x20 /opt/microchip/xc32/v1.21/pic32mx/lib/libmchp_peripheral_32MX795F512L.a(int_enable_mv_int_lib.o)
 .reginfo       0x00000000       0x18 /opt/microchip/xc32/v1.21/pic32mx/lib/libmchp_peripheral_32MX795F512L.a(int_tbl_lib.o)
 .pdr           0x00000000      0x120 /opt/microchip/xc32/v1.21/pic32mx/lib/libmchp_peripheral_32MX795F512L.a(int_tbl_lib.o)
 .reginfo       0x00000000       0x18 /opt/microchip/xc32/v1.21/pic32mx/lib/libmchp_peripheral_32MX795F512L.a(spi_chn_close_lib.o)
 .pdr           0x00000000       0x20 /opt/microchip/xc32/v1.21/pic32mx/lib/libmchp_peripheral_32MX795F512L.a(spi_chn_close_lib.o)
 .reginfo       0x00000000       0x18 /opt/microchip/xc32/v1.21/pic32mx/lib/libmchp_peripheral_32MX795F512L.a(spi_chn_open_lib.o)
 .pdr           0x00000000       0x20 /opt/microchip/xc32/v1.21/pic32mx/lib/libmchp_peripheral_32MX795F512L.a(spi_chn_open_lib.o)
 .reginfo       0x00000000       0x18 /opt/microchip/xc32/v1.21/pic32mx/lib/libmchp_peripheral_32MX795F512L.a(spi_io_tbl_libp.o)
 .pdr           0x00000000        0x0 /opt/microchip/xc32/v1.21/pic32mx/lib/libmchp_peripheral_32MX795F512L.a(spi_io_tbl_libp.o)
 .reginfo       0x00000000       0x18 /opt/microchip/xc32/v1.21/pic32mx/lib/libmchp_peripheral_32MX795F512L.a(spi_map_tbl_libp.o)
 .pdr           0x00000000        0x0 /opt/microchip/xc32/v1.21/pic32mx/lib/libmchp_peripheral_32MX795F512L.a(spi_map_tbl_libp.o)
 .reginfo       0x00000000       0x18 /opt/microchip/xc32/v1.21/pic32mx/lib/libmchp_peripheral_32MX795F512L.a(spi_getc_spi1_lib_legacy.o)
 .pdr           0x00000000       0x20 /opt/microchip/xc32/v1.21/pic32mx/lib/libmchp_peripheral_32MX795F512L.a(spi_getc_spi1_lib_legacy.o)
 .reginfo       0x00000000       0x18 /opt/microchip/xc32/v1.21/pic32mx/lib/libmchp_peripheral_32MX795F512L.a(spi_open_spi1_lib_legacy.o)
 .pdr           0x00000000       0x20 /opt/microchip/xc32/v1.21/pic32mx/lib/libmchp_peripheral_32MX795F512L.a(spi_open_spi1_lib_legacy.o)
 .reginfo       0x00000000       0x18 /opt/microchip/xc32/v1.21/pic32mx/lib/libmchp_peripheral_32MX795F512L.a(spi_brg_tbl_lib_legacy.o)
 .pdr           0x00000000        0x0 /opt/microchip/xc32/v1.21/pic32mx/lib/libmchp_peripheral_32MX795F512L.a(spi_brg_tbl_lib_legacy.o)
 .reginfo       0x00000000       0x18 /opt/microchip/xc32/v1.21/pic32mx/lib/libmchp_peripheral_32MX795F512L.a(nvm_erase_page_lib.o)
 .pdr           0x00000000       0x20 /opt/microchip/xc32/v1.21/pic32mx/lib/libmchp_peripheral_32MX795F512L.a(nvm_erase_page_lib.o)
 .reginfo       0x00000000       0x18 /opt/microchip/xc32/v1.21/pic32mx/lib/libmchp_peripheral_32MX795F512L.a(nvm_operation_lib.o)
 .pdr           0x00000000       0x20 /opt/microchip/xc32/v1.21/pic32mx/lib/libmchp_peripheral_32MX795F512L.a(nvm_operation_lib.o)
 .reginfo       0x00000000       0x18 /opt/microchip/xc32/v1.21/pic32mx/lib/libmchp_peripheral_32MX795F512L.a(nvm_program_lib.o)
 .pdr           0x00000000       0x20 /opt/microchip/xc32/v1.21/pic32mx/lib/libmchp_peripheral_32MX795F512L.a(nvm_program_lib.o)
 .reginfo       0x00000000       0x18 /opt/microchip/xc32/v1.21/pic32mx/lib/libmchp_peripheral_32MX795F512L.a(nvm_write_row_lib.o)
 .pdr           0x00000000       0x20 /opt/microchip/xc32/v1.21/pic32mx/lib/libmchp_peripheral_32MX795F512L.a(nvm_write_row_lib.o)
 .reginfo       0x00000000       0x18 /opt/microchip/xc32/v1.21/pic32mx/lib/libmchp_peripheral_32MX795F512L.a(port_reset_pins_lib.o)
 .pdr           0x00000000       0x20 /opt/microchip/xc32/v1.21/pic32mx/lib/libmchp_peripheral_32MX795F512L.a(port_reset_pins_lib.o)
 .reginfo       0x00000000       0x18 /opt/microchip/xc32/v1.21/pic32mx/lib/libmchp_peripheral_32MX795F512L.a(port_set_pins_digital_in_lib.o)
 .pdr           0x00000000       0x20 /opt/microchip/xc32/v1.21/pic32mx/lib/libmchp_peripheral_32MX795F512L.a(port_set_pins_digital_in_lib.o)
 .reginfo       0x00000000       0x18 /opt/microchip/xc32/v1.21/pic32mx/lib/libmchp_peripheral_32MX795F512L.a(port_set_pins_digital_out_lib.o)
 .pdr           0x00000000       0x20 /opt/microchip/xc32/v1.21/pic32mx/lib/libmchp_peripheral_32MX795F512L.a(port_set_pins_digital_out_lib.o)
 .reginfo       0x00000000       0x18 /opt/microchip/xc32/v1.21/pic32mx/lib/libmchp_peripheral_32MX795F512L.a(_ports_tbl_libp.o)
 .pdr           0x00000000        0x0 /opt/microchip/xc32/v1.21/pic32mx/lib/libmchp_peripheral_32MX795F512L.a(_ports_tbl_libp.o)
 .reginfo       0x00000000       0x18 /opt/microchip/xc32/v1.21/bin/../lib/gcc/pic32mx/4.5.2/../../../../pic32mx/lib/./proc/32MX795F512L/default_isr_vectors.o
 .pdr           0x00000000        0x0 /opt/microchip/xc32/v1.21/bin/../lib/gcc/pic32mx/4.5.2/../../../../pic32mx/lib/./proc/32MX795F512L/default_isr_vectors.o
 .discard       0x00000000      0x100 /opt/microchip/xc32/v1.21/bin/../lib/gcc/pic32mx/4.5.2/../../../../pic32mx/lib/./proc/32MX795F512L/default_isr_vectors.o
 .reginfo       0x00000000       0x18 /opt/microchip/xc32/v1.21/bin/../lib/gcc/pic32mx/4.5.2/../../../../pic32mx/lib/./proc/32MX795F512L/processor.o
 .pdr           0x00000000        0x0 /opt/microchip/xc32/v1.21/bin/../lib/gcc/pic32mx/4.5.2/../../../../pic32mx/lib/./proc/32MX795F512L/processor.o
 .reginfo       0x00000000       0x18 /opt/microchip/xc32/v1.21/bin/../lib/gcc/pic32mx/4.5.2/libgcc.a(_udivdi3.o)
 .pdr           0x00000000       0x20 /opt/microchip/xc32/v1.21/bin/../lib/gcc/pic32mx/4.5.2/libgcc.a(_udivdi3.o)
 .reginfo       0x00000000       0x18 /opt/microchip/xc32/v1.21/bin/../lib/gcc/pic32mx/4.5.2/../../../../pic32mx/lib/libpic32.a(memcmp.o)
 .pdr           0x00000000       0x20 /opt/microchip/xc32/v1.21/bin/../lib/gcc/pic32mx/4.5.2/../../../../pic32mx/lib/libpic32.a(memcmp.o)
 .reginfo       0x00000000       0x18 /opt/microchip/xc32/v1.21/bin/../lib/gcc/pic32mx/4.5.2/../../../../pic32mx/lib/libpic32.a(memcpy.o)
 .pdr           0x00000000       0x20 /opt/microchip/xc32/v1.21/bin/../lib/gcc/pic32mx/4.5.2/../../../../pic32mx/lib/libpic32.a(memcpy.o)
 .reginfo       0x00000000       0x18 /opt/microchip/xc32/v1.21/bin/../lib/gcc/pic32mx/4.5.2/../../../../pic32mx/lib/libpic32.a(memset.o)
 .pdr           0x00000000       0x20 /opt/microchip/xc32/v1.21/bin/../lib/gcc/pic32mx/4.5.2/../../../../pic32mx/lib/libpic32.a(memset.o)
 .reginfo       0x00000000       0x18 /opt/microchip/xc32/v1.21/bin/../lib/gcc/pic32mx/4.5.2/../../../../pic32mx/lib/libpic32.a(strcmp.o)
 .pdr           0x00000000       0x20 /opt/microchip/xc32/v1.21/bin/../lib/gcc/pic32mx/4.5.2/../../../../pic32mx/lib/libpic32.a(strcmp.o)
 .reginfo       0x00000000       0x18 /opt/microchip/xc32/v1.21/bin/../lib/gcc/pic32mx/4.5.2/../../../../pic32mx/lib/libpic32.a(strcpy.o)
 .pdr           0x00000000       0x20 /opt/microchip/xc32/v1.21/bin/../lib/gcc/pic32mx/4.5.2/../../../../pic32mx/lib/libpic32.a(strcpy.o)
 .reginfo       0x00000000       0x18 /opt/microchip/xc32/v1.21/bin/../lib/gcc/pic32mx/4.5.2/../../../../pic32mx/lib/libpic32.a(strlen.o)
 .pdr           0x00000000       0x20 /opt/microchip/xc32/v1.21/bin/../lib/gcc/pic32mx/4.5.2/../../../../pic32mx/lib/libpic32.a(strlen.o)
 .reginfo       0x00000000       0x18 /opt/microchip/xc32/v1.21/bin/../lib/gcc/pic32mx/4.5.2/../../../../pic32mx/lib/libpic32.a(default-bootstrap-exception-handler.o)
 .pdr           0x00000000       0x20 /opt/microchip/xc32/v1.21/bin/../lib/gcc/pic32mx/4.5.2/../../../../pic32mx/lib/libpic32.a(default-bootstrap-exception-handler.o)
 .reginfo       0x00000000       0x18 /opt/microchip/xc32/v1.21/bin/../lib/gcc/pic32mx/4.5.2/../../../../pic32mx/lib/libpic32.a(default-on-reset.o)
 .pdr           0x00000000       0x20 /opt/microchip/xc32/v1.21/bin/../lib/gcc/pic32mx/4.5.2/../../../../pic32mx/lib/libpic32.a(default-on-reset.o)
 .reginfo       0x00000000       0x18 /opt/microchip/xc32/v1.21/bin/../lib/gcc/pic32mx/4.5.2/../../../../pic32mx/lib/libpic32.a(default-on-bootstrap.o)
 .pdr           0x00000000       0x20 /opt/microchip/xc32/v1.21/bin/../lib/gcc/pic32mx/4.5.2/../../../../pic32mx/lib/libpic32.a(default-on-bootstrap.o)
 .reginfo       0x00000000       0x18 /opt/microchip/xc32/v1.21/bin/../lib/gcc/pic32mx/4.5.2/../../../../pic32mx/lib/libpic32.a(default-nmi-handler.o)
 .pdr           0x00000000       0x20 /opt/microchip/xc32/v1.21/bin/../lib/gcc/pic32mx/4.5.2/../../../../pic32mx/lib/libpic32.a(default-nmi-handler.o)
 .reginfo       0x00000000       0x18 /opt/microchip/xc32/v1.21/bin/../lib/gcc/pic32mx/4.5.2/../../../../pic32mx/lib/libpic32.a(general-exception.o)
 .pdr           0x00000000       0x20 /opt/microchip/xc32/v1.21/bin/../lib/gcc/pic32mx/4.5.2/../../../../pic32mx/lib/libpic32.a(general-exception.o)
 .reginfo       0x00000000       0x18 /opt/microchip/xc32/v1.21/bin/../lib/gcc/pic32mx/4.5.2/../../../../pic32mx/lib/libpic32.a(vector0.o)
 .pdr           0x00000000       0x20 /opt/microchip/xc32/v1.21/bin/../lib/gcc/pic32mx/4.5.2/../../../../pic32mx/lib/libpic32.a(vector0.o)
 .reginfo       0x00000000       0x18 /opt/microchip/xc32/v1.21/bin/../lib/gcc/pic32mx/4.5.2/../../../../pic32mx/lib/libpic32.a(vector1.o)
 .pdr           0x00000000       0x20 /opt/microchip/xc32/v1.21/bin/../lib/gcc/pic32mx/4.5.2/../../../../pic32mx/lib/libpic32.a(vector1.o)
 .reginfo       0x00000000       0x18 /opt/microchip/xc32/v1.21/bin/../lib/gcc/pic32mx/4.5.2/../../../../pic32mx/lib/libpic32.a(vector2.o)
 .pdr           0x00000000       0x20 /opt/microchip/xc32/v1.21/bin/../lib/gcc/pic32mx/4.5.2/../../../../pic32mx/lib/libpic32.a(vector2.o)
 .reginfo       0x00000000       0x18 /opt/microchip/xc32/v1.21/bin/../lib/gcc/pic32mx/4.5.2/../../../../pic32mx/lib/libpic32.a(vector3.o)
 .pdr           0x00000000       0x20 /opt/microchip/xc32/v1.21/bin/../lib/gcc/pic32mx/4.5.2/../../../../pic32mx/lib/libpic32.a(vector3.o)
 .reginfo       0x00000000       0x18 /opt/microchip/xc32/v1.21/bin/../lib/gcc/pic32mx/4.5.2/../../../../pic32mx/lib/libpic32.a(vector5.o)
 .pdr           0x00000000       0x20 /opt/microchip/xc32/v1.21/bin/../lib/gcc/pic32mx/4.5.2/../../../../pic32mx/lib/libpic32.a(vector5.o)
 .reginfo       0x00000000       0x18 /opt/microchip/xc32/v1.21/bin/../lib/gcc/pic32mx/4.5.2/../../../../pic32mx/lib/libpic32.a(vector6.o)
 .pdr           0x00000000       0x20 /opt/microchip/xc32/v1.21/bin/../lib/gcc/pic32mx/4.5.2/../../../../pic32mx/lib/libpic32.a(vector6.o)
 .reginfo       0x00000000       0x18 /opt/microchip/xc32/v1.21/bin/../lib/gcc/pic32mx/4.5.2/../../../../pic32mx/lib/libpic32.a(vector7.o)
 .pdr           0x00000000       0x20 /opt/microchip/xc32/v1.21/bin/../lib/gcc/pic32mx/4.5.2/../../../../pic32mx/lib/libpic32.a(vector7.o)
 .reginfo       0x00000000       0x18 /opt/microchip/xc32/v1.21/bin/../lib/gcc/pic32mx/4.5.2/../../../../pic32mx/lib/libpic32.a(vector8.o)
 .pdr           0x00000000       0x20 /opt/microchip/xc32/v1.21/bin/../lib/gcc/pic32mx/4.5.2/../../../../pic32mx/lib/libpic32.a(vector8.o)
 .reginfo       0x00000000       0x18 /opt/microchip/xc32/v1.21/bin/../lib/gcc/pic32mx/4.5.2/../../../../pic32mx/lib/libpic32.a(vector9.o)
 .pdr           0x00000000       0x20 /opt/microchip/xc32/v1.21/bin/../lib/gcc/pic32mx/4.5.2/../../../../pic32mx/lib/libpic32.a(vector9.o)
 .reginfo       0x00000000       0x18 /opt/microchip/xc32/v1.21/bin/../lib/gcc/pic32mx/4.5.2/../../../../pic32mx/lib/libpic32.a(vector10.o)
 .pdr           0x00000000       0x20 /opt/microchip/xc32/v1.21/bin/../lib/gcc/pic32mx/4.5.2/../../../../pic32mx/lib/libpic32.a(vector10.o)
 .reginfo       0x00000000       0x18 /opt/microchip/xc32/v1.21/bin/../lib/gcc/pic32mx/4.5.2/../../../../pic32mx/lib/libpic32.a(vector11.o)
 .pdr           0x00000000       0x20 /opt/microchip/xc32/v1.21/bin/../lib/gcc/pic32mx/4.5.2/../../../../pic32mx/lib/libpic32.a(vector11.o)
 .reginfo       0x00000000       0x18 /opt/microchip/xc32/v1.21/bin/../lib/gcc/pic32mx/4.5.2/../../../../pic32mx/lib/libpic32.a(vector13.o)
 .pdr           0x00000000       0x20 /opt/microchip/xc32/v1.21/bin/../lib/gcc/pic32mx/4.5.2/../../../../pic32mx/lib/libpic32.a(vector13.o)
 .reginfo       0x00000000       0x18 /opt/microchip/xc32/v1.21/bin/../lib/gcc/pic32mx/4.5.2/../../../../pic32mx/lib/libpic32.a(vector14.o)
 .pdr           0x00000000       0x20 /opt/microchip/xc32/v1.21/bin/../lib/gcc/pic32mx/4.5.2/../../../../pic32mx/lib/libpic32.a(vector14.o)
 .reginfo       0x00000000       0x18 /opt/microchip/xc32/v1.21/bin/../lib/gcc/pic32mx/4.5.2/../../../../pic32mx/lib/libpic32.a(vector15.o)
 .pdr           0x00000000       0x20 /opt/microchip/xc32/v1.21/bin/../lib/gcc/pic32mx/4.5.2/../../../../pic32mx/lib/libpic32.a(vector15.o)
 .reginfo       0x00000000       0x18 /opt/microchip/xc32/v1.21/bin/../lib/gcc/pic32mx/4.5.2/../../../../pic32mx/lib/libpic32.a(vector17.o)
 .pdr           0x00000000       0x20 /opt/microchip/xc32/v1.21/bin/../lib/gcc/pic32mx/4.5.2/../../../../pic32mx/lib/libpic32.a(vector17.o)
 .reginfo       0x00000000       0x18 /opt/microchip/xc32/v1.21/bin/../lib/gcc/pic32mx/4.5.2/../../../../pic32mx/lib/libpic32.a(vector18.o)
 .pdr           0x00000000       0x20 /opt/microchip/xc32/v1.21/bin/../lib/gcc/pic32mx/4.5.2/../../../../pic32mx/lib/libpic32.a(vector18.o)
 .reginfo       0x00000000       0x18 /opt/microchip/xc32/v1.21/bin/../lib/gcc/pic32mx/4.5.2/../../../../pic32mx/lib/libpic32.a(vector19.o)
 .pdr           0x00000000       0x20 /opt/microchip/xc32/v1.21/bin/../lib/gcc/pic32mx/4.5.2/../../../../pic32mx/lib/libpic32.a(vector19.o)
 .reginfo       0x00000000       0x18 /opt/microchip/xc32/v1.21/bin/../lib/gcc/pic32mx/4.5.2/../../../../pic32mx/lib/libpic32.a(vector20.o)
 .pdr           0x00000000       0x20 /opt/microchip/xc32/v1.21/bin/../lib/gcc/pic32mx/4.5.2/../../../../pic32mx/lib/libpic32.a(vector20.o)
 .reginfo       0x00000000       0x18 /opt/microchip/xc32/v1.21/bin/../lib/gcc/pic32mx/4.5.2/../../../../pic32mx/lib/libpic32.a(vector21.o)
 .pdr           0x00000000       0x20 /opt/microchip/xc32/v1.21/bin/../lib/gcc/pic32mx/4.5.2/../../../../pic32mx/lib/libpic32.a(vector21.o)
 .reginfo       0x00000000       0x18 /opt/microchip/xc32/v1.21/bin/../lib/gcc/pic32mx/4.5.2/../../../../pic32mx/lib/libpic32.a(vector23.o)
 .pdr           0x00000000       0x20 /opt/microchip/xc32/v1.21/bin/../lib/gcc/pic32mx/4.5.2/../../../../pic32mx/lib/libpic32.a(vector23.o)
 .reginfo       0x00000000       0x18 /opt/microchip/xc32/v1.21/bin/../lib/gcc/pic32mx/4.5.2/../../../../pic32mx/lib/libpic32.a(vector24.o)
 .pdr           0x00000000       0x20 /opt/microchip/xc32/v1.21/bin/../lib/gcc/pic32mx/4.5.2/../../../../pic32mx/lib/libpic32.a(vector24.o)
 .reginfo       0x00000000       0x18 /opt/microchip/xc32/v1.21/bin/../lib/gcc/pic32mx/4.5.2/../../../../pic32mx/lib/libpic32.a(vector25.o)
 .pdr           0x00000000       0x20 /opt/microchip/xc32/v1.21/bin/../lib/gcc/pic32mx/4.5.2/../../../../pic32mx/lib/libpic32.a(vector25.o)
 .reginfo       0x00000000       0x18 /opt/microchip/xc32/v1.21/bin/../lib/gcc/pic32mx/4.5.2/../../../../pic32mx/lib/libpic32.a(vector26.o)
 .pdr           0x00000000       0x20 /opt/microchip/xc32/v1.21/bin/../lib/gcc/pic32mx/4.5.2/../../../../pic32mx/lib/libpic32.a(vector26.o)
 .reginfo       0x00000000       0x18 /opt/microchip/xc32/v1.21/bin/../lib/gcc/pic32mx/4.5.2/../../../../pic32mx/lib/libpic32.a(vector27.o)
 .pdr           0x00000000       0x20 /opt/microchip/xc32/v1.21/bin/../lib/gcc/pic32mx/4.5.2/../../../../pic32mx/lib/libpic32.a(vector27.o)
 .reginfo       0x00000000       0x18 /opt/microchip/xc32/v1.21/bin/../lib/gcc/pic32mx/4.5.2/../../../../pic32mx/lib/libpic32.a(vector28.o)
 .pdr           0x00000000       0x20 /opt/microchip/xc32/v1.21/bin/../lib/gcc/pic32mx/4.5.2/../../../../pic32mx/lib/libpic32.a(vector28.o)
 .reginfo       0x00000000       0x18 /opt/microchip/xc32/v1.21/bin/../lib/gcc/pic32mx/4.5.2/../../../../pic32mx/lib/libpic32.a(vector29.o)
 .pdr           0x00000000       0x20 /opt/microchip/xc32/v1.21/bin/../lib/gcc/pic32mx/4.5.2/../../../../pic32mx/lib/libpic32.a(vector29.o)
 .reginfo       0x00000000       0x18 /opt/microchip/xc32/v1.21/bin/../lib/gcc/pic32mx/4.5.2/../../../../pic32mx/lib/libpic32.a(vector30.o)
 .pdr           0x00000000       0x20 /opt/microchip/xc32/v1.21/bin/../lib/gcc/pic32mx/4.5.2/../../../../pic32mx/lib/libpic32.a(vector30.o)
 .reginfo       0x00000000       0x18 /opt/microchip/xc32/v1.21/bin/../lib/gcc/pic32mx/4.5.2/../../../../pic32mx/lib/libpic32.a(vector31.o)
 .pdr           0x00000000       0x20 /opt/microchip/xc32/v1.21/bin/../lib/gcc/pic32mx/4.5.2/../../../../pic32mx/lib/libpic32.a(vector31.o)
 .reginfo       0x00000000       0x18 /opt/microchip/xc32/v1.21/bin/../lib/gcc/pic32mx/4.5.2/../../../../pic32mx/lib/libpic32.a(vector32.o)
 .pdr           0x00000000       0x20 /opt/microchip/xc32/v1.21/bin/../lib/gcc/pic32mx/4.5.2/../../../../pic32mx/lib/libpic32.a(vector32.o)
 .reginfo       0x00000000       0x18 /opt/microchip/xc32/v1.21/bin/../lib/gcc/pic32mx/4.5.2/../../../../pic32mx/lib/libpic32.a(vector33.o)
 .pdr           0x00000000       0x20 /opt/microchip/xc32/v1.21/bin/../lib/gcc/pic32mx/4.5.2/../../../../pic32mx/lib/libpic32.a(vector33.o)
 .reginfo       0x00000000       0x18 /opt/microchip/xc32/v1.21/bin/../lib/gcc/pic32mx/4.5.2/../../../../pic32mx/lib/libpic32.a(vector34.o)
 .pdr           0x00000000       0x20 /opt/microchip/xc32/v1.21/bin/../lib/gcc/pic32mx/4.5.2/../../../../pic32mx/lib/libpic32.a(vector34.o)
 .reginfo       0x00000000       0x18 /opt/microchip/xc32/v1.21/bin/../lib/gcc/pic32mx/4.5.2/../../../../pic32mx/lib/libpic32.a(vector35.o)
 .pdr           0x00000000       0x20 /opt/microchip/xc32/v1.21/bin/../lib/gcc/pic32mx/4.5.2/../../../../pic32mx/lib/libpic32.a(vector35.o)
 .reginfo       0x00000000       0x18 /opt/microchip/xc32/v1.21/bin/../lib/gcc/pic32mx/4.5.2/../../../../pic32mx/lib/libpic32.a(vector36.o)
 .pdr           0x00000000       0x20 /opt/microchip/xc32/v1.21/bin/../lib/gcc/pic32mx/4.5.2/../../../../pic32mx/lib/libpic32.a(vector36.o)
 .reginfo       0x00000000       0x18 /opt/microchip/xc32/v1.21/bin/../lib/gcc/pic32mx/4.5.2/../../../../pic32mx/lib/libpic32.a(vector37.o)
 .pdr           0x00000000       0x20 /opt/microchip/xc32/v1.21/bin/../lib/gcc/pic32mx/4.5.2/../../../../pic32mx/lib/libpic32.a(vector37.o)
 .reginfo       0x00000000       0x18 /opt/microchip/xc32/v1.21/bin/../lib/gcc/pic32mx/4.5.2/../../../../pic32mx/lib/libpic32.a(vector38.o)
 .pdr           0x00000000       0x20 /opt/microchip/xc32/v1.21/bin/../lib/gcc/pic32mx/4.5.2/../../../../pic32mx/lib/libpic32.a(vector38.o)
 .reginfo       0x00000000       0x18 /opt/microchip/xc32/v1.21/bin/../lib/gcc/pic32mx/4.5.2/../../../../pic32mx/lib/libpic32.a(vector39.o)
 .pdr           0x00000000       0x20 /opt/microchip/xc32/v1.21/bin/../lib/gcc/pic32mx/4.5.2/../../../../pic32mx/lib/libpic32.a(vector39.o)
 .reginfo       0x00000000       0x18 /opt/microchip/xc32/v1.21/bin/../lib/gcc/pic32mx/4.5.2/../../../../pic32mx/lib/libpic32.a(vector40.o)
 .pdr           0x00000000       0x20 /opt/microchip/xc32/v1.21/bin/../lib/gcc/pic32mx/4.5.2/../../../../pic32mx/lib/libpic32.a(vector40.o)
 .reginfo       0x00000000       0x18 /opt/microchip/xc32/v1.21/bin/../lib/gcc/pic32mx/4.5.2/../../../../pic32mx/lib/libpic32.a(vector41.o)
 .pdr           0x00000000       0x20 /opt/microchip/xc32/v1.21/bin/../lib/gcc/pic32mx/4.5.2/../../../../pic32mx/lib/libpic32.a(vector41.o)
 .reginfo       0x00000000       0x18 /opt/microchip/xc32/v1.21/bin/../lib/gcc/pic32mx/4.5.2/../../../../pic32mx/lib/libpic32.a(vector42.o)
 .pdr           0x00000000       0x20 /opt/microchip/xc32/v1.21/bin/../lib/gcc/pic32mx/4.5.2/../../../../pic32mx/lib/libpic32.a(vector42.o)
 .reginfo       0x00000000       0x18 /opt/microchip/xc32/v1.21/bin/../lib/gcc/pic32mx/4.5.2/../../../../pic32mx/lib/libpic32.a(vector43.o)
 .pdr           0x00000000       0x20 /opt/microchip/xc32/v1.21/bin/../lib/gcc/pic32mx/4.5.2/../../../../pic32mx/lib/libpic32.a(vector43.o)
 .reginfo       0x00000000       0x18 /opt/microchip/xc32/v1.21/bin/../lib/gcc/pic32mx/4.5.2/../../../../pic32mx/lib/libpic32.a(vector44.o)
 .pdr           0x00000000       0x20 /opt/microchip/xc32/v1.21/bin/../lib/gcc/pic32mx/4.5.2/../../../../pic32mx/lib/libpic32.a(vector44.o)
 .reginfo       0x00000000       0x18 /opt/microchip/xc32/v1.21/bin/../lib/gcc/pic32mx/4.5.2/../../../../pic32mx/lib/libpic32.a(vector46.o)
 .pdr           0x00000000       0x20 /opt/microchip/xc32/v1.21/bin/../lib/gcc/pic32mx/4.5.2/../../../../pic32mx/lib/libpic32.a(vector46.o)
 .reginfo       0x00000000       0x18 /opt/microchip/xc32/v1.21/bin/../lib/gcc/pic32mx/4.5.2/../../../../pic32mx/lib/libpic32.a(vector47.o)
 .pdr           0x00000000       0x20 /opt/microchip/xc32/v1.21/bin/../lib/gcc/pic32mx/4.5.2/../../../../pic32mx/lib/libpic32.a(vector47.o)
 .reginfo       0x00000000       0x18 /opt/microchip/xc32/v1.21/bin/../lib/gcc/pic32mx/4.5.2/../../../../pic32mx/lib/libpic32.a(vector48.o)
 .pdr           0x00000000       0x20 /opt/microchip/xc32/v1.21/bin/../lib/gcc/pic32mx/4.5.2/../../../../pic32mx/lib/libpic32.a(vector48.o)
 .reginfo       0x00000000       0x18 /opt/microchip/xc32/v1.21/bin/../lib/gcc/pic32mx/4.5.2/../../../../pic32mx/lib/libpic32.a(vector49.o)
 .pdr           0x00000000       0x20 /opt/microchip/xc32/v1.21/bin/../lib/gcc/pic32mx/4.5.2/../../../../pic32mx/lib/libpic32.a(vector49.o)
 .reginfo       0x00000000       0x18 /opt/microchip/xc32/v1.21/bin/../lib/gcc/pic32mx/4.5.2/../../../../pic32mx/lib/libpic32.a(vector50.o)
 .pdr           0x00000000       0x20 /opt/microchip/xc32/v1.21/bin/../lib/gcc/pic32mx/4.5.2/../../../../pic32mx/lib/libpic32.a(vector50.o)
 .reginfo       0x00000000       0x18 /opt/microchip/xc32/v1.21/bin/../lib/gcc/pic32mx/4.5.2/../../../../pic32mx/lib/libpic32.a(vector51.o)
 .pdr           0x00000000       0x20 /opt/microchip/xc32/v1.21/bin/../lib/gcc/pic32mx/4.5.2/../../../../pic32mx/lib/libpic32.a(vector51.o)
 .reginfo       0x00000000       0x18 /opt/microchip/xc32/v1.21/bin/../lib/gcc/pic32mx/4.5.2/../../../../pic32mx/lib/libpic32.a(vector52.o)
 .pdr           0x00000000       0x20 /opt/microchip/xc32/v1.21/bin/../lib/gcc/pic32mx/4.5.2/../../../../pic32mx/lib/libpic32.a(vector52.o)
 .reginfo       0x00000000       0x18 /opt/microchip/xc32/v1.21/bin/../lib/gcc/pic32mx/4.5.2/../../../../pic32mx/lib/libpic32.a(vector53.o)
 .pdr           0x00000000       0x20 /opt/microchip/xc32/v1.21/bin/../lib/gcc/pic32mx/4.5.2/../../../../pic32mx/lib/libpic32.a(vector53.o)
 .reginfo       0x00000000       0x18 /opt/microchip/xc32/v1.21/bin/../lib/gcc/pic32mx/4.5.2/../../../../pic32mx/lib/libpic32.a(vector54.o)
 .pdr           0x00000000       0x20 /opt/microchip/xc32/v1.21/bin/../lib/gcc/pic32mx/4.5.2/../../../../pic32mx/lib/libpic32.a(vector54.o)
 .reginfo       0x00000000       0x18 /opt/microchip/xc32/v1.21/bin/../lib/gcc/pic32mx/4.5.2/../../../../pic32mx/lib/libpic32.a(vector55.o)
 .pdr           0x00000000       0x20 /opt/microchip/xc32/v1.21/bin/../lib/gcc/pic32mx/4.5.2/../../../../pic32mx/lib/libpic32.a(vector55.o)
 .reginfo       0x00000000       0x18 /opt/microchip/xc32/v1.21/bin/../lib/gcc/pic32mx/4.5.2/../../../../pic32mx/lib/libpic32.a(vector56.o)
 .pdr           0x00000000       0x20 /opt/microchip/xc32/v1.21/bin/../lib/gcc/pic32mx/4.5.2/../../../../pic32mx/lib/libpic32.a(vector56.o)
 .reginfo       0x00000000       0x18 /opt/microchip/xc32/v1.21/bin/../lib/gcc/pic32mx/4.5.2/../../../../pic32mx/lib/libpic32.a(vector57.o)
 .pdr           0x00000000       0x20 /opt/microchip/xc32/v1.21/bin/../lib/gcc/pic32mx/4.5.2/../../../../pic32mx/lib/libpic32.a(vector57.o)
 .reginfo       0x00000000       0x18 /opt/microchip/xc32/v1.21/bin/../lib/gcc/pic32mx/4.5.2/../../../../pic32mx/lib/libpic32.a(vector58.o)
 .pdr           0x00000000       0x20 /opt/microchip/xc32/v1.21/bin/../lib/gcc/pic32mx/4.5.2/../../../../pic32mx/lib/libpic32.a(vector58.o)
 .reginfo       0x00000000       0x18 /opt/microchip/xc32/v1.21/bin/../lib/gcc/pic32mx/4.5.2/../../../../pic32mx/lib/libpic32.a(vector59.o)
 .pdr           0x00000000       0x20 /opt/microchip/xc32/v1.21/bin/../lib/gcc/pic32mx/4.5.2/../../../../pic32mx/lib/libpic32.a(vector59.o)
 .reginfo       0x00000000       0x18 /opt/microchip/xc32/v1.21/bin/../lib/gcc/pic32mx/4.5.2/../../../../pic32mx/lib/libpic32.a(vector60.o)
 .pdr           0x00000000       0x20 /opt/microchip/xc32/v1.21/bin/../lib/gcc/pic32mx/4.5.2/../../../../pic32mx/lib/libpic32.a(vector60.o)
 .reginfo       0x00000000       0x18 /opt/microchip/xc32/v1.21/bin/../lib/gcc/pic32mx/4.5.2/../../../../pic32mx/lib/libpic32.a(vector61.o)
 .pdr           0x00000000       0x20 /opt/microchip/xc32/v1.21/bin/../lib/gcc/pic32mx/4.5.2/../../../../pic32mx/lib/libpic32.a(vector61.o)
 .reginfo       0x00000000       0x18 /opt/microchip/xc32/v1.21/bin/../lib/gcc/pic32mx/4.5.2/../../../../pic32mx/lib/libpic32.a(vector62.o)
 .pdr           0x00000000       0x20 /opt/microchip/xc32/v1.21/bin/../lib/gcc/pic32mx/4.5.2/../../../../pic32mx/lib/libpic32.a(vector62.o)
 .reginfo       0x00000000       0x18 /opt/microchip/xc32/v1.21/bin/../lib/gcc/pic32mx/4.5.2/../../../../pic32mx/lib/libpic32.a(vector63.o)
 .pdr           0x00000000       0x20 /opt/microchip/xc32/v1.21/bin/../lib/gcc/pic32mx/4.5.2/../../../../pic32mx/lib/libpic32.a(vector63.o)
 .reginfo       0x00000000       0x18 /opt/microchip/xc32/v1.21/bin/../lib/gcc/pic32mx/4.5.2/../../../../pic32mx/lib/libpic32.a(default-general-exception-handler.o)
 .pdr           0x00000000       0x20 /opt/microchip/xc32/v1.21/bin/../lib/gcc/pic32mx/4.5.2/../../../../pic32mx/lib/libpic32.a(default-general-exception-handler.o)
 .reginfo       0x00000000       0x18 /opt/microchip/xc32/v1.21/bin/../lib/gcc/pic32mx/4.5.2/../../../../pic32mx/lib/libpic32.a(defaultinterrupt.o)
 .pdr           0x00000000       0x20 /opt/microchip/xc32/v1.21/bin/../lib/gcc/pic32mx/4.5.2/../../../../pic32mx/lib/libpic32.a(defaultinterrupt.o)
 .reginfo       0x00000000       0x18 /opt/microchip/xc32/v1.21/bin/../lib/gcc/pic32mx/4.5.2/../../../../pic32mx/lib/libm.a(fp32.o)
 .pdr           0x00000000        0x0 /opt/microchip/xc32/v1.21/bin/../lib/gcc/pic32mx/4.5.2/../../../../pic32mx/lib/libm.a(fp32.o)
 .reginfo       0x00000000       0x18 /opt/microchip/xc32/v1.21/bin/../lib/gcc/pic32mx/4.5.2/../../../../pic32mx/lib/libc.a(ctypef.o)
 .pdr           0x00000000      0x220 /opt/microchip/xc32/v1.21/bin/../lib/gcc/pic32mx/4.5.2/../../../../pic32mx/lib/libc.a(ctypef.o)
 .reginfo       0x00000000       0x18 /opt/microchip/xc32/v1.21/bin/../lib/gcc/pic32mx/4.5.2/../../../../pic32mx/lib/libc.a(rand.o)
 .pdr           0x00000000       0x40 /opt/microchip/xc32/v1.21/bin/../lib/gcc/pic32mx/4.5.2/../../../../pic32mx/lib/libc.a(rand.o)
 .reginfo       0x00000000       0x18 /opt/microchip/xc32/v1.21/bin/../lib/gcc/pic32mx/4.5.2/../../../../pic32mx/lib/libc.a(strncmp.o)
 .pdr           0x00000000       0x20 /opt/microchip/xc32/v1.21/bin/../lib/gcc/pic32mx/4.5.2/../../../../pic32mx/lib/libc.a(strncmp.o)
 .reginfo       0x00000000       0x18 /opt/microchip/xc32/v1.21/bin/../lib/gcc/pic32mx/4.5.2/../../../../pic32mx/lib/libc.a(strncpy.o)
 .pdr           0x00000000       0x20 /opt/microchip/xc32/v1.21/bin/../lib/gcc/pic32mx/4.5.2/../../../../pic32mx/lib/libc.a(strncpy.o)
 .reginfo       0x00000000       0x18 /opt/microchip/xc32/v1.21/bin/../lib/gcc/pic32mx/4.5.2/../../../../pic32mx/lib/libc.a(sprintf_cdnopuxX.eo)
 .pdr           0x00000000       0x20 /opt/microchip/xc32/v1.21/bin/../lib/gcc/pic32mx/4.5.2/../../../../pic32mx/lib/libc.a(sprintf_cdnopuxX.eo)
 .reginfo       0x00000000       0x18 /opt/microchip/xc32/v1.21/bin/../lib/gcc/pic32mx/4.5.2/../../../../pic32mx/lib/libc.a(sprintf.o)
 .pdr           0x00000000       0x20 /opt/microchip/xc32/v1.21/bin/../lib/gcc/pic32mx/4.5.2/../../../../pic32mx/lib/libc.a(sprintf.o)
 .reginfo       0x00000000       0x18 /opt/microchip/xc32/v1.21/bin/../lib/gcc/pic32mx/4.5.2/../../../../pic32mx/lib/libc.a(sscanf_cdfFnopsuxX.eo)
 .pdr           0x00000000       0x20 /opt/microchip/xc32/v1.21/bin/../lib/gcc/pic32mx/4.5.2/../../../../pic32mx/lib/libc.a(sscanf_cdfFnopsuxX.eo)
 .reginfo       0x00000000       0x18 /opt/microchip/xc32/v1.21/bin/../lib/gcc/pic32mx/4.5.2/../../../../pic32mx/lib/libc.a(ctype.o)
 .pdr           0x00000000        0x0 /opt/microchip/xc32/v1.21/bin/../lib/gcc/pic32mx/4.5.2/../../../../pic32mx/lib/libc.a(ctype.o)
 .reginfo       0x00000000       0x18 /opt/microchip/xc32/v1.21/bin/../lib/gcc/pic32mx/4.5.2/../../../../pic32mx/lib/libc.a(doprnt_cdnopuxX.eo)
 .pdr           0x00000000       0x20 /opt/microchip/xc32/v1.21/bin/../lib/gcc/pic32mx/4.5.2/../../../../pic32mx/lib/libc.a(doprnt_cdnopuxX.eo)
 .reginfo       0x00000000       0x18 /opt/microchip/xc32/v1.21/bin/../lib/gcc/pic32mx/4.5.2/../../../../pic32mx/lib/libc.a(doprnt.o)
 .pdr           0x00000000       0x60 /opt/microchip/xc32/v1.21/bin/../lib/gcc/pic32mx/4.5.2/../../../../pic32mx/lib/libc.a(doprnt.o)
 .reginfo       0x00000000       0x18 /opt/microchip/xc32/v1.21/bin/../lib/gcc/pic32mx/4.5.2/../../../../pic32mx/lib/libc.a(doscan_cdfFnopsuxX.eo)
 .pdr           0x00000000       0x60 /opt/microchip/xc32/v1.21/bin/../lib/gcc/pic32mx/4.5.2/../../../../pic32mx/lib/libc.a(doscan_cdfFnopsuxX.eo)
 .reginfo       0x00000000       0x18 /opt/microchip/xc32/v1.21/bin/../lib/gcc/pic32mx/4.5.2/../../../../pic32mx/lib/libc.a(doscan_cdnopuxX.eo)
 .pdr           0x00000000       0x60 /opt/microchip/xc32/v1.21/bin/../lib/gcc/pic32mx/4.5.2/../../../../pic32mx/lib/libc.a(doscan_cdnopuxX.eo)
 .reginfo       0x00000000       0x18 /opt/microchip/xc32/v1.21/bin/../lib/gcc/pic32mx/4.5.2/../../../../pic32mx/lib/libc.a(fgetc.o)
 .pdr           0x00000000       0x20 /opt/microchip/xc32/v1.21/bin/../lib/gcc/pic32mx/4.5.2/../../../../pic32mx/lib/libc.a(fgetc.o)
 .reginfo       0x00000000       0x18 /opt/microchip/xc32/v1.21/bin/../lib/gcc/pic32mx/4.5.2/../../../../pic32mx/lib/libc.a(_fputc_simple.o)
 .pdr           0x00000000       0x20 /opt/microchip/xc32/v1.21/bin/../lib/gcc/pic32mx/4.5.2/../../../../pic32mx/lib/libc.a(_fputc_simple.o)
 .reginfo       0x00000000       0x18 /opt/microchip/xc32/v1.21/bin/../lib/gcc/pic32mx/4.5.2/../../../../pic32mx/lib/libc.a(atoi.o)
 .pdr           0x00000000       0x20 /opt/microchip/xc32/v1.21/bin/../lib/gcc/pic32mx/4.5.2/../../../../pic32mx/lib/libc.a(atoi.o)
 .reginfo       0x00000000       0x18 /opt/microchip/xc32/v1.21/bin/../lib/gcc/pic32mx/4.5.2/../../../../pic32mx/lib/libc.a(powersf.o)
 .pdr           0x00000000        0x0 /opt/microchip/xc32/v1.21/bin/../lib/gcc/pic32mx/4.5.2/../../../../pic32mx/lib/libc.a(powersf.o)
 .reginfo       0x00000000       0x18 /opt/microchip/xc32/v1.21/bin/../lib/gcc/pic32mx/4.5.2/../../../../pic32mx/lib/libc.a(strtod.o)
 .pdr           0x00000000       0x40 /opt/microchip/xc32/v1.21/bin/../lib/gcc/pic32mx/4.5.2/../../../../pic32mx/lib/libc.a(strtod.o)
 .reginfo       0x00000000       0x18 /opt/microchip/xc32/v1.21/bin/../lib/gcc/pic32mx/4.5.2/../../../../pic32mx/lib/libc.a(strtof.o)
 .pdr           0x00000000       0x40 /opt/microchip/xc32/v1.21/bin/../lib/gcc/pic32mx/4.5.2/../../../../pic32mx/lib/libc.a(strtof.o)
 .reginfo       0x00000000       0x18 /opt/microchip/xc32/v1.21/bin/../lib/gcc/pic32mx/4.5.2/../../../../pic32mx/lib/libc.a(ungetc.o)
 .pdr           0x00000000       0x20 /opt/microchip/xc32/v1.21/bin/../lib/gcc/pic32mx/4.5.2/../../../../pic32mx/lib/libc.a(ungetc.o)
 .reginfo       0x00000000       0x18 /opt/microchip/xc32/v1.21/bin/../lib/gcc/pic32mx/4.5.2/../../../../pic32mx/lib/libc.a(_iob.o)
 .pdr           0x00000000        0x0 /opt/microchip/xc32/v1.21/bin/../lib/gcc/pic32mx/4.5.2/../../../../pic32mx/lib/libc.a(_iob.o)
 .reginfo       0x00000000       0x18 /opt/microchip/xc32/v1.21/bin/../lib/gcc/pic32mx/4.5.2/../../../../pic32mx/lib/libc.a(filbuf.o)
 .pdr           0x00000000       0x20 /opt/microchip/xc32/v1.21/bin/../lib/gcc/pic32mx/4.5.2/../../../../pic32mx/lib/libc.a(filbuf.o)
 .reginfo       0x00000000       0x18 /opt/microchip/xc32/v1.21/bin/../lib/gcc/pic32mx/4.5.2/../../../../pic32mx/lib/libc.a(_flsbuf_simple.o)
 .pdr           0x00000000       0x20 /opt/microchip/xc32/v1.21/bin/../lib/gcc/pic32mx/4.5.2/../../../../pic32mx/lib/libc.a(_flsbuf_simple.o)
 .reginfo       0x00000000       0x18 /opt/microchip/xc32/v1.21/bin/../lib/gcc/pic32mx/4.5.2/../../../../pic32mx/lib/libc.a(fflush.o)
 .pdr           0x00000000       0x20 /opt/microchip/xc32/v1.21/bin/../lib/gcc/pic32mx/4.5.2/../../../../pic32mx/lib/libc.a(fflush.o)
 .reginfo       0x00000000       0x18 /opt/microchip/xc32/v1.21/bin/../lib/gcc/pic32mx/4.5.2/../../../../pic32mx/lib/libpic32.a(read.o)
 .pdr           0x00000000       0x20 /opt/microchip/xc32/v1.21/bin/../lib/gcc/pic32mx/4.5.2/../../../../pic32mx/lib/libpic32.a(read.o)
 .reginfo       0x00000000       0x18 /opt/microchip/xc32/v1.21/bin/../lib/gcc/pic32mx/4.5.2/../../../../pic32mx/lib/libpic32.a(write.o)
 .pdr           0x00000000       0x20 /opt/microchip/xc32/v1.21/bin/../lib/gcc/pic32mx/4.5.2/../../../../pic32mx/lib/libpic32.a(write.o)
 .reginfo       0x00000000       0x18 /opt/microchip/xc32/v1.21/bin/../lib/gcc/pic32mx/4.5.2/../../../../pic32mx/lib/libpic32.a(xc32_uart.o)
 .pdr           0x00000000        0x0 /opt/microchip/xc32/v1.21/bin/../lib/gcc/pic32mx/4.5.2/../../../../pic32mx/lib/libpic32.a(xc32_uart.o)
 .reginfo       0x00000000       0x18 /opt/microchip/xc32/v1.21/bin/../lib/gcc/pic32mx/4.5.2/../../../../pic32mx/lib/libpic32.a(_mon_putc.o)
 .pdr           0x00000000       0x20 /opt/microchip/xc32/v1.21/bin/../lib/gcc/pic32mx/4.5.2/../../../../pic32mx/lib/libpic32.a(_mon_putc.o)
 .reginfo       0x00000000       0x18 /opt/microchip/xc32/v1.21/bin/../lib/gcc/pic32mx/4.5.2/../../../../pic32mx/lib/libm.a(fpmod32.o)
 .pdr           0x00000000        0x0 /opt/microchip/xc32/v1.21/bin/../lib/gcc/pic32mx/4.5.2/../../../../pic32mx/lib/libm.a(fpmod32.o)
 .reginfo       0x00000000       0x18 /opt/microchip/xc32/v1.21/bin/../lib/gcc/pic32mx/4.5.2/../../../../pic32mx/lib/libm.a(dp32.o)
 .pdr           0x00000000        0x0 /opt/microchip/xc32/v1.21/bin/../lib/gcc/pic32mx/4.5.2/../../../../pic32mx/lib/libm.a(dp32.o)
 .reginfo       0x00000000       0x18 /opt/microchip/xc32/v1.21/bin/../lib/gcc/pic32mx/4.5.2/../../../../pic32mx/lib/libe.a(_floatdisf.o)
 .pdr           0x00000000       0x20 /opt/microchip/xc32/v1.21/bin/../lib/gcc/pic32mx/4.5.2/../../../../pic32mx/lib/libe.a(_floatdisf.o)
 .reginfo       0x00000000       0x18 /opt/microchip/xc32/v1.21/bin/../lib/gcc/pic32mx/4.5.2/../../../../pic32mx/lib/libe.a(_strtod.o)
 .pdr           0x00000000       0x20 /opt/microchip/xc32/v1.21/bin/../lib/gcc/pic32mx/4.5.2/../../../../pic32mx/lib/libe.a(_strtod.o)
 .reginfo       0x00000000       0x18 /opt/microchip/xc32/v1.21/bin/../lib/gcc/pic32mx/4.5.2/../../../../pic32mx/lib/libe.a(_strtof.o)
 .pdr           0x00000000       0x20 /opt/microchip/xc32/v1.21/bin/../lib/gcc/pic32mx/4.5.2/../../../../pic32mx/lib/libe.a(_strtof.o)
 .reginfo       0x00000000       0x18 /opt/microchip/xc32/v1.21/bin/../lib/gcc/pic32mx/4.5.2/../../../../pic32mx/lib/libe.a(_ldexp.o)
 .pdr           0x00000000       0x20 /opt/microchip/xc32/v1.21/bin/../lib/gcc/pic32mx/4.5.2/../../../../pic32mx/lib/libe.a(_ldexp.o)
 .reginfo       0x00000000       0x18 /opt/microchip/xc32/v1.21/bin/../lib/gcc/pic32mx/4.5.2/../../../../pic32mx/lib/libe.a(_ldexpf.o)
 .pdr           0x00000000       0x20 /opt/microchip/xc32/v1.21/bin/../lib/gcc/pic32mx/4.5.2/../../../../pic32mx/lib/libe.a(_ldexpf.o)
 .reginfo       0x00000000       0x18 /opt/microchip/xc32/v1.21/bin/../lib/gcc/pic32mx/4.5.2/libgcc.a(_lshrdi3.o)
 .pdr           0x00000000       0x20 /opt/microchip/xc32/v1.21/bin/../lib/gcc/pic32mx/4.5.2/libgcc.a(_lshrdi3.o)
 .reginfo       0x00000000       0x18 /opt/microchip/xc32/v1.21/bin/../lib/gcc/pic32mx/4.5.2/libgcc.a(_ashldi3.o)
 .pdr           0x00000000       0x20 /opt/microchip/xc32/v1.21/bin/../lib/gcc/pic32mx/4.5.2/libgcc.a(_ashldi3.o)
 .reginfo       0x00000000       0x18 /opt/microchip/xc32/v1.21/bin/../lib/gcc/pic32mx/4.5.2/libgcc.a(_floatundisf.o)
 .pdr           0x00000000       0x20 /opt/microchip/xc32/v1.21/bin/../lib/gcc/pic32mx/4.5.2/libgcc.a(_floatundisf.o)
 .reginfo       0x00000000       0x18 /opt/microchip/xc32/v1.21/bin/../lib/gcc/pic32mx/4.5.2/libgcc.a(_umoddi3.o)
 .pdr           0x00000000       0x20 /opt/microchip/xc32/v1.21/bin/../lib/gcc/pic32mx/4.5.2/libgcc.a(_umoddi3.o)
 .reginfo       0x00000000       0x18 /opt/microchip/xc32/v1.21/bin/../lib/gcc/pic32mx/4.5.2/libgcc.a(floatunsisf.o)
 .pdr           0x00000000       0x20 /opt/microchip/xc32/v1.21/bin/../lib/gcc/pic32mx/4.5.2/libgcc.a(floatunsisf.o)
 .reginfo       0x00000000       0x18 /opt/microchip/xc32/v1.21/bin/../lib/gcc/pic32mx/4.5.2/../../../../pic32mx/lib/libpic32.a(errno.o)
 .pdr           0x00000000        0x0 /opt/microchip/xc32/v1.21/bin/../lib/gcc/pic32mx/4.5.2/../../../../pic32mx/lib/libpic32.a(errno.o)

Memory Configuration

Name             Origin             Length             Attributes
kseg0_program_mem 0x9d006a00         0x0007a600         xr
kseg0_boot_mem   0x9d006490         0x00000970
exception_mem    0x9d005000         0x00001000
kseg1_boot_mem   0x9d006000         0x00000490
debug_exec_mem   0xbfc02000         0x00000ff0
config3          0xbfc02ff0         0x00000004
config2          0xbfc02ff4         0x00000004
config1          0xbfc02ff8         0x00000004
config0          0xbfc02ffc         0x00000004
boot_software_key 0xa0000000         0x00000004
kseg1_data_mem   0xa0000004         0x00007f00         w !x
sfrs             0xbf800000         0x00100000
configsfrs       0xbfc02ff0         0x00000010
*default*        0x00000000         0xffffffff

Linker script and memory map

LOAD /opt/microchip/xc32/v1.21/bin/../lib/gcc/pic32mx/4.5.2/../../../../pic32mx/lib/crt0.o
LOAD build/debug/production/_ext/71113213/SD-SPI.o
LOAD build/debug/production/_ext/71113213/FSIO.o
LOAD build/debug/production/_ext/2096855388/SClib.o
LOAD build/debug/production/_ext/2096855388/SCpic32.o
LOAD build/debug/production/_ext/870548313/usb_device.o
LOAD build/debug/production/_ext/1379786196/usb_function_cdc.o
LOAD build/debug/production/src/indala.o
LOAD build/debug/production/src/main.o
LOAD build/debug/production/src/psk.o
LOAD build/debug/production/src/usb_descriptors.o
LOAD build/debug/production/src/util.o
LOAD build/debug/production/src/emulate.o
LOAD build/debug/production/src/ask.o
LOAD build/debug/production/src/fsk.o
LOAD build/debug/production/src/clock.o
LOAD build/debug/production/src/rwd.o
LOAD build/debug/production/src/detect.o
LOAD build/debug/production/src/hitagcrypto.o
LOAD build/debug/production/src/wiegand.o
LOAD build/debug/production/src/comms.o
LOAD build/debug/production/src/nvm.o
LOAD build/debug/production/src/mcp414x.o
LOAD build/debug/production/src/spi.o
LOAD build/debug/production/src/uart3.o
LOAD build/debug/production/src/tags.o
LOAD build/debug/production/src/unique.o
LOAD build/debug/production/src/led.o
LOAD build/debug/production/src/em.o
LOAD build/debug/production/src/hid.o
LOAD build/debug/production/src/read.o
LOAD build/debug/production/src/isr.o
LOAD build/debug/production/src/auto.o
LOAD build/debug/production/src/fdxb.o
LOAD build/debug/production/src/hitag.o
LOAD build/debug/production/src/uid.o
LOAD build/debug/production/src/login.o
LOAD build/debug/production/src/write.o
LOAD build/debug/production/src/auth.o
LOAD build/debug/production/src/q5.o
LOAD build/debug/production/src/vtag.o
LOAD build/debug/production/src/config.o
LOAD build/debug/production/src/select.o
LOAD build/debug/production/src/sdcard.o
LOAD build/debug/production/src/debug_pins.o
LOAD build/debug/production/src/awid.o
LOAD build/debug/production/src/analogue.o
LOAD /opt/microchip/xc32/v1.21/pic32mx/lib/libmchp_peripheral_32MX795F512L.a
                0x00000001                __MPLAB_BUILD = 0x1
LOAD /opt/microchip/xc32/v1.21/bin/../lib/gcc/pic32mx/4.5.2/../../../../pic32mx/lib/./proc/32MX795F512L/default_isr_vectors.o
                0x00000400                PROVIDE (_min_stack_size, 0x400)
LOAD /opt/microchip/xc32/v1.21/bin/../lib/gcc/pic32mx/4.5.2/../../../../pic32mx/lib/./proc/32MX795F512L/processor.o
                0x00000000                _ramfunc_begin = 0x0
                0x00000001                PROVIDE (_vector_spacing, 0x1)
                0x9d005000                _ebase_address = 0x9d005000
                0x9d006000                _RESET_ADDR = 0x9d006000
                0x9d006380                _BEV_EXCPT_ADDR = 0x9d006380
                0x9d006480                _DBG_EXCPT_ADDR = 0x9d006480
                0xbfc02000                _DBG_CODE_ADDR = 0xbfc02000
                0x00000ff0                _DBG_CODE_SIZE = 0xff0
                0x9d005180                _GEN_EXCPT_ADDR = (_ebase_address + 0x180)

.boot_software_key
 *(.boot_software_key)

.config_BFC02FF0
 *(.config_BFC02FF0)

.config_BFC02FF4
 *(.config_BFC02FF4)

.config_BFC02FF8
 *(.config_BFC02FF8)

.config_BFC02FFC
                0xbfc02ffc        0x4
 *(.config_BFC02FFC)
 .config_BFC02FFC
                0xbfc02ffc        0x4 build/debug/production/src/main.o
                0xbfc02000                PROVIDE (_DBG_CODE_ADDR, 0xbfc02000)
                0x00000ff0                PROVIDE (_DBG_CODE_SIZE, 0xff0)

.reset          0x9d006000      0x1f4
 *(.reset)
 .reset         0x9d006000       0x10 /opt/microchip/xc32/v1.21/bin/../lib/gcc/pic32mx/4.5.2/../../../../pic32mx/lib/crt0.o
                0x9d006000                _reset
 *(.reset.startup)
 .reset.startup
                0x9d006010      0x1e4 /opt/microchip/xc32/v1.21/bin/../lib/gcc/pic32mx/4.5.2/../../../../pic32mx/lib/crt0.o

.bev_excpt      0x9d006380       0x10
 *(.bev_handler)
 .bev_handler   0x9d006380       0x10 /opt/microchip/xc32/v1.21/bin/../lib/gcc/pic32mx/4.5.2/../../../../pic32mx/lib/crt0.o

.dbg_excpt      0x9d006480        0x0
                0x9d006480                . = (. + DEFINED (_DEBUGGER)?0x8:0x0)

.dbg_code       0xbfc02000        0x0
                0xbfc02000                . = (. + DEFINED (_DEBUGGER)?_DBG_CODE_SIZE:0x0)

.app_excpt      0x9d005180       0x10
 *(.gen_handler)
 .gen_handler   0x9d005180       0x10 /opt/microchip/xc32/v1.21/bin/../lib/gcc/pic32mx/4.5.2/../../../../pic32mx/lib/crt0.o

.vector_0       0x9d005200        0x8
 *(.vector_0)
 .vector_0      0x9d005200        0x8 /opt/microchip/xc32/v1.21/bin/../lib/gcc/pic32mx/4.5.2/../../../../pic32mx/lib/libpic32.a(vector0.o)
                0x9d005200                __vector_dispatch_0
                0x00000001                ASSERT (((_vector_spacing == 0x0) || (SIZEOF (.vector_0) <= (_vector_spacing << 0x5))), function at exception vector 0 too large)

.vector_1       0x9d005220        0x8
 *(.vector_1)
 .vector_1      0x9d005220        0x8 /opt/microchip/xc32/v1.21/bin/../lib/gcc/pic32mx/4.5.2/../../../../pic32mx/lib/libpic32.a(vector1.o)
                0x9d005220                __vector_dispatch_1
                0x00000001                ASSERT (((_vector_spacing == 0x0) || (SIZEOF (.vector_1) <= (_vector_spacing << 0x5))), function at exception vector 1 too large)

.vector_2       0x9d005240        0x8
 *(.vector_2)
 .vector_2      0x9d005240        0x8 /opt/microchip/xc32/v1.21/bin/../lib/gcc/pic32mx/4.5.2/../../../../pic32mx/lib/libpic32.a(vector2.o)
                0x9d005240                __vector_dispatch_2
                0x00000001                ASSERT (((_vector_spacing == 0x0) || (SIZEOF (.vector_2) <= (_vector_spacing << 0x5))), function at exception vector 2 too large)

.vector_3       0x9d005260        0x8
 *(.vector_3)
 .vector_3      0x9d005260        0x8 /opt/microchip/xc32/v1.21/bin/../lib/gcc/pic32mx/4.5.2/../../../../pic32mx/lib/libpic32.a(vector3.o)
                0x9d005260                __vector_dispatch_3
                0x00000001                ASSERT (((_vector_spacing == 0x0) || (SIZEOF (.vector_3) <= (_vector_spacing << 0x5))), function at exception vector 3 too large)

.vector_4       0x9d005280        0x8
 *(.vector_4)
 .vector_4      0x9d005280        0x8 build/debug/production/_ext/2096855388/SCpic32.o
                0x9d005280                __vector_dispatch_4
                0x00000001                ASSERT (((_vector_spacing == 0x0) || (SIZEOF (.vector_4) <= (_vector_spacing << 0x5))), function at exception vector 4 too large)

.vector_5       0x9d0052a0        0x8
 *(.vector_5)
 .vector_5      0x9d0052a0        0x8 /opt/microchip/xc32/v1.21/bin/../lib/gcc/pic32mx/4.5.2/../../../../pic32mx/lib/libpic32.a(vector5.o)
                0x9d0052a0                __vector_dispatch_5
                0x00000001                ASSERT (((_vector_spacing == 0x0) || (SIZEOF (.vector_5) <= (_vector_spacing << 0x5))), function at exception vector 5 too large)

.vector_6       0x9d0052c0        0x8
 *(.vector_6)
 .vector_6      0x9d0052c0        0x8 /opt/microchip/xc32/v1.21/bin/../lib/gcc/pic32mx/4.5.2/../../../../pic32mx/lib/libpic32.a(vector6.o)
                0x9d0052c0                __vector_dispatch_6
                0x00000001                ASSERT (((_vector_spacing == 0x0) || (SIZEOF (.vector_6) <= (_vector_spacing << 0x5))), function at exception vector 6 too large)

.vector_7       0x9d0052e0        0x8
 *(.vector_7)
 .vector_7      0x9d0052e0        0x8 /opt/microchip/xc32/v1.21/bin/../lib/gcc/pic32mx/4.5.2/../../../../pic32mx/lib/libpic32.a(vector7.o)
                0x9d0052e0                __vector_dispatch_7
                0x00000001                ASSERT (((_vector_spacing == 0x0) || (SIZEOF (.vector_7) <= (_vector_spacing << 0x5))), function at exception vector 7 too large)

.vector_8       0x9d005300        0x8
 *(.vector_8)
 .vector_8      0x9d005300        0x8 /opt/microchip/xc32/v1.21/bin/../lib/gcc/pic32mx/4.5.2/../../../../pic32mx/lib/libpic32.a(vector8.o)
                0x9d005300                __vector_dispatch_8
                0x00000001                ASSERT (((_vector_spacing == 0x0) || (SIZEOF (.vector_8) <= (_vector_spacing << 0x5))), function at exception vector 8 too large)

.vector_9       0x9d005320        0x8
 *(.vector_9)
 .vector_9      0x9d005320        0x8 /opt/microchip/xc32/v1.21/bin/../lib/gcc/pic32mx/4.5.2/../../../../pic32mx/lib/libpic32.a(vector9.o)
                0x9d005320                __vector_dispatch_9
                0x00000001                ASSERT (((_vector_spacing == 0x0) || (SIZEOF (.vector_9) <= (_vector_spacing << 0x5))), function at exception vector 9 too large)

.vector_10      0x9d005340        0x8
 *(.vector_10)
 .vector_10     0x9d005340        0x8 /opt/microchip/xc32/v1.21/bin/../lib/gcc/pic32mx/4.5.2/../../../../pic32mx/lib/libpic32.a(vector10.o)
                0x9d005340                __vector_dispatch_10
                0x00000001                ASSERT (((_vector_spacing == 0x0) || (SIZEOF (.vector_10) <= (_vector_spacing << 0x5))), function at exception vector 10 too large)

.vector_11      0x9d005360        0x8
 *(.vector_11)
 .vector_11     0x9d005360        0x8 /opt/microchip/xc32/v1.21/bin/../lib/gcc/pic32mx/4.5.2/../../../../pic32mx/lib/libpic32.a(vector11.o)
                0x9d005360                __vector_dispatch_11
                0x00000001                ASSERT (((_vector_spacing == 0x0) || (SIZEOF (.vector_11) <= (_vector_spacing << 0x5))), function at exception vector 11 too large)

.vector_12      0x9d005380        0x8
 *(.vector_12)
 .vector_12     0x9d005380        0x8 build/debug/production/src/isr.o
                0x9d005380                __vector_dispatch_12
                0x00000001                ASSERT (((_vector_spacing == 0x0) || (SIZEOF (.vector_12) <= (_vector_spacing << 0x5))), function at exception vector 12 too large)

.vector_13      0x9d0053a0        0x8
 *(.vector_13)
 .vector_13     0x9d0053a0        0x8 /opt/microchip/xc32/v1.21/bin/../lib/gcc/pic32mx/4.5.2/../../../../pic32mx/lib/libpic32.a(vector13.o)
                0x9d0053a0                __vector_dispatch_13
                0x00000001                ASSERT (((_vector_spacing == 0x0) || (SIZEOF (.vector_13) <= (_vector_spacing << 0x5))), function at exception vector 13 too large)

.vector_14      0x9d0053c0        0x8
 *(.vector_14)
 .vector_14     0x9d0053c0        0x8 /opt/microchip/xc32/v1.21/bin/../lib/gcc/pic32mx/4.5.2/../../../../pic32mx/lib/libpic32.a(vector14.o)
                0x9d0053c0                __vector_dispatch_14
                0x00000001                ASSERT (((_vector_spacing == 0x0) || (SIZEOF (.vector_14) <= (_vector_spacing << 0x5))), function at exception vector 14 too large)

.vector_15      0x9d0053e0        0x8
 *(.vector_15)
 .vector_15     0x9d0053e0        0x8 /opt/microchip/xc32/v1.21/bin/../lib/gcc/pic32mx/4.5.2/../../../../pic32mx/lib/libpic32.a(vector15.o)
                0x9d0053e0                __vector_dispatch_15
                0x00000001                ASSERT (((_vector_spacing == 0x0) || (SIZEOF (.vector_15) <= (_vector_spacing << 0x5))), function at exception vector 15 too large)

.vector_16      0x9d005400        0x8
 *(.vector_16)
 .vector_16     0x9d005400        0x8 build/debug/production/src/isr.o
                0x9d005400                __vector_dispatch_16
                0x00000001                ASSERT (((_vector_spacing == 0x0) || (SIZEOF (.vector_16) <= (_vector_spacing << 0x5))), function at exception vector 16 too large)

.vector_17      0x9d005420        0x8
 *(.vector_17)
 .vector_17     0x9d005420        0x8 /opt/microchip/xc32/v1.21/bin/../lib/gcc/pic32mx/4.5.2/../../../../pic32mx/lib/libpic32.a(vector17.o)
                0x9d005420                __vector_dispatch_17
                0x00000001                ASSERT (((_vector_spacing == 0x0) || (SIZEOF (.vector_17) <= (_vector_spacing << 0x5))), function at exception vector 17 too large)

.vector_18      0x9d005440        0x8
 *(.vector_18)
 .vector_18     0x9d005440        0x8 /opt/microchip/xc32/v1.21/bin/../lib/gcc/pic32mx/4.5.2/../../../../pic32mx/lib/libpic32.a(vector18.o)
                0x9d005440                __vector_dispatch_18
                0x00000001                ASSERT (((_vector_spacing == 0x0) || (SIZEOF (.vector_18) <= (_vector_spacing << 0x5))), function at exception vector 18 too large)

.vector_19      0x9d005460        0x8
 *(.vector_19)
 .vector_19     0x9d005460        0x8 /opt/microchip/xc32/v1.21/bin/../lib/gcc/pic32mx/4.5.2/../../../../pic32mx/lib/libpic32.a(vector19.o)
                0x9d005460                __vector_dispatch_19
                0x00000001                ASSERT (((_vector_spacing == 0x0) || (SIZEOF (.vector_19) <= (_vector_spacing << 0x5))), function at exception vector 19 too large)

.vector_20      0x9d005480        0x8
 *(.vector_20)
 .vector_20     0x9d005480        0x8 /opt/microchip/xc32/v1.21/bin/../lib/gcc/pic32mx/4.5.2/../../../../pic32mx/lib/libpic32.a(vector20.o)
                0x9d005480                __vector_dispatch_20
                0x00000001                ASSERT (((_vector_spacing == 0x0) || (SIZEOF (.vector_20) <= (_vector_spacing << 0x5))), function at exception vector 20 too large)

.vector_21      0x9d0054a0        0x8
 *(.vector_21)
 .vector_21     0x9d0054a0        0x8 /opt/microchip/xc32/v1.21/bin/../lib/gcc/pic32mx/4.5.2/../../../../pic32mx/lib/libpic32.a(vector21.o)
                0x9d0054a0                __vector_dispatch_21
                0x00000001                ASSERT (((_vector_spacing == 0x0) || (SIZEOF (.vector_21) <= (_vector_spacing << 0x5))), function at exception vector 21 too large)

.vector_22      0x9d0054c0        0x8
 *(.vector_22)
 .vector_22     0x9d0054c0        0x8 build/debug/production/src/isr.o
                0x9d0054c0                __vector_dispatch_22
                0x00000001                ASSERT (((_vector_spacing == 0x0) || (SIZEOF (.vector_22) <= (_vector_spacing << 0x5))), function at exception vector 22 too large)

.vector_23      0x9d0054e0        0x8
 *(.vector_23)
 .vector_23     0x9d0054e0        0x8 /opt/microchip/xc32/v1.21/bin/../lib/gcc/pic32mx/4.5.2/../../../../pic32mx/lib/libpic32.a(vector23.o)
                0x9d0054e0                __vector_dispatch_23
                0x00000001                ASSERT (((_vector_spacing == 0x0) || (SIZEOF (.vector_23) <= (_vector_spacing << 0x5))), function at exception vector 23 too large)

.vector_24      0x9d005500        0x8
 *(.vector_24)
 .vector_24     0x9d005500        0x8 /opt/microchip/xc32/v1.21/bin/../lib/gcc/pic32mx/4.5.2/../../../../pic32mx/lib/libpic32.a(vector24.o)
                0x9d005500                __vector_dispatch_24
                0x00000001                ASSERT (((_vector_spacing == 0x0) || (SIZEOF (.vector_24) <= (_vector_spacing << 0x5))), function at exception vector 24 too large)

.vector_25      0x9d005520        0x8
 *(.vector_25)
 .vector_25     0x9d005520        0x8 /opt/microchip/xc32/v1.21/bin/../lib/gcc/pic32mx/4.5.2/../../../../pic32mx/lib/libpic32.a(vector25.o)
                0x9d005520                __vector_dispatch_25
                0x00000001                ASSERT (((_vector_spacing == 0x0) || (SIZEOF (.vector_25) <= (_vector_spacing << 0x5))), function at exception vector 25 too large)

.vector_26      0x9d005540        0x8
 *(.vector_26)
 .vector_26     0x9d005540        0x8 /opt/microchip/xc32/v1.21/bin/../lib/gcc/pic32mx/4.5.2/../../../../pic32mx/lib/libpic32.a(vector26.o)
                0x9d005540                __vector_dispatch_26
                0x00000001                ASSERT (((_vector_spacing == 0x0) || (SIZEOF (.vector_26) <= (_vector_spacing << 0x5))), function at exception vector 26 too large)

.vector_27      0x9d005560        0x8
 *(.vector_27)
 .vector_27     0x9d005560        0x8 /opt/microchip/xc32/v1.21/bin/../lib/gcc/pic32mx/4.5.2/../../../../pic32mx/lib/libpic32.a(vector27.o)
                0x9d005560                __vector_dispatch_27
                0x00000001                ASSERT (((_vector_spacing == 0x0) || (SIZEOF (.vector_27) <= (_vector_spacing << 0x5))), function at exception vector 27 too large)

.vector_28      0x9d005580        0x8
 *(.vector_28)
 .vector_28     0x9d005580        0x8 /opt/microchip/xc32/v1.21/bin/../lib/gcc/pic32mx/4.5.2/../../../../pic32mx/lib/libpic32.a(vector28.o)
                0x9d005580                __vector_dispatch_28
                0x00000001                ASSERT (((_vector_spacing == 0x0) || (SIZEOF (.vector_28) <= (_vector_spacing << 0x5))), function at exception vector 28 too large)

.vector_29      0x9d0055a0        0x8
 *(.vector_29)
 .vector_29     0x9d0055a0        0x8 /opt/microchip/xc32/v1.21/bin/../lib/gcc/pic32mx/4.5.2/../../../../pic32mx/lib/libpic32.a(vector29.o)
                0x9d0055a0                __vector_dispatch_29
                0x00000001                ASSERT (((_vector_spacing == 0x0) || (SIZEOF (.vector_29) <= (_vector_spacing << 0x5))), function at exception vector 29 too large)

.vector_30      0x9d0055c0        0x8
 *(.vector_30)
 .vector_30     0x9d0055c0        0x8 /opt/microchip/xc32/v1.21/bin/../lib/gcc/pic32mx/4.5.2/../../../../pic32mx/lib/libpic32.a(vector30.o)
                0x9d0055c0                __vector_dispatch_30
                0x00000001                ASSERT (((_vector_spacing == 0x0) || (SIZEOF (.vector_30) <= (_vector_spacing << 0x5))), function at exception vector 30 too large)

.vector_31      0x9d0055e0        0x8
 *(.vector_31)
 .vector_31     0x9d0055e0        0x8 /opt/microchip/xc32/v1.21/bin/../lib/gcc/pic32mx/4.5.2/../../../../pic32mx/lib/libpic32.a(vector31.o)
                0x9d0055e0                __vector_dispatch_31
                0x00000001                ASSERT (((_vector_spacing == 0x0) || (SIZEOF (.vector_31) <= (_vector_spacing << 0x5))), function at exception vector 31 too large)

.vector_32      0x9d005600        0x8
 *(.vector_32)
 .vector_32     0x9d005600        0x8 /opt/microchip/xc32/v1.21/bin/../lib/gcc/pic32mx/4.5.2/../../../../pic32mx/lib/libpic32.a(vector32.o)
                0x9d005600                __vector_dispatch_32
                0x00000001                ASSERT (((_vector_spacing == 0x0) || (SIZEOF (.vector_32) <= (_vector_spacing << 0x5))), function at exception vector 32 too large)

.vector_33      0x9d005620        0x8
 *(.vector_33)
 .vector_33     0x9d005620        0x8 /opt/microchip/xc32/v1.21/bin/../lib/gcc/pic32mx/4.5.2/../../../../pic32mx/lib/libpic32.a(vector33.o)
                0x9d005620                __vector_dispatch_33
                0x00000001                ASSERT (((_vector_spacing == 0x0) || (SIZEOF (.vector_33) <= (_vector_spacing << 0x5))), function at exception vector 33 too large)

.vector_34      0x9d005640        0x8
 *(.vector_34)
 .vector_34     0x9d005640        0x8 /opt/microchip/xc32/v1.21/bin/../lib/gcc/pic32mx/4.5.2/../../../../pic32mx/lib/libpic32.a(vector34.o)
                0x9d005640                __vector_dispatch_34
                0x00000001                ASSERT (((_vector_spacing == 0x0) || (SIZEOF (.vector_34) <= (_vector_spacing << 0x5))), function at exception vector 34 too large)

.vector_35      0x9d005660        0x8
 *(.vector_35)
 .vector_35     0x9d005660        0x8 /opt/microchip/xc32/v1.21/bin/../lib/gcc/pic32mx/4.5.2/../../../../pic32mx/lib/libpic32.a(vector35.o)
                0x9d005660                __vector_dispatch_35
                0x00000001                ASSERT (((_vector_spacing == 0x0) || (SIZEOF (.vector_35) <= (_vector_spacing << 0x5))), function at exception vector 35 too large)

.vector_36      0x9d005680        0x8
 *(.vector_36)
 .vector_36     0x9d005680        0x8 /opt/microchip/xc32/v1.21/bin/../lib/gcc/pic32mx/4.5.2/../../../../pic32mx/lib/libpic32.a(vector36.o)
                0x9d005680                __vector_dispatch_36
                0x00000001                ASSERT (((_vector_spacing == 0x0) || (SIZEOF (.vector_36) <= (_vector_spacing << 0x5))), function at exception vector 36 too large)

.vector_37      0x9d0056a0        0x8
 *(.vector_37)
 .vector_37     0x9d0056a0        0x8 /opt/microchip/xc32/v1.21/bin/../lib/gcc/pic32mx/4.5.2/../../../../pic32mx/lib/libpic32.a(vector37.o)
                0x9d0056a0                __vector_dispatch_37
                0x00000001                ASSERT (((_vector_spacing == 0x0) || (SIZEOF (.vector_37) <= (_vector_spacing << 0x5))), function at exception vector 37 too large)

.vector_38      0x9d0056c0        0x8
 *(.vector_38)
 .vector_38     0x9d0056c0        0x8 /opt/microchip/xc32/v1.21/bin/../lib/gcc/pic32mx/4.5.2/../../../../pic32mx/lib/libpic32.a(vector38.o)
                0x9d0056c0                __vector_dispatch_38
                0x00000001                ASSERT (((_vector_spacing == 0x0) || (SIZEOF (.vector_38) <= (_vector_spacing << 0x5))), function at exception vector 38 too large)

.vector_39      0x9d0056e0        0x8
 *(.vector_39)
 .vector_39     0x9d0056e0        0x8 /opt/microchip/xc32/v1.21/bin/../lib/gcc/pic32mx/4.5.2/../../../../pic32mx/lib/libpic32.a(vector39.o)
                0x9d0056e0                __vector_dispatch_39
                0x00000001                ASSERT (((_vector_spacing == 0x0) || (SIZEOF (.vector_39) <= (_vector_spacing << 0x5))), function at exception vector 39 too large)

.vector_40      0x9d005700        0x8
 *(.vector_40)
 .vector_40     0x9d005700        0x8 /opt/microchip/xc32/v1.21/bin/../lib/gcc/pic32mx/4.5.2/../../../../pic32mx/lib/libpic32.a(vector40.o)
                0x9d005700                __vector_dispatch_40
                0x00000001                ASSERT (((_vector_spacing == 0x0) || (SIZEOF (.vector_40) <= (_vector_spacing << 0x5))), function at exception vector 40 too large)

.vector_41      0x9d005720        0x8
 *(.vector_41)
 .vector_41     0x9d005720        0x8 /opt/microchip/xc32/v1.21/bin/../lib/gcc/pic32mx/4.5.2/../../../../pic32mx/lib/libpic32.a(vector41.o)
                0x9d005720                __vector_dispatch_41
                0x00000001                ASSERT (((_vector_spacing == 0x0) || (SIZEOF (.vector_41) <= (_vector_spacing << 0x5))), function at exception vector 41 too large)

.vector_42      0x9d005740        0x8
 *(.vector_42)
 .vector_42     0x9d005740        0x8 /opt/microchip/xc32/v1.21/bin/../lib/gcc/pic32mx/4.5.2/../../../../pic32mx/lib/libpic32.a(vector42.o)
                0x9d005740                __vector_dispatch_42
                0x00000001                ASSERT (((_vector_spacing == 0x0) || (SIZEOF (.vector_42) <= (_vector_spacing << 0x5))), function at exception vector 42 too large)

.vector_43      0x9d005760        0x8
 *(.vector_43)
 .vector_43     0x9d005760        0x8 /opt/microchip/xc32/v1.21/bin/../lib/gcc/pic32mx/4.5.2/../../../../pic32mx/lib/libpic32.a(vector43.o)
                0x9d005760                __vector_dispatch_43
                0x00000001                ASSERT (((_vector_spacing == 0x0) || (SIZEOF (.vector_43) <= (_vector_spacing << 0x5))), function at exception vector 43 too large)

.vector_44      0x9d005780        0x8
 *(.vector_44)
 .vector_44     0x9d005780        0x8 /opt/microchip/xc32/v1.21/bin/../lib/gcc/pic32mx/4.5.2/../../../../pic32mx/lib/libpic32.a(vector44.o)
                0x9d005780                __vector_dispatch_44
                0x00000001                ASSERT (((_vector_spacing == 0x0) || (SIZEOF (.vector_44) <= (_vector_spacing << 0x5))), function at exception vector 44 too large)

.vector_45      0x9d0057a0        0x8
 *(.vector_45)
 .vector_45     0x9d0057a0        0x8 build/debug/production/_ext/870548313/usb_device.o
                0x9d0057a0                __vector_dispatch_45
                0x00000001                ASSERT (((_vector_spacing == 0x0) || (SIZEOF (.vector_45) <= (_vector_spacing << 0x5))), function at exception vector 45 too large)

.vector_46      0x9d0057c0        0x8
 *(.vector_46)
 .vector_46     0x9d0057c0        0x8 /opt/microchip/xc32/v1.21/bin/../lib/gcc/pic32mx/4.5.2/../../../../pic32mx/lib/libpic32.a(vector46.o)
                0x9d0057c0                __vector_dispatch_46
                0x00000001                ASSERT (((_vector_spacing == 0x0) || (SIZEOF (.vector_46) <= (_vector_spacing << 0x5))), function at exception vector 46 too large)

.vector_47      0x9d0057e0        0x8
 *(.vector_47)
 .vector_47     0x9d0057e0        0x8 /opt/microchip/xc32/v1.21/bin/../lib/gcc/pic32mx/4.5.2/../../../../pic32mx/lib/libpic32.a(vector47.o)
                0x9d0057e0                __vector_dispatch_47
                0x00000001                ASSERT (((_vector_spacing == 0x0) || (SIZEOF (.vector_47) <= (_vector_spacing << 0x5))), function at exception vector 47 too large)

.vector_48      0x9d005800        0x8
 *(.vector_48)
 .vector_48     0x9d005800        0x8 /opt/microchip/xc32/v1.21/bin/../lib/gcc/pic32mx/4.5.2/../../../../pic32mx/lib/libpic32.a(vector48.o)
                0x9d005800                __vector_dispatch_48
                0x00000001                ASSERT (((_vector_spacing == 0x0) || (SIZEOF (.vector_48) <= (_vector_spacing << 0x5))), function at exception vector 48 too large)

.vector_49      0x9d005820        0x8
 *(.vector_49)
 .vector_49     0x9d005820        0x8 /opt/microchip/xc32/v1.21/bin/../lib/gcc/pic32mx/4.5.2/../../../../pic32mx/lib/libpic32.a(vector49.o)
                0x9d005820                __vector_dispatch_49
                0x00000001                ASSERT (((_vector_spacing == 0x0) || (SIZEOF (.vector_49) <= (_vector_spacing << 0x5))), function at exception vector 49 too large)

.vector_50      0x9d005840        0x8
 *(.vector_50)
 .vector_50     0x9d005840        0x8 /opt/microchip/xc32/v1.21/bin/../lib/gcc/pic32mx/4.5.2/../../../../pic32mx/lib/libpic32.a(vector50.o)
                0x9d005840                __vector_dispatch_50
                0x00000001                ASSERT (((_vector_spacing == 0x0) || (SIZEOF (.vector_50) <= (_vector_spacing << 0x5))), function at exception vector 50 too large)

.vector_51      0x9d005860        0x8
 *(.vector_51)
 .vector_51     0x9d005860        0x8 /opt/microchip/xc32/v1.21/bin/../lib/gcc/pic32mx/4.5.2/../../../../pic32mx/lib/libpic32.a(vector51.o)
                0x9d005860                __vector_dispatch_51
                0x00000001                ASSERT (((_vector_spacing == 0x0) || (SIZEOF (.vector_51) <= (_vector_spacing << 0x5))), function at exception vector 51 too large)

.vector_52      0x9d005880        0x8
 *(.vector_52)
 .vector_52     0x9d005880        0x8 /opt/microchip/xc32/v1.21/bin/../lib/gcc/pic32mx/4.5.2/../../../../pic32mx/lib/libpic32.a(vector52.o)
                0x9d005880                __vector_dispatch_52
                0x00000001                ASSERT (((_vector_spacing == 0x0) || (SIZEOF (.vector_52) <= (_vector_spacing << 0x5))), function at exception vector 52 too large)

.vector_53      0x9d0058a0        0x8
 *(.vector_53)
 .vector_53     0x9d0058a0        0x8 /opt/microchip/xc32/v1.21/bin/../lib/gcc/pic32mx/4.5.2/../../../../pic32mx/lib/libpic32.a(vector53.o)
                0x9d0058a0                __vector_dispatch_53
                0x00000001                ASSERT (((_vector_spacing == 0x0) || (SIZEOF (.vector_53) <= (_vector_spacing << 0x5))), function at exception vector 53 too large)

.vector_54      0x9d0058c0        0x8
 *(.vector_54)
 .vector_54     0x9d0058c0        0x8 /opt/microchip/xc32/v1.21/bin/../lib/gcc/pic32mx/4.5.2/../../../../pic32mx/lib/libpic32.a(vector54.o)
                0x9d0058c0                __vector_dispatch_54
                0x00000001                ASSERT (((_vector_spacing == 0x0) || (SIZEOF (.vector_54) <= (_vector_spacing << 0x5))), function at exception vector 54 too large)

.vector_55      0x9d0058e0        0x8
 *(.vector_55)
 .vector_55     0x9d0058e0        0x8 /opt/microchip/xc32/v1.21/bin/../lib/gcc/pic32mx/4.5.2/../../../../pic32mx/lib/libpic32.a(vector55.o)
                0x9d0058e0                __vector_dispatch_55
                0x00000001                ASSERT (((_vector_spacing == 0x0) || (SIZEOF (.vector_55) <= (_vector_spacing << 0x5))), function at exception vector 55 too large)

.vector_56      0x9d005900        0x8
 *(.vector_56)
 .vector_56     0x9d005900        0x8 /opt/microchip/xc32/v1.21/bin/../lib/gcc/pic32mx/4.5.2/../../../../pic32mx/lib/libpic32.a(vector56.o)
                0x9d005900                __vector_dispatch_56
                0x00000001                ASSERT (((_vector_spacing == 0x0) || (SIZEOF (.vector_56) <= (_vector_spacing << 0x5))), function at exception vector 56 too large)

.vector_57      0x9d005920        0x8
 *(.vector_57)
 .vector_57     0x9d005920        0x8 /opt/microchip/xc32/v1.21/bin/../lib/gcc/pic32mx/4.5.2/../../../../pic32mx/lib/libpic32.a(vector57.o)
                0x9d005920                __vector_dispatch_57
                0x00000001                ASSERT (((_vector_spacing == 0x0) || (SIZEOF (.vector_57) <= (_vector_spacing << 0x5))), function at exception vector 57 too large)

.vector_58      0x9d005940        0x8
 *(.vector_58)
 .vector_58     0x9d005940        0x8 /opt/microchip/xc32/v1.21/bin/../lib/gcc/pic32mx/4.5.2/../../../../pic32mx/lib/libpic32.a(vector58.o)
                0x9d005940                __vector_dispatch_58
                0x00000001                ASSERT (((_vector_spacing == 0x0) || (SIZEOF (.vector_58) <= (_vector_spacing << 0x5))), function at exception vector 58 too large)

.vector_59      0x9d005960        0x8
 *(.vector_59)
 .vector_59     0x9d005960        0x8 /opt/microchip/xc32/v1.21/bin/../lib/gcc/pic32mx/4.5.2/../../../../pic32mx/lib/libpic32.a(vector59.o)
                0x9d005960                __vector_dispatch_59
                0x00000001                ASSERT (((_vector_spacing == 0x0) || (SIZEOF (.vector_59) <= (_vector_spacing << 0x5))), function at exception vector 59 too large)

.vector_60      0x9d005980        0x8
 *(.vector_60)
 .vector_60     0x9d005980        0x8 /opt/microchip/xc32/v1.21/bin/../lib/gcc/pic32mx/4.5.2/../../../../pic32mx/lib/libpic32.a(vector60.o)
                0x9d005980                __vector_dispatch_60
                0x00000001                ASSERT (((_vector_spacing == 0x0) || (SIZEOF (.vector_60) <= (_vector_spacing << 0x5))), function at exception vector 60 too large)

.vector_61      0x9d0059a0        0x8
 *(.vector_61)
 .vector_61     0x9d0059a0        0x8 /opt/microchip/xc32/v1.21/bin/../lib/gcc/pic32mx/4.5.2/../../../../pic32mx/lib/libpic32.a(vector61.o)
                0x9d0059a0                __vector_dispatch_61
                0x00000001                ASSERT (((_vector_spacing == 0x0) || (SIZEOF (.vector_61) <= (_vector_spacing << 0x5))), function at exception vector 61 too large)

.vector_62      0x9d0059c0        0x8
 *(.vector_62)
 .vector_62     0x9d0059c0        0x8 /opt/microchip/xc32/v1.21/bin/../lib/gcc/pic32mx/4.5.2/../../../../pic32mx/lib/libpic32.a(vector62.o)
                0x9d0059c0                __vector_dispatch_62
                0x00000001                ASSERT (((_vector_spacing == 0x0) || (SIZEOF (.vector_62) <= (_vector_spacing << 0x5))), function at exception vector 62 too large)

.vector_63      0x9d0059e0        0x8
 *(.vector_63)
 .vector_63     0x9d0059e0        0x8 /opt/microchip/xc32/v1.21/bin/../lib/gcc/pic32mx/4.5.2/../../../../pic32mx/lib/libpic32.a(vector63.o)
                0x9d0059e0                __vector_dispatch_63
                0x00000001                ASSERT (((_vector_spacing == 0x0) || (SIZEOF (.vector_63) <= (_vector_spacing << 0x5))), function at exception vector 63 too large)

.startup
 *(.startup)

.text           0x9d006a00        0x0
 *(.stub .gnu.linkonce.t.*)
 *(.text.*personality*)
 *(.mips16.fn.*)
 *(.mips16.call.*)
 *(.gnu.warning)
                0x9d006a00                . = ALIGN (0x4)

.init           0x9d006a00        0x0
 *crti.o(.init)
 *crtbegin.o(.init)
 *(EXCLUDE_FILE(*crtn.o *crtend?.o *crtend.o) .init)
 *crtend.o(.init)
 *crtn.o(.init)
                0x9d006a00                . = ALIGN (0x4)

.fini           0x9d006a00        0x0
 *(.fini)
                0x9d006a00                . = ALIGN (0x4)

.preinit_array  0x9d006a00        0x0
                0x9d006a00                PROVIDE (__preinit_array_start, .)
 *(.preinit_array)
                0x9d006a00                PROVIDE (__preinit_array_end, .)
                0x9d006a00                . = ALIGN (0x4)

.init_array     0x9d006a00        0x0
                0x9d006a00                PROVIDE (__init_array_start, .)
 *(SORT(.init_array.*))
 *(.init_array)
                0x9d006a00                PROVIDE (__init_array_end, .)
                0x9d006a00                . = ALIGN (0x4)

.fini_array     0x9d006a00        0x0
                0x9d006a00                PROVIDE (__fini_array_start, .)
 *(SORT(.fini_array.*))
 *(.fini_array)
                0x9d006a00                PROVIDE (__fini_array_end, .)
                0x9d006a00                . = ALIGN (0x4)

.ctors          0x9d006a00        0x0
 *crtbegin.o(.ctors)
 *crtbegin?.o(.ctors)
 *(EXCLUDE_FILE(*crtend?.o *crtend.o) .ctors)
 *(SORT(.ctors.*))
 *(.ctors)
                0x9d006a00                . = ALIGN (0x4)

.dtors          0x9d006a00        0x0
 *crtbegin.o(.dtors)
 *crtbegin?.o(.dtors)
 *(EXCLUDE_FILE(*crtend?.o *crtend.o) .dtors)
 *(SORT(.dtors.*))
 *(.dtors)
                0x9d006a00                . = ALIGN (0x4)

.rodata         0x9d006a00        0x0
 *(.gnu.linkonce.r.*)
 *(.rodata1)
                0x9d006a00                . = ALIGN (0x4)

.sdata2         0x9d006490        0x0
 *(.sdata2 .sdata2.* .gnu.linkonce.s2.*)
                0x9d006490                . = ALIGN (0x4)

.sbss2          0x9d006490        0x0
 *(.sbss2 .sbss2.* .gnu.linkonce.sb2.*)
                0x9d006490                . = ALIGN (0x4)

.eh_frame_hdr
 *(.eh_frame_hdr)
                0x9d006490                . = ALIGN (0x4)

.eh_frame
 *(.eh_frame)
                0x9d006490                . = ALIGN (0x4)

.gcc_except_table
 *(.gcc_except_table .gcc_except_table.*)
                0x9d006490                . = ALIGN (0x4)

.dbg_data       0xa0000004        0x0
                0xa0000004                . = (. + DEFINED (_DEBUGGER)?0x200:0x0)

.jcr            0xa0000004        0x0
 *(.jcr)
                0xa0000004                . = ALIGN (0x4)

.eh_frame       0xa0000004       0x30
 *(.eh_frame)
 .eh_frame      0xa0000004       0x20 /opt/microchip/xc32/v1.21/bin/../lib/gcc/pic32mx/4.5.2/libgcc.a(_udivdi3.o)
 .eh_frame      0xa0000024       0x10 /opt/microchip/xc32/v1.21/bin/../lib/gcc/pic32mx/4.5.2/libgcc.a(_umoddi3.o)
                0xa0000034                . = ALIGN (0x4)

.gcc_except_table
 *(.gcc_except_table .gcc_except_table.*)
                0xa0000034                . = ALIGN (0x4)

.persist        0xa0000034        0x0
                0xa0000034                _persist_begin = .
 *(.persist .persist.*)
 *(.pbss .pbss.*)
                0xa0000034                . = ALIGN (0x4)
                0xa0000034                _persist_end = .

.data           0xa0000034        0x0
 *(.gnu.linkonce.d.*)
 *(.data1)
                0xa0000034                . = ALIGN (0x4)
                0xa0000034                . = .
                0xa0008030                _gp = (ALIGN (0x10) + 0x7ff0)

.got            0xa0000034        0x0
 *(.got.plt)
 *(.got)
                0xa0000034                . = ALIGN (0x4)

.sdata          0xa0000034       0x40
                0xa0000034                _sdata_begin = .
 *(.sdata .sdata.* .gnu.linkonce.s.*)
 .sdata         0xa0000034        0xc build/debug/production/_ext/71113213/FSIO.o
                0xa0000034                gLastFATSectorRead
                0xa0000038                gLastDataSectorRead
                0xa000003c                cwdptr
 .sdata         0xa0000040        0x8 build/debug/production/_ext/2096855388/SClib.o
                0xa0000040                factorF
                0xa0000044                factorDNumerator
                0xa0000045                factorDdenominator
 .sdata         0xa0000048       0x18 build/debug/production/src/main.o
                0xa0000048                RWD_Command_ThisBit
                0xa000004c                OnOff
                0xa0000054                HighLow
 .sdata         0xa0000060        0x1 build/debug/production/src/isr.o
 *fill*         0xa0000061        0x3 00
 .sdata         0xa0000064        0x8 build/debug/production/src/hitag.o
                0xa0000064                Hitag2Sync
 .sdata         0xa000006c        0x4 /opt/microchip/xc32/v1.21/bin/../lib/gcc/pic32mx/4.5.2/../../../../pic32mx/lib/libc.a(_iob.o)
                0xa000006c                _Files
 .sdata         0xa0000070        0x4 /opt/microchip/xc32/v1.21/bin/../lib/gcc/pic32mx/4.5.2/../../../../pic32mx/lib/libpic32.a(xc32_uart.o)
                0xa0000070                __XC_UART
                0xa0000074                . = ALIGN (0x4)
                0xa0000074                _sdata_end = .

.lit8
 *(.lit8)

.lit4
 *(.lit4)
                0xa0000074                . = ALIGN (0x4)
                0xa0000074                _data_end = .
                0xa0000074                _bss_begin = .

.sbss           0xa0000074      0x204
                0xa0000074                _sbss_begin = .
 *(.dynsbss)
 *(.sbss .sbss.* .gnu.linkonce.sb.*)
 .sbss          0xa0000074       0x1c build/debug/production/_ext/71113213/SD-SPI.o
 .sbss          0xa0000090       0x14 build/debug/production/_ext/71113213/FSIO.o
                0xa0000090                gNeedFATWrite
                0xa0000094                gBufferOwner
                0xa0000098                gNeedDataWrite
                0xa0000099                nextClusterIsLast
                0xa000009a                gBufferZeroed
                0xa000009b                recache
                0xa000009c                utfModeFileName
                0xa00000a0                twoByteMode
 .sbss          0xa00000a4       0x14 build/debug/production/_ext/2096855388/SClib.o
                0xa00000a4                scATRLength
                0xa00000a8                scATR_HistoryBuffer
                0xa00000ac                scATR_HistoryLength
                0xa00000b0                gCardState
                0xa00000b4                scLastError
 .sbss          0xa00000b8        0x4 build/debug/production/_ext/2096855388/SCpic32.o
                0xa00000b8                delayLapsedFlag
 .sbss          0xa00000bc       0x5c build/debug/production/src/main.o
                0xa00000bc                EmulationMode
                0xa00000c0                SnifferMode
                0xa00000c4                WiegandOutput
                0xa00000c8                EMU_Background
                0xa00000cc                RWD_State
                0xa00000d0                RWD_Fc
                0xa00000d4                RWD_Gap_Period
                0xa00000d8                RWD_Zero_Period
                0xa00000dc                RWD_One_Period
                0xa00000e0                RWD_Sleep_Period
                0xa00000e4                RWD_Wake_Period
                0xa00000e8                RWD_Wait_Switch_TX_RX
                0xa00000ec                RWD_Wait_Switch_RX_TX
                0xa00000f0                RWD_Post_Wait
                0xa00000f4                RWD_OC5_config
                0xa00000f8                RWD_OC5_r
                0xa00000fc                RWD_OC5_rs
                0xa0000100                DataBuffCount
                0xa0000104                Interface
                0xa0000105                CommsChannel
                0xa0000108                SoftwareKey
 .sbss          0xa0000118        0x4 build/debug/production/src/util.o
 .sbss          0xa000011c        0x4 build/debug/production/src/comms.o
 .sbss          0xa0000120       0x1c build/debug/production/src/isr.o
                0xa0000120                PSK_Read_Error
                0xa0000124                Manchester_Error
                0xa0000128                Manchester_Auto_Correct
 .sbss          0xa000013c        0x4 build/debug/production/src/hitag.o
                0xa000013c                CryptoActive
 .sbss          0xa0000140        0x4 build/debug/production/src/q5.o
                0xa0000140                PWD_Mode
 .sbss          0xa0000144        0x1 /opt/microchip/xc32/v1.21/bin/../lib/gcc/pic32mx/4.5.2/../../../../pic32mx/lib/libc.a(_iob.o)
                0xa0000144                _outdone
 *fill*         0xa0000145        0x3 00
 .sbss          0xa0000148        0x4 /opt/microchip/xc32/v1.21/bin/../lib/gcc/pic32mx/4.5.2/../../../../pic32mx/lib/libpic32.a(errno.o)
                0xa0000148                errno
 *(.scommon)
 .scommon       0xa000014c        0x8 build/debug/production/_ext/71113213/SD-SPI.o
                0xa000014c                gMediaSectorSize
                0xa000014e                gSDMode
                0xa0000150                MDD_SDSPI_finalLBA
 .scommon       0xa0000154       0x2c build/debug/production/_ext/71113213/FSIO.o
                0xa0000154                utf16Filename
                0xa0000158                recordSearchLength
                0xa000015c                TempClusterCalc
                0xa0000160                gTimeCrtTime
                0xa0000164                gFileSlotOpen
                0xa0000168                gTimeAccDate
                0xa000016a                gTimeCrtDate
                0xa000016c                asciiFilename
                0xa0000170                FSerrno
                0xa0000172                fileNameLength
                0xa0000174                dirCleared
                0xa0000176                gTimeWrtTime
                0xa0000178                FatRootDirClusterValue
                0xa000017c                gTimeCrtMS
                0xa000017e                gTimeWrtDate
 .scommon       0xa0000180       0x23 build/debug/production/_ext/2096855388/SClib.o
                0xa0000180                scTA2
                0xa0000182                cgtETU
                0xa0000184                scTB3
                0xa0000185                scTA1
                0xa0000188                cgtInMicroSeconds
                0xa000018c                scTD3
                0xa000018d                scTC3
                0xa000018e                scPPSresponseLength
                0xa000018f                scTB2
                0xa0000190                scTD2
                0xa0000191                scTC2
                0xa0000194                t0WWTetu
                0xa0000198                scPPSresponse
                0xa000019f                scTB1
                0xa00001a0                scTA3
                0xa00001a1                scTD1
                0xa00001a2                scTC1
 *fill*         0xa00001a3        0x1 00
 .scommon       0xa00001a4        0xe build/debug/production/_ext/2096855388/SCpic32.o
                0xa00001a4                rxETUtimeDivisorFactor
                0xa00001a8                baudRate
                0xa00001ac                scReferenceClock
                0xa00001b0                oneETUtimeinMicroSeconds
 *fill*         0xa00001b2        0x2 00
 .scommon       0xa00001b4       0x52 build/debug/production/_ext/870548313/usb_device.o
                0xa00001b4                ep_data_in
                0xa00001b8                USBDeferStatusStagePacket
                0xa00001bc                USTATcopy
                0xa00001c0                RemoteWakeup
                0xa00001c4                controlTransferState
                0xa00001c5                USBStatusStageTimeoutCounter
                0xa00001c8                pDst
                0xa00001cc                USBDeferINDataStagePackets
                0xa00001d0                ep_data_out
                0xa00001d4                SetupPkt
                0xa00001dc                pBDTEntryEP0OutNext
                0xa00001e0                USBAlternateInterface
                0xa00001e4                USBStatusStageEnabledFlag2
                0xa00001e8                BothEP0OutUOWNsSet
                0xa00001ec                USBBusIsSuspended
                0xa00001f0                USBDeferOUTDataStagePackets
                0xa00001f4                USBActiveConfiguration
                0xa00001f8                USBStatusStageEnabledFlag1
                0xa00001fc                USBDeviceState
                0xa0000200                pBDTEntryEP0OutCurrent
                0xa0000204                shortPacketStatus
                0xa0000205                endpoint_number
 *fill*         0xa0000206        0x2 00
 .scommon       0xa0000208       0x3c build/debug/production/_ext/1379786196/usb_function_cdc.o
                0xa0000208                control_signal_bitmap
                0xa000020c                cdc_tx_len
                0xa000020d                cdc_trf_state
                0xa0000210                cdc_notice
                0xa0000218                cdc_mem_type
                0xa000021c                CDCDataInHandle
                0xa0000220                pCDCSrc
                0xa0000224                cdc_rx_len
                0xa0000228                BaudRateGen
                0xa000022c                pCDCDst
                0xa0000230                line_coding
                0xa0000238                CDCDataOutHandle
                0xa000023c                dummy_encapsulated_cmd_response
 .scommon       0xa0000244       0x24 build/debug/production/src/main.o
                0xa0000244                stringPrinted
                0xa0000248                EMU_Reset_Data
                0xa000024c                EMU_SubCarrier_T0
                0xa0000250                EMU_DataBitRate
                0xa0000254                buttonPressed
                0xa0000258                EMU_ThisBit
                0xa0000259                EMU_SubCarrier_T1
                0xa000025c                EMU_Data
                0xa0000260                buttonCount
                0xa0000261                ReaderPeriod
                0xa0000264                EMU_Repeat
 .scommon       0xa0000268        0x8 build/debug/production/src/util.o
                0xa0000268                RTC_date
                0xa000026c                RTC_time
 .scommon       0xa0000270        0x8 build/debug/production/src/isr.o
                0xa0000270                PSK_Min_Pulse
                0xa0000274                HW_Bits
                0xa0000278                _sbss_end = .
                0xa0000278                . = ALIGN (0x4)

.bss            0xa0000400     0x6e10
 *(.dynbss)
 *(COMMON)
 COMMON         0xa0000400     0x13f2 build/debug/production/_ext/71113213/FSIO.o
                0xa0000400                tempCWDobj
                0xa0000444                fileFoundString
                0xa0000650                lfnData
                0xa0000c58                gDiskData
                0xa0000c80                gFATBuffer
                0xa0000e80                cwd
                0xa0000ec4                gDataBuffer
                0xa00010c4                recordFoundName
                0xa00012c8                gFileArray
                0xa0001394                recordSearchName
                0xa0001598                gFileTemp
                0xa00015dc                tempDirectoryString
                0xa00017e8                defaultArray
 *fill*         0xa00017f2        0x2 00
 COMMON         0xa00017f4       0x21 build/debug/production/_ext/2096855388/SClib.o
                0xa00017f4                scCardATR
 *fill*         0xa0001815      0x1eb 00
 COMMON         0xa0001a00      0x280 build/debug/production/_ext/870548313/usb_device.o
                0xa0001a00                inPipes
                0xa0001a10                CtrlTrfData
                0xa0001a50                outPipes
                0xa0001a5c                pBDTEntryOut
                0xa0001a6c                pBDTEntryIn
                0xa0001c00                BDT
 COMMON         0xa0001c80       0x80 build/debug/production/_ext/1379786196/usb_function_cdc.o
                0xa0001c80                cdc_data_tx
                0xa0001cc0                cdc_data_rx
 COMMON         0xa0001d00     0x5500 build/debug/production/src/main.o
                0xa0001d00                TmpBuff
                0xa0002d00                Comms_Out_Buffer
                0xa0002d80                RFIDlerConfig
                0xa0002e78                RWD_Command_Buff
                0xa0002f78                DataBuff
                0xa0003778                SampleAnalogue
                0xa0005778                RFIDlerVTag
                0xa0006980                Comms_In_Buffer
                0xa0006a00                TmpBits
 COMMON         0xa0007200       0x10 build/debug/production/src/hitag.o
                0xa0007200                Hitag_Crypto_State
                0xa0007210                . = ALIGN ((. != 0x0)?0x4:0x1)
                0xa0007210                . = ALIGN (0x4)
                0xa0007210                _end = .
                0xa0007210                _bss_end = .
                0x00007f00                _bmxdudba_address = 0x7f00
                0x00007f00                _bmxdupba_address = 0x7f00

/DISCARD/
 *(.pdr)
 *(.rel.dyn)
 *(.note.GNU-stack)
 *(.note.GNU-stack)
 *(.gnu_debuglink)
 *(.gnu.lto_*)
 *(.discard)

.gptab.sdata
 *(.gptab.data)
 *(.gptab.sdata)

.gptab.sbss
 *(.gptab.bss)
 *(.gptab.sbss)

.mdebug.abi32   0xa0007210        0x0
 *(.mdebug.abi32)
 .mdebug.abi32  0xa0007210        0x0 build/debug/production/_ext/71113213/SD-SPI.o
 .mdebug.abi32  0xa0007210        0x0 build/debug/production/_ext/71113213/FSIO.o
 .mdebug.abi32  0xa0007210        0x0 build/debug/production/_ext/2096855388/SClib.o
 .mdebug.abi32  0xa0007210        0x0 build/debug/production/_ext/2096855388/SCpic32.o
 .mdebug.abi32  0xa0007210        0x0 build/debug/production/_ext/870548313/usb_device.o
 .mdebug.abi32  0xa0007210        0x0 build/debug/production/_ext/1379786196/usb_function_cdc.o
 .mdebug.abi32  0xa0007210        0x0 build/debug/production/src/indala.o
 .mdebug.abi32  0xa0007210        0x0 build/debug/production/src/main.o
 .mdebug.abi32  0xa0007210        0x0 build/debug/production/src/psk.o
 .mdebug.abi32  0xa0007210        0x0 build/debug/production/src/usb_descriptors.o
 .mdebug.abi32  0xa0007210        0x0 build/debug/production/src/util.o
 .mdebug.abi32  0xa0007210        0x0 build/debug/production/src/emulate.o
 .mdebug.abi32  0xa0007210        0x0 build/debug/production/src/ask.o
 .mdebug.abi32  0xa0007210        0x0 build/debug/production/src/fsk.o
 .mdebug.abi32  0xa0007210        0x0 build/debug/production/src/clock.o
 .mdebug.abi32  0xa0007210        0x0 build/debug/production/src/rwd.o
 .mdebug.abi32  0xa0007210        0x0 build/debug/production/src/detect.o
 .mdebug.abi32  0xa0007210        0x0 build/debug/production/src/hitagcrypto.o
 .mdebug.abi32  0xa0007210        0x0 build/debug/production/src/wiegand.o
 .mdebug.abi32  0xa0007210        0x0 build/debug/production/src/comms.o
 .mdebug.abi32  0xa0007210        0x0 build/debug/production/src/nvm.o
 .mdebug.abi32  0xa0007210        0x0 build/debug/production/src/mcp414x.o
 .mdebug.abi32  0xa0007210        0x0 build/debug/production/src/spi.o
 .mdebug.abi32  0xa0007210        0x0 build/debug/production/src/uart3.o
 .mdebug.abi32  0xa0007210        0x0 build/debug/production/src/tags.o
 .mdebug.abi32  0xa0007210        0x0 build/debug/production/src/unique.o
 .mdebug.abi32  0xa0007210        0x0 build/debug/production/src/led.o
 .mdebug.abi32  0xa0007210        0x0 build/debug/production/src/em.o
 .mdebug.abi32  0xa0007210        0x0 build/debug/production/src/hid.o
 .mdebug.abi32  0xa0007210        0x0 build/debug/production/src/read.o
 .mdebug.abi32  0xa0007210        0x0 build/debug/production/src/isr.o
 .mdebug.abi32  0xa0007210        0x0 build/debug/production/src/auto.o
 .mdebug.abi32  0xa0007210        0x0 build/debug/production/src/fdxb.o
 .mdebug.abi32  0xa0007210        0x0 build/debug/production/src/hitag.o
 .mdebug.abi32  0xa0007210        0x0 build/debug/production/src/uid.o
 .mdebug.abi32  0xa0007210        0x0 build/debug/production/src/login.o
 .mdebug.abi32  0xa0007210        0x0 build/debug/production/src/write.o
 .mdebug.abi32  0xa0007210        0x0 build/debug/production/src/auth.o
 .mdebug.abi32  0xa0007210        0x0 build/debug/production/src/q5.o
 .mdebug.abi32  0xa0007210        0x0 build/debug/production/src/vtag.o
 .mdebug.abi32  0xa0007210        0x0 build/debug/production/src/config.o
 .mdebug.abi32  0xa0007210        0x0 build/debug/production/src/select.o
 .mdebug.abi32  0xa0007210        0x0 build/debug/production/src/sdcard.o
 .mdebug.abi32  0xa0007210        0x0 build/debug/production/src/debug_pins.o
 .mdebug.abi32  0xa0007210        0x0 build/debug/production/src/awid.o
 .mdebug.abi32  0xa0007210        0x0 build/debug/production/src/analogue.o
 .mdebug.abi32  0xa0007210        0x0 /opt/microchip/xc32/v1.21/pic32mx/lib/libmchp_peripheral_32MX795F512L.a(soft_reset_lib.o)
 .mdebug.abi32  0xa0007210        0x0 /opt/microchip/xc32/v1.21/pic32mx/lib/libmchp_peripheral_32MX795F512L.a(pcache.o)
 .mdebug.abi32  0xa0007210        0x0 /opt/microchip/xc32/v1.21/pic32mx/lib/libmchp_peripheral_32MX795F512L.a(int_configure_system_lib.o)
 .mdebug.abi32  0xa0007210        0x0 /opt/microchip/xc32/v1.21/pic32mx/lib/libmchp_peripheral_32MX795F512L.a(int_enable_interrupts_lib.o)
 .mdebug.abi32  0xa0007210        0x0 /opt/microchip/xc32/v1.21/pic32mx/lib/libmchp_peripheral_32MX795F512L.a(int_disable_interrupts_lib.o)
 .mdebug.abi32  0xa0007210        0x0 /opt/microchip/xc32/v1.21/pic32mx/lib/libmchp_peripheral_32MX795F512L.a(int_restore_interrupts_lib.o)
 .mdebug.abi32  0xa0007210        0x0 /opt/microchip/xc32/v1.21/pic32mx/lib/libmchp_peripheral_32MX795F512L.a(int_enable_mv_int_lib.o)
 .mdebug.abi32  0xa0007210        0x0 /opt/microchip/xc32/v1.21/pic32mx/lib/libmchp_peripheral_32MX795F512L.a(int_tbl_lib.o)
 .mdebug.abi32  0xa0007210        0x0 /opt/microchip/xc32/v1.21/pic32mx/lib/libmchp_peripheral_32MX795F512L.a(spi_chn_close_lib.o)
 .mdebug.abi32  0xa0007210        0x0 /opt/microchip/xc32/v1.21/pic32mx/lib/libmchp_peripheral_32MX795F512L.a(spi_chn_open_lib.o)
 .mdebug.abi32  0xa0007210        0x0 /opt/microchip/xc32/v1.21/pic32mx/lib/libmchp_peripheral_32MX795F512L.a(spi_io_tbl_libp.o)
 .mdebug.abi32  0xa0007210        0x0 /opt/microchip/xc32/v1.21/pic32mx/lib/libmchp_peripheral_32MX795F512L.a(spi_map_tbl_libp.o)
 .mdebug.abi32  0xa0007210        0x0 /opt/microchip/xc32/v1.21/pic32mx/lib/libmchp_peripheral_32MX795F512L.a(spi_getc_spi1_lib_legacy.o)
 .mdebug.abi32  0xa0007210        0x0 /opt/microchip/xc32/v1.21/pic32mx/lib/libmchp_peripheral_32MX795F512L.a(spi_open_spi1_lib_legacy.o)
 .mdebug.abi32  0xa0007210        0x0 /opt/microchip/xc32/v1.21/pic32mx/lib/libmchp_peripheral_32MX795F512L.a(spi_brg_tbl_lib_legacy.o)
 .mdebug.abi32  0xa0007210        0x0 /opt/microchip/xc32/v1.21/pic32mx/lib/libmchp_peripheral_32MX795F512L.a(nvm_erase_page_lib.o)
 .mdebug.abi32  0xa0007210        0x0 /opt/microchip/xc32/v1.21/pic32mx/lib/libmchp_peripheral_32MX795F512L.a(nvm_operation_lib.o)
 .mdebug.abi32  0xa0007210        0x0 /opt/microchip/xc32/v1.21/pic32mx/lib/libmchp_peripheral_32MX795F512L.a(nvm_program_lib.o)
 .mdebug.abi32  0xa0007210        0x0 /opt/microchip/xc32/v1.21/pic32mx/lib/libmchp_peripheral_32MX795F512L.a(nvm_write_row_lib.o)
 .mdebug.abi32  0xa0007210        0x0 /opt/microchip/xc32/v1.21/pic32mx/lib/libmchp_peripheral_32MX795F512L.a(port_reset_pins_lib.o)
 .mdebug.abi32  0xa0007210        0x0 /opt/microchip/xc32/v1.21/pic32mx/lib/libmchp_peripheral_32MX795F512L.a(port_set_pins_digital_in_lib.o)
 .mdebug.abi32  0xa0007210        0x0 /opt/microchip/xc32/v1.21/pic32mx/lib/libmchp_peripheral_32MX795F512L.a(port_set_pins_digital_out_lib.o)
 .mdebug.abi32  0xa0007210        0x0 /opt/microchip/xc32/v1.21/pic32mx/lib/libmchp_peripheral_32MX795F512L.a(_ports_tbl_libp.o)
 .mdebug.abi32  0xa0007210        0x0 /opt/microchip/xc32/v1.21/bin/../lib/gcc/pic32mx/4.5.2/libgcc.a(_udivdi3.o)
 .mdebug.abi32  0xa0007210        0x0 /opt/microchip/xc32/v1.21/bin/../lib/gcc/pic32mx/4.5.2/../../../../pic32mx/lib/libpic32.a(default-bootstrap-exception-handler.o)
 .mdebug.abi32  0xa0007210        0x0 /opt/microchip/xc32/v1.21/bin/../lib/gcc/pic32mx/4.5.2/../../../../pic32mx/lib/libpic32.a(default-on-reset.o)
 .mdebug.abi32  0xa0007210        0x0 /opt/microchip/xc32/v1.21/bin/../lib/gcc/pic32mx/4.5.2/../../../../pic32mx/lib/libpic32.a(default-on-bootstrap.o)
 .mdebug.abi32  0xa0007210        0x0 /opt/microchip/xc32/v1.21/bin/../lib/gcc/pic32mx/4.5.2/../../../../pic32mx/lib/libpic32.a(default-general-exception-handler.o)
 .mdebug.abi32  0xa0007210        0x0 /opt/microchip/xc32/v1.21/bin/../lib/gcc/pic32mx/4.5.2/../../../../pic32mx/lib/libpic32.a(defaultinterrupt.o)
 .mdebug.abi32  0xa0007210        0x0 /opt/microchip/xc32/v1.21/bin/../lib/gcc/pic32mx/4.5.2/../../../../pic32mx/lib/libc.a(ctypef.o)
 .mdebug.abi32  0xa0007210        0x0 /opt/microchip/xc32/v1.21/bin/../lib/gcc/pic32mx/4.5.2/../../../../pic32mx/lib/libc.a(rand.o)
 .mdebug.abi32  0xa0007210        0x0 /opt/microchip/xc32/v1.21/bin/../lib/gcc/pic32mx/4.5.2/../../../../pic32mx/lib/libc.a(strncmp.o)
 .mdebug.abi32  0xa0007210        0x0 /opt/microchip/xc32/v1.21/bin/../lib/gcc/pic32mx/4.5.2/../../../../pic32mx/lib/libc.a(strncpy.o)
 .mdebug.abi32  0xa0007210        0x0 /opt/microchip/xc32/v1.21/bin/../lib/gcc/pic32mx/4.5.2/../../../../pic32mx/lib/libc.a(sprintf_cdnopuxX.eo)
 .mdebug.abi32  0xa0007210        0x0 /opt/microchip/xc32/v1.21/bin/../lib/gcc/pic32mx/4.5.2/../../../../pic32mx/lib/libc.a(sprintf.o)
 .mdebug.abi32  0xa0007210        0x0 /opt/microchip/xc32/v1.21/bin/../lib/gcc/pic32mx/4.5.2/../../../../pic32mx/lib/libc.a(sscanf_cdfFnopsuxX.eo)
 .mdebug.abi32  0xa0007210        0x0 /opt/microchip/xc32/v1.21/bin/../lib/gcc/pic32mx/4.5.2/../../../../pic32mx/lib/libc.a(ctype.o)
 .mdebug.abi32  0xa0007210        0x0 /opt/microchip/xc32/v1.21/bin/../lib/gcc/pic32mx/4.5.2/../../../../pic32mx/lib/libc.a(doprnt_cdnopuxX.eo)
 .mdebug.abi32  0xa0007210        0x0 /opt/microchip/xc32/v1.21/bin/../lib/gcc/pic32mx/4.5.2/../../../../pic32mx/lib/libc.a(doprnt.o)
 .mdebug.abi32  0xa0007210        0x0 /opt/microchip/xc32/v1.21/bin/../lib/gcc/pic32mx/4.5.2/../../../../pic32mx/lib/libc.a(doscan_cdfFnopsuxX.eo)
 .mdebug.abi32  0xa0007210        0x0 /opt/microchip/xc32/v1.21/bin/../lib/gcc/pic32mx/4.5.2/../../../../pic32mx/lib/libc.a(doscan_cdnopuxX.eo)
 .mdebug.abi32  0xa0007210        0x0 /opt/microchip/xc32/v1.21/bin/../lib/gcc/pic32mx/4.5.2/../../../../pic32mx/lib/libc.a(fgetc.o)
 .mdebug.abi32  0xa0007210        0x0 /opt/microchip/xc32/v1.21/bin/../lib/gcc/pic32mx/4.5.2/../../../../pic32mx/lib/libc.a(_fputc_simple.o)
 .mdebug.abi32  0xa0007210        0x0 /opt/microchip/xc32/v1.21/bin/../lib/gcc/pic32mx/4.5.2/../../../../pic32mx/lib/libc.a(atoi.o)
 .mdebug.abi32  0xa0007210        0x0 /opt/microchip/xc32/v1.21/bin/../lib/gcc/pic32mx/4.5.2/../../../../pic32mx/lib/libc.a(powersf.o)
 .mdebug.abi32  0xa0007210        0x0 /opt/microchip/xc32/v1.21/bin/../lib/gcc/pic32mx/4.5.2/../../../../pic32mx/lib/libc.a(strtod.o)
 .mdebug.abi32  0xa0007210        0x0 /opt/microchip/xc32/v1.21/bin/../lib/gcc/pic32mx/4.5.2/../../../../pic32mx/lib/libc.a(strtof.o)
 .mdebug.abi32  0xa0007210        0x0 /opt/microchip/xc32/v1.21/bin/../lib/gcc/pic32mx/4.5.2/../../../../pic32mx/lib/libc.a(ungetc.o)
 .mdebug.abi32  0xa0007210        0x0 /opt/microchip/xc32/v1.21/bin/../lib/gcc/pic32mx/4.5.2/../../../../pic32mx/lib/libc.a(_iob.o)
 .mdebug.abi32  0xa0007210        0x0 /opt/microchip/xc32/v1.21/bin/../lib/gcc/pic32mx/4.5.2/../../../../pic32mx/lib/libc.a(filbuf.o)
 .mdebug.abi32  0xa0007210        0x0 /opt/microchip/xc32/v1.21/bin/../lib/gcc/pic32mx/4.5.2/../../../../pic32mx/lib/libc.a(_flsbuf_simple.o)
 .mdebug.abi32  0xa0007210        0x0 /opt/microchip/xc32/v1.21/bin/../lib/gcc/pic32mx/4.5.2/../../../../pic32mx/lib/libc.a(fflush.o)
 .mdebug.abi32  0xa0007210        0x0 /opt/microchip/xc32/v1.21/bin/../lib/gcc/pic32mx/4.5.2/../../../../pic32mx/lib/libpic32.a(read.o)
 .mdebug.abi32  0xa0007210        0x0 /opt/microchip/xc32/v1.21/bin/../lib/gcc/pic32mx/4.5.2/../../../../pic32mx/lib/libpic32.a(write.o)
 .mdebug.abi32  0xa0007210        0x0 /opt/microchip/xc32/v1.21/bin/../lib/gcc/pic32mx/4.5.2/../../../../pic32mx/lib/libpic32.a(xc32_uart.o)
 .mdebug.abi32  0xa0007210        0x0 /opt/microchip/xc32/v1.21/bin/../lib/gcc/pic32mx/4.5.2/../../../../pic32mx/lib/libpic32.a(_mon_putc.o)
 .mdebug.abi32  0xa0007210        0x0 /opt/microchip/xc32/v1.21/bin/../lib/gcc/pic32mx/4.5.2/../../../../pic32mx/lib/libe.a(_floatdisf.o)
 .mdebug.abi32  0xa0007210        0x0 /opt/microchip/xc32/v1.21/bin/../lib/gcc/pic32mx/4.5.2/../../../../pic32mx/lib/libe.a(_strtod.o)
 .mdebug.abi32  0xa0007210        0x0 /opt/microchip/xc32/v1.21/bin/../lib/gcc/pic32mx/4.5.2/../../../../pic32mx/lib/libe.a(_strtof.o)
 .mdebug.abi32  0xa0007210        0x0 /opt/microchip/xc32/v1.21/bin/../lib/gcc/pic32mx/4.5.2/../../../../pic32mx/lib/libe.a(_ldexp.o)
 .mdebug.abi32  0xa0007210        0x0 /opt/microchip/xc32/v1.21/bin/../lib/gcc/pic32mx/4.5.2/../../../../pic32mx/lib/libe.a(_ldexpf.o)
 .mdebug.abi32  0xa0007210        0x0 /opt/microchip/xc32/v1.21/bin/../lib/gcc/pic32mx/4.5.2/libgcc.a(_lshrdi3.o)
 .mdebug.abi32  0xa0007210        0x0 /opt/microchip/xc32/v1.21/bin/../lib/gcc/pic32mx/4.5.2/libgcc.a(_ashldi3.o)
 .mdebug.abi32  0xa0007210        0x0 /opt/microchip/xc32/v1.21/bin/../lib/gcc/pic32mx/4.5.2/libgcc.a(_floatundisf.o)
 .mdebug.abi32  0xa0007210        0x0 /opt/microchip/xc32/v1.21/bin/../lib/gcc/pic32mx/4.5.2/libgcc.a(_umoddi3.o)
 .mdebug.abi32  0xa0007210        0x0 /opt/microchip/xc32/v1.21/bin/../lib/gcc/pic32mx/4.5.2/libgcc.a(floatunsisf.o)
 .mdebug.abi32  0xa0007210        0x0 /opt/microchip/xc32/v1.21/bin/../lib/gcc/pic32mx/4.5.2/../../../../pic32mx/lib/libpic32.a(errno.o)

.mdebug.abiN32
 *(.mdebug.abiN32)

.mdebug.abi64
 *(.mdebug.abi64)

.mdebug.abiO64
 *(.mdebug.abiO64)

.mdebug.eabi32
 *(.mdebug.eabi32)

.mdebug.eabi64
 *(.mdebug.eabi64)

.gcc_compiled_long32
 *(.gcc_compiled_long32)

.gcc_compiled_long64
 *(.gcc_compiled_long64)

.stab
 *(.stab)

.stabstr
 *(.stabstr)

.stab.excl
 *(.stab.excl)

.stab.exclstr
 *(.stab.exclstr)

.stab.index
 *(.stab.index)

.stab.indexstr
 *(.stab.indexstr)

.comment        0x00000000      0x3a8
 *(.comment)
 .comment       0x00000000       0x3c build/debug/production/_ext/71113213/SD-SPI.o
                                 0x3d (size before relaxing)
 .comment       0x00000000       0x3d build/debug/production/_ext/71113213/FSIO.o
 .comment       0x00000000       0x3d build/debug/production/_ext/2096855388/SClib.o
 .comment       0x00000000       0x3d build/debug/production/_ext/2096855388/SCpic32.o
 .comment       0x00000000       0x3d build/debug/production/_ext/870548313/usb_device.o
 .comment       0x00000000       0x3d build/debug/production/_ext/1379786196/usb_function_cdc.o
 .comment       0x00000000       0x3d build/debug/production/src/indala.o
 .comment       0x00000000       0x3d build/debug/production/src/main.o
 .comment       0x00000000       0x3d build/debug/production/src/psk.o
 .comment       0x00000000       0x3d build/debug/production/src/usb_descriptors.o
 .comment       0x00000000       0x3d build/debug/production/src/util.o
 .comment       0x00000000       0x3d build/debug/production/src/emulate.o
 .comment       0x00000000       0x3d build/debug/production/src/ask.o
 .comment       0x00000000       0x3d build/debug/production/src/fsk.o
 .comment       0x00000000       0x3d build/debug/production/src/clock.o
 .comment       0x00000000       0x3d build/debug/production/src/rwd.o
 .comment       0x00000000       0x3d build/debug/production/src/detect.o
 .comment       0x00000000       0x3d build/debug/production/src/hitagcrypto.o
 .comment       0x00000000       0x3d build/debug/production/src/wiegand.o
 .comment       0x00000000       0x3d build/debug/production/src/comms.o
 .comment       0x00000000       0x3d build/debug/production/src/nvm.o
 .comment       0x00000000       0x3d build/debug/production/src/mcp414x.o
 .comment       0x00000000       0x3d build/debug/production/src/spi.o
 .comment       0x00000000       0x3d build/debug/production/src/uart3.o
 .comment       0x00000000       0x3d build/debug/production/src/tags.o
 .comment       0x00000000       0x3d build/debug/production/src/unique.o
 .comment       0x00000000       0x3d build/debug/production/src/led.o
 .comment       0x00000000       0x3d build/debug/production/src/em.o
 .comment       0x00000000       0x3d build/debug/production/src/hid.o
 .comment       0x00000000       0x3d build/debug/production/src/read.o
 .comment       0x00000000       0x3d build/debug/production/src/isr.o
 .comment       0x00000000       0x3d build/debug/production/src/auto.o
 .comment       0x00000000       0x3d build/debug/production/src/fdxb.o
 .comment       0x00000000       0x3d build/debug/production/src/hitag.o
 .comment       0x00000000       0x3d build/debug/production/src/uid.o
 .comment       0x00000000       0x3d build/debug/production/src/login.o
 .comment       0x00000000       0x3d build/debug/production/src/write.o
 .comment       0x00000000       0x3d build/debug/production/src/auth.o
 .comment       0x00000000       0x3d build/debug/production/src/q5.o
 .comment       0x00000000       0x3d build/debug/production/src/vtag.o
 .comment       0x00000000       0x3d build/debug/production/src/config.o
 .comment       0x00000000       0x3d build/debug/production/src/select.o
 .comment       0x00000000       0x3d build/debug/production/src/sdcard.o
 .comment       0x00000000       0x3d build/debug/production/src/debug_pins.o
 .comment       0x00000000       0x3d build/debug/production/src/awid.o
 .comment       0x00000000       0x3d build/debug/production/src/analogue.o
 .comment       0x0000003c       0x3c /opt/microchip/xc32/v1.21/pic32mx/lib/libmchp_peripheral_32MX795F512L.a(soft_reset_lib.o)
                                 0x3d (size before relaxing)
 .comment       0x00000000       0x3d /opt/microchip/xc32/v1.21/pic32mx/lib/libmchp_peripheral_32MX795F512L.a(pcache.o)
 .comment       0x00000000       0x3d /opt/microchip/xc32/v1.21/pic32mx/lib/libmchp_peripheral_32MX795F512L.a(int_configure_system_lib.o)
 .comment       0x00000000       0x3d /opt/microchip/xc32/v1.21/pic32mx/lib/libmchp_peripheral_32MX795F512L.a(int_enable_interrupts_lib.o)
 .comment       0x00000000       0x3d /opt/microchip/xc32/v1.21/pic32mx/lib/libmchp_peripheral_32MX795F512L.a(int_disable_interrupts_lib.o)
 .comment       0x00000000       0x3d /opt/microchip/xc32/v1.21/pic32mx/lib/libmchp_peripheral_32MX795F512L.a(int_restore_interrupts_lib.o)
 .comment       0x00000000       0x3d /opt/microchip/xc32/v1.21/pic32mx/lib/libmchp_peripheral_32MX795F512L.a(int_enable_mv_int_lib.o)
 .comment       0x00000000       0x3d /opt/microchip/xc32/v1.21/pic32mx/lib/libmchp_peripheral_32MX795F512L.a(int_tbl_lib.o)
 .comment       0x00000000       0x3d /opt/microchip/xc32/v1.21/pic32mx/lib/libmchp_peripheral_32MX795F512L.a(spi_chn_close_lib.o)
 .comment       0x00000000       0x3d /opt/microchip/xc32/v1.21/pic32mx/lib/libmchp_peripheral_32MX795F512L.a(spi_chn_open_lib.o)
 .comment       0x00000000       0x3d /opt/microchip/xc32/v1.21/pic32mx/lib/libmchp_peripheral_32MX795F512L.a(spi_io_tbl_libp.o)
 .comment       0x00000000       0x3d /opt/microchip/xc32/v1.21/pic32mx/lib/libmchp_peripheral_32MX795F512L.a(spi_map_tbl_libp.o)
 .comment       0x00000000       0x3d /opt/microchip/xc32/v1.21/pic32mx/lib/libmchp_peripheral_32MX795F512L.a(spi_getc_spi1_lib_legacy.o)
 .comment       0x00000000       0x3d /opt/microchip/xc32/v1.21/pic32mx/lib/libmchp_peripheral_32MX795F512L.a(spi_open_spi1_lib_legacy.o)
 .comment       0x00000000       0x3d /opt/microchip/xc32/v1.21/pic32mx/lib/libmchp_peripheral_32MX795F512L.a(spi_brg_tbl_lib_legacy.o)
 .comment       0x00000000       0x3d /opt/microchip/xc32/v1.21/pic32mx/lib/libmchp_peripheral_32MX795F512L.a(nvm_erase_page_lib.o)
 .comment       0x00000000       0x3d /opt/microchip/xc32/v1.21/pic32mx/lib/libmchp_peripheral_32MX795F512L.a(nvm_operation_lib.o)
 .comment       0x00000000       0x3d /opt/microchip/xc32/v1.21/pic32mx/lib/libmchp_peripheral_32MX795F512L.a(nvm_program_lib.o)
 .comment       0x00000000       0x3d /opt/microchip/xc32/v1.21/pic32mx/lib/libmchp_peripheral_32MX795F512L.a(nvm_write_row_lib.o)
 .comment       0x00000000       0x3d /opt/microchip/xc32/v1.21/pic32mx/lib/libmchp_peripheral_32MX795F512L.a(port_reset_pins_lib.o)
 .comment       0x00000000       0x3d /opt/microchip/xc32/v1.21/pic32mx/lib/libmchp_peripheral_32MX795F512L.a(port_set_pins_digital_in_lib.o)
 .comment       0x00000000       0x3d /opt/microchip/xc32/v1.21/pic32mx/lib/libmchp_peripheral_32MX795F512L.a(port_set_pins_digital_out_lib.o)
 .comment       0x00000000       0x3d /opt/microchip/xc32/v1.21/pic32mx/lib/libmchp_peripheral_32MX795F512L.a(_ports_tbl_libp.o)
 .comment       0x00000000       0x3d /opt/microchip/xc32/v1.21/bin/../lib/gcc/pic32mx/4.5.2/libgcc.a(_udivdi3.o)
 .comment       0x00000078       0x18 /opt/microchip/xc32/v1.21/bin/../lib/gcc/pic32mx/4.5.2/../../../../pic32mx/lib/libpic32.a(memcmp.o)
                                 0x19 (size before relaxing)
 .comment       0x00000090       0x18 /opt/microchip/xc32/v1.21/bin/../lib/gcc/pic32mx/4.5.2/../../../../pic32mx/lib/libpic32.a(memset.o)
                                 0x19 (size before relaxing)
 .comment       0x000000a8       0x55 /opt/microchip/xc32/v1.21/bin/../lib/gcc/pic32mx/4.5.2/../../../../pic32mx/lib/libpic32.a(strcmp.o)
                                 0x56 (size before relaxing)
 .comment       0x000000fd       0x19 /opt/microchip/xc32/v1.21/bin/../lib/gcc/pic32mx/4.5.2/../../../../pic32mx/lib/libpic32.a(strcpy.o)
                                 0x1a (size before relaxing)
 .comment       0x00000116       0x19 /opt/microchip/xc32/v1.21/bin/../lib/gcc/pic32mx/4.5.2/../../../../pic32mx/lib/libpic32.a(strlen.o)
                                 0x1a (size before relaxing)
 .comment       0x00000000       0x3d /opt/microchip/xc32/v1.21/bin/../lib/gcc/pic32mx/4.5.2/../../../../pic32mx/lib/libpic32.a(default-bootstrap-exception-handler.o)
 .comment       0x00000000       0x3d /opt/microchip/xc32/v1.21/bin/../lib/gcc/pic32mx/4.5.2/../../../../pic32mx/lib/libpic32.a(default-on-reset.o)
 .comment       0x00000000       0x3d /opt/microchip/xc32/v1.21/bin/../lib/gcc/pic32mx/4.5.2/../../../../pic32mx/lib/libpic32.a(default-on-bootstrap.o)
 .comment       0x00000000       0x3d /opt/microchip/xc32/v1.21/bin/../lib/gcc/pic32mx/4.5.2/../../../../pic32mx/lib/libpic32.a(default-general-exception-handler.o)
 .comment       0x00000000       0x3d /opt/microchip/xc32/v1.21/bin/../lib/gcc/pic32mx/4.5.2/../../../../pic32mx/lib/libpic32.a(defaultinterrupt.o)
 .comment       0x0000012f       0x4f /opt/microchip/xc32/v1.21/bin/../lib/gcc/pic32mx/4.5.2/../../../../pic32mx/lib/libc.a(ctypef.o)
                                 0x8c (size before relaxing)
 .comment       0x00000000       0x3d /opt/microchip/xc32/v1.21/bin/../lib/gcc/pic32mx/4.5.2/../../../../pic32mx/lib/libc.a(rand.o)
 .comment       0x00000000       0x3d /opt/microchip/xc32/v1.21/bin/../lib/gcc/pic32mx/4.5.2/../../../../pic32mx/lib/libc.a(strncmp.o)
 .comment       0x00000000       0x3d /opt/microchip/xc32/v1.21/bin/../lib/gcc/pic32mx/4.5.2/../../../../pic32mx/lib/libc.a(strncpy.o)
 .comment       0x00000000       0x3d /opt/microchip/xc32/v1.21/bin/../lib/gcc/pic32mx/4.5.2/../../../../pic32mx/lib/libc.a(sprintf_cdnopuxX.eo)
 .comment       0x00000000       0x3d /opt/microchip/xc32/v1.21/bin/../lib/gcc/pic32mx/4.5.2/../../../../pic32mx/lib/libc.a(sprintf.o)
 .comment       0x00000000       0x3d /opt/microchip/xc32/v1.21/bin/../lib/gcc/pic32mx/4.5.2/../../../../pic32mx/lib/libc.a(sscanf_cdfFnopsuxX.eo)
 .comment       0x0000017e       0x4e /opt/microchip/xc32/v1.21/bin/../lib/gcc/pic32mx/4.5.2/../../../../pic32mx/lib/libc.a(ctype.o)
                                 0x8b (size before relaxing)
 .comment       0x00000000       0x3d /opt/microchip/xc32/v1.21/bin/../lib/gcc/pic32mx/4.5.2/../../../../pic32mx/lib/libc.a(doprnt_cdnopuxX.eo)
 .comment       0x00000000       0x3d /opt/microchip/xc32/v1.21/bin/../lib/gcc/pic32mx/4.5.2/../../../../pic32mx/lib/libc.a(doprnt.o)
 .comment       0x00000000       0x3d /opt/microchip/xc32/v1.21/bin/../lib/gcc/pic32mx/4.5.2/../../../../pic32mx/lib/libc.a(doscan_cdfFnopsuxX.eo)
 .comment       0x00000000       0x3d /opt/microchip/xc32/v1.21/bin/../lib/gcc/pic32mx/4.5.2/../../../../pic32mx/lib/libc.a(doscan_cdnopuxX.eo)
 .comment       0x00000000       0x3d /opt/microchip/xc32/v1.21/bin/../lib/gcc/pic32mx/4.5.2/../../../../pic32mx/lib/libc.a(fgetc.o)
 .comment       0x00000000       0x3d /opt/microchip/xc32/v1.21/bin/../lib/gcc/pic32mx/4.5.2/../../../../pic32mx/lib/libc.a(_fputc_simple.o)
 .comment       0x00000000       0x3d /opt/microchip/xc32/v1.21/bin/../lib/gcc/pic32mx/4.5.2/../../../../pic32mx/lib/libc.a(atoi.o)
 .comment       0x00000000       0x3d /opt/microchip/xc32/v1.21/bin/../lib/gcc/pic32mx/4.5.2/../../../../pic32mx/lib/libc.a(powersf.o)
 .comment       0x00000000       0x3d /opt/microchip/xc32/v1.21/bin/../lib/gcc/pic32mx/4.5.2/../../../../pic32mx/lib/libc.a(strtod.o)
 .comment       0x00000000       0x3d /opt/microchip/xc32/v1.21/bin/../lib/gcc/pic32mx/4.5.2/../../../../pic32mx/lib/libc.a(strtof.o)
 .comment       0x00000000       0x3d /opt/microchip/xc32/v1.21/bin/../lib/gcc/pic32mx/4.5.2/../../../../pic32mx/lib/libc.a(ungetc.o)
 .comment       0x00000000       0x3d /opt/microchip/xc32/v1.21/bin/../lib/gcc/pic32mx/4.5.2/../../../../pic32mx/lib/libc.a(_iob.o)
 .comment       0x00000000       0x3d /opt/microchip/xc32/v1.21/bin/../lib/gcc/pic32mx/4.5.2/../../../../pic32mx/lib/libc.a(filbuf.o)
 .comment       0x00000000       0x3d /opt/microchip/xc32/v1.21/bin/../lib/gcc/pic32mx/4.5.2/../../../../pic32mx/lib/libc.a(_flsbuf_simple.o)
 .comment       0x00000000       0x3d /opt/microchip/xc32/v1.21/bin/../lib/gcc/pic32mx/4.5.2/../../../../pic32mx/lib/libc.a(fflush.o)
 .comment       0x00000000       0x3d /opt/microchip/xc32/v1.21/bin/../lib/gcc/pic32mx/4.5.2/../../../../pic32mx/lib/libpic32.a(read.o)
 .comment       0x00000000       0x3d /opt/microchip/xc32/v1.21/bin/../lib/gcc/pic32mx/4.5.2/../../../../pic32mx/lib/libpic32.a(write.o)
 .comment       0x00000000       0x3d /opt/microchip/xc32/v1.21/bin/../lib/gcc/pic32mx/4.5.2/../../../../pic32mx/lib/libpic32.a(xc32_uart.o)
 .comment       0x00000000       0x3d /opt/microchip/xc32/v1.21/bin/../lib/gcc/pic32mx/4.5.2/../../../../pic32mx/lib/libpic32.a(_mon_putc.o)
 .comment       0x000001cc       0x9e /opt/microchip/xc32/v1.21/bin/../lib/gcc/pic32mx/4.5.2/../../../../pic32mx/lib/libe.a(_floatdisf.o)
                                 0xdb (size before relaxing)
 .comment       0x0000026a       0x4f /opt/microchip/xc32/v1.21/bin/../lib/gcc/pic32mx/4.5.2/../../../../pic32mx/lib/libe.a(_strtod.o)
                                 0xda (size before relaxing)
 .comment       0x000002b9       0x4f /opt/microchip/xc32/v1.21/bin/../lib/gcc/pic32mx/4.5.2/../../../../pic32mx/lib/libe.a(_strtof.o)
                                 0xda (size before relaxing)
 .comment       0x00000308       0x50 /opt/microchip/xc32/v1.21/bin/../lib/gcc/pic32mx/4.5.2/../../../../pic32mx/lib/libe.a(_ldexp.o)
                                 0xdb (size before relaxing)
 .comment       0x00000358       0x50 /opt/microchip/xc32/v1.21/bin/../lib/gcc/pic32mx/4.5.2/../../../../pic32mx/lib/libe.a(_ldexpf.o)
                                 0xdb (size before relaxing)
 .comment       0x00000000       0x3d /opt/microchip/xc32/v1.21/bin/../lib/gcc/pic32mx/4.5.2/libgcc.a(_lshrdi3.o)
 .comment       0x00000000       0x3d /opt/microchip/xc32/v1.21/bin/../lib/gcc/pic32mx/4.5.2/libgcc.a(_ashldi3.o)
 .comment       0x00000000       0x3d /opt/microchip/xc32/v1.21/bin/../lib/gcc/pic32mx/4.5.2/libgcc.a(_floatundisf.o)
 .comment       0x00000000       0x3d /opt/microchip/xc32/v1.21/bin/../lib/gcc/pic32mx/4.5.2/libgcc.a(_umoddi3.o)
 .comment       0x00000000       0x3d /opt/microchip/xc32/v1.21/bin/../lib/gcc/pic32mx/4.5.2/libgcc.a(floatunsisf.o)
 .comment       0x00000000       0x3d /opt/microchip/xc32/v1.21/bin/../lib/gcc/pic32mx/4.5.2/../../../../pic32mx/lib/libpic32.a(errno.o)

.debug
 *(.debug)

.line
 *(.line)

.debug_srcinfo
 *(.debug_srcinfo)

.debug_sfnames
 *(.debug_sfnames)

.debug_aranges  0x00000000      0xdf0
 *(.debug_aranges)
 .debug_aranges
                0x00000000       0x20 build/debug/production/_ext/71113213/SD-SPI.o
 .debug_aranges
                0x00000020       0x20 build/debug/production/_ext/71113213/FSIO.o
 .debug_aranges
                0x00000040       0x20 build/debug/production/_ext/2096855388/SClib.o
 .debug_aranges
                0x00000060       0x20 build/debug/production/_ext/2096855388/SCpic32.o
 .debug_aranges
                0x00000080       0x20 build/debug/production/_ext/870548313/usb_device.o
 .debug_aranges
                0x000000a0       0x20 build/debug/production/_ext/1379786196/usb_function_cdc.o
 .debug_aranges
                0x000000c0       0x20 build/debug/production/src/indala.o
 .debug_aranges
                0x000000e0       0x20 build/debug/production/src/main.o
 .debug_aranges
                0x00000100       0x20 build/debug/production/src/psk.o
 .debug_aranges
                0x00000120       0x20 build/debug/production/src/util.o
 .debug_aranges
                0x00000140       0x20 build/debug/production/src/emulate.o
 .debug_aranges
                0x00000160       0x20 build/debug/production/src/ask.o
 .debug_aranges
                0x00000180       0x20 build/debug/production/src/fsk.o
 .debug_aranges
                0x000001a0       0x20 build/debug/production/src/clock.o
 .debug_aranges
                0x000001c0       0x20 build/debug/production/src/rwd.o
 .debug_aranges
                0x000001e0       0x20 build/debug/production/src/detect.o
 .debug_aranges
                0x00000200       0x20 build/debug/production/src/hitagcrypto.o
 .debug_aranges
                0x00000220       0x20 build/debug/production/src/wiegand.o
 .debug_aranges
                0x00000240       0x20 build/debug/production/src/comms.o
 .debug_aranges
                0x00000260       0x20 build/debug/production/src/nvm.o
 .debug_aranges
                0x00000280       0x20 build/debug/production/src/mcp414x.o
 .debug_aranges
                0x000002a0       0x20 build/debug/production/src/spi.o
 .debug_aranges
                0x000002c0       0x20 build/debug/production/src/uart3.o
 .debug_aranges
                0x000002e0       0x20 build/debug/production/src/tags.o
 .debug_aranges
                0x00000300       0x20 build/debug/production/src/unique.o
 .debug_aranges
                0x00000320       0x20 build/debug/production/src/led.o
 .debug_aranges
                0x00000340       0x20 build/debug/production/src/em.o
 .debug_aranges
                0x00000360       0x20 build/debug/production/src/hid.o
 .debug_aranges
                0x00000380       0x20 build/debug/production/src/read.o
 .debug_aranges
                0x000003a0       0x20 build/debug/production/src/isr.o
 .debug_aranges
                0x000003c0       0x20 build/debug/production/src/auto.o
 .debug_aranges
                0x000003e0       0x20 build/debug/production/src/fdxb.o
 .debug_aranges
                0x00000400       0x20 build/debug/production/src/hitag.o
 .debug_aranges
                0x00000420       0x20 build/debug/production/src/uid.o
 .debug_aranges
                0x00000440       0x20 build/debug/production/src/login.o
 .debug_aranges
                0x00000460       0x20 build/debug/production/src/write.o
 .debug_aranges
                0x00000480       0x20 build/debug/production/src/auth.o
 .debug_aranges
                0x000004a0       0x20 build/debug/production/src/q5.o
 .debug_aranges
                0x000004c0       0x20 build/debug/production/src/vtag.o
 .debug_aranges
                0x000004e0       0x20 build/debug/production/src/config.o
 .debug_aranges
                0x00000500       0x20 build/debug/production/src/select.o
 .debug_aranges
                0x00000520       0x20 build/debug/production/src/sdcard.o
 .debug_aranges
                0x00000540       0x20 build/debug/production/src/debug_pins.o
 .debug_aranges
                0x00000560       0x20 build/debug/production/src/awid.o
 .debug_aranges
                0x00000580       0x20 build/debug/production/src/analogue.o
 .debug_aranges
                0x000005a0       0x20 /opt/microchip/xc32/v1.21/pic32mx/lib/libmchp_peripheral_32MX795F512L.a(soft_reset_lib.o)
 .debug_aranges
                0x000005c0       0x28 /opt/microchip/xc32/v1.21/pic32mx/lib/libmchp_peripheral_32MX795F512L.a(pcache.o)
 .debug_aranges
                0x000005e8       0x20 /opt/microchip/xc32/v1.21/pic32mx/lib/libmchp_peripheral_32MX795F512L.a(int_configure_system_lib.o)
 .debug_aranges
                0x00000608       0x20 /opt/microchip/xc32/v1.21/pic32mx/lib/libmchp_peripheral_32MX795F512L.a(int_enable_interrupts_lib.o)
 .debug_aranges
                0x00000628       0x20 /opt/microchip/xc32/v1.21/pic32mx/lib/libmchp_peripheral_32MX795F512L.a(int_disable_interrupts_lib.o)
 .debug_aranges
                0x00000648       0x20 /opt/microchip/xc32/v1.21/pic32mx/lib/libmchp_peripheral_32MX795F512L.a(int_restore_interrupts_lib.o)
 .debug_aranges
                0x00000668       0x20 /opt/microchip/xc32/v1.21/pic32mx/lib/libmchp_peripheral_32MX795F512L.a(int_enable_mv_int_lib.o)
 .debug_aranges
                0x00000688       0x60 /opt/microchip/xc32/v1.21/pic32mx/lib/libmchp_peripheral_32MX795F512L.a(int_tbl_lib.o)
 .debug_aranges
                0x000006e8       0x20 /opt/microchip/xc32/v1.21/pic32mx/lib/libmchp_peripheral_32MX795F512L.a(spi_chn_close_lib.o)
 .debug_aranges
                0x00000708       0x20 /opt/microchip/xc32/v1.21/pic32mx/lib/libmchp_peripheral_32MX795F512L.a(spi_chn_open_lib.o)
 .debug_aranges
                0x00000728       0x20 /opt/microchip/xc32/v1.21/pic32mx/lib/libmchp_peripheral_32MX795F512L.a(spi_getc_spi1_lib_legacy.o)
 .debug_aranges
                0x00000748       0x20 /opt/microchip/xc32/v1.21/pic32mx/lib/libmchp_peripheral_32MX795F512L.a(spi_open_spi1_lib_legacy.o)
 .debug_aranges
                0x00000768       0x20 /opt/microchip/xc32/v1.21/pic32mx/lib/libmchp_peripheral_32MX795F512L.a(nvm_erase_page_lib.o)
 .debug_aranges
                0x00000788       0x20 /opt/microchip/xc32/v1.21/pic32mx/lib/libmchp_peripheral_32MX795F512L.a(nvm_operation_lib.o)
 .debug_aranges
                0x000007a8       0x20 /opt/microchip/xc32/v1.21/pic32mx/lib/libmchp_peripheral_32MX795F512L.a(nvm_program_lib.o)
 .debug_aranges
                0x000007c8       0x20 /opt/microchip/xc32/v1.21/pic32mx/lib/libmchp_peripheral_32MX795F512L.a(nvm_write_row_lib.o)
 .debug_aranges
                0x000007e8       0x20 /opt/microchip/xc32/v1.21/pic32mx/lib/libmchp_peripheral_32MX795F512L.a(port_reset_pins_lib.o)
 .debug_aranges
                0x00000808       0x20 /opt/microchip/xc32/v1.21/pic32mx/lib/libmchp_peripheral_32MX795F512L.a(port_set_pins_digital_in_lib.o)
 .debug_aranges
                0x00000828       0x20 /opt/microchip/xc32/v1.21/pic32mx/lib/libmchp_peripheral_32MX795F512L.a(port_set_pins_digital_out_lib.o)
 .debug_aranges
                0x00000848       0x20 /opt/microchip/xc32/v1.21/bin/../lib/gcc/pic32mx/4.5.2/libgcc.a(_udivdi3.o)
 .debug_aranges
                0x00000868       0x20 /opt/microchip/xc32/v1.21/bin/../lib/gcc/pic32mx/4.5.2/../../../../pic32mx/lib/libpic32.a(default-bootstrap-exception-handler.o)
 .debug_aranges
                0x00000888       0x20 /opt/microchip/xc32/v1.21/bin/../lib/gcc/pic32mx/4.5.2/../../../../pic32mx/lib/libpic32.a(default-on-reset.o)
 .debug_aranges
                0x000008a8       0x20 /opt/microchip/xc32/v1.21/bin/../lib/gcc/pic32mx/4.5.2/../../../../pic32mx/lib/libpic32.a(default-on-bootstrap.o)
 .debug_aranges
                0x000008c8       0x20 /opt/microchip/xc32/v1.21/bin/../lib/gcc/pic32mx/4.5.2/../../../../pic32mx/lib/libpic32.a(default-general-exception-handler.o)
 .debug_aranges
                0x000008e8       0x20 /opt/microchip/xc32/v1.21/bin/../lib/gcc/pic32mx/4.5.2/../../../../pic32mx/lib/libpic32.a(defaultinterrupt.o)
 .debug_aranges
                0x00000908       0xa0 /opt/microchip/xc32/v1.21/bin/../lib/gcc/pic32mx/4.5.2/../../../../pic32mx/lib/libc.a(ctypef.o)
 .debug_aranges
                0x000009a8       0x28 /opt/microchip/xc32/v1.21/bin/../lib/gcc/pic32mx/4.5.2/../../../../pic32mx/lib/libc.a(rand.o)
 .debug_aranges
                0x000009d0       0x20 /opt/microchip/xc32/v1.21/bin/../lib/gcc/pic32mx/4.5.2/../../../../pic32mx/lib/libc.a(strncmp.o)
 .debug_aranges
                0x000009f0       0x20 /opt/microchip/xc32/v1.21/bin/../lib/gcc/pic32mx/4.5.2/../../../../pic32mx/lib/libc.a(strncpy.o)
 .debug_aranges
                0x00000a10       0x20 /opt/microchip/xc32/v1.21/bin/../lib/gcc/pic32mx/4.5.2/../../../../pic32mx/lib/libc.a(sprintf_cdnopuxX.eo)
 .debug_aranges
                0x00000a30       0x20 /opt/microchip/xc32/v1.21/bin/../lib/gcc/pic32mx/4.5.2/../../../../pic32mx/lib/libc.a(sprintf.o)
 .debug_aranges
                0x00000a50       0x20 /opt/microchip/xc32/v1.21/bin/../lib/gcc/pic32mx/4.5.2/../../../../pic32mx/lib/libc.a(sscanf_cdfFnopsuxX.eo)
 .debug_aranges
                0x00000a70       0x20 /opt/microchip/xc32/v1.21/bin/../lib/gcc/pic32mx/4.5.2/../../../../pic32mx/lib/libc.a(doprnt_cdnopuxX.eo)
 .debug_aranges
                0x00000a90       0x30 /opt/microchip/xc32/v1.21/bin/../lib/gcc/pic32mx/4.5.2/../../../../pic32mx/lib/libc.a(doprnt.o)
 .debug_aranges
                0x00000ac0       0x30 /opt/microchip/xc32/v1.21/bin/../lib/gcc/pic32mx/4.5.2/../../../../pic32mx/lib/libc.a(doscan_cdfFnopsuxX.eo)
 .debug_aranges
                0x00000af0       0x30 /opt/microchip/xc32/v1.21/bin/../lib/gcc/pic32mx/4.5.2/../../../../pic32mx/lib/libc.a(doscan_cdnopuxX.eo)
 .debug_aranges
                0x00000b20       0x20 /opt/microchip/xc32/v1.21/bin/../lib/gcc/pic32mx/4.5.2/../../../../pic32mx/lib/libc.a(fgetc.o)
 .debug_aranges
                0x00000b40       0x20 /opt/microchip/xc32/v1.21/bin/../lib/gcc/pic32mx/4.5.2/../../../../pic32mx/lib/libc.a(_fputc_simple.o)
 .debug_aranges
                0x00000b60       0x20 /opt/microchip/xc32/v1.21/bin/../lib/gcc/pic32mx/4.5.2/../../../../pic32mx/lib/libc.a(atoi.o)
 .debug_aranges
                0x00000b80       0x28 /opt/microchip/xc32/v1.21/bin/../lib/gcc/pic32mx/4.5.2/../../../../pic32mx/lib/libc.a(strtod.o)
 .debug_aranges
                0x00000ba8       0x28 /opt/microchip/xc32/v1.21/bin/../lib/gcc/pic32mx/4.5.2/../../../../pic32mx/lib/libc.a(strtof.o)
 .debug_aranges
                0x00000bd0       0x20 /opt/microchip/xc32/v1.21/bin/../lib/gcc/pic32mx/4.5.2/../../../../pic32mx/lib/libc.a(ungetc.o)
 .debug_aranges
                0x00000bf0       0x20 /opt/microchip/xc32/v1.21/bin/../lib/gcc/pic32mx/4.5.2/../../../../pic32mx/lib/libc.a(filbuf.o)
 .debug_aranges
                0x00000c10       0x20 /opt/microchip/xc32/v1.21/bin/../lib/gcc/pic32mx/4.5.2/../../../../pic32mx/lib/libc.a(_flsbuf_simple.o)
 .debug_aranges
                0x00000c30       0x20 /opt/microchip/xc32/v1.21/bin/../lib/gcc/pic32mx/4.5.2/../../../../pic32mx/lib/libc.a(fflush.o)
 .debug_aranges
                0x00000c50       0x20 /opt/microchip/xc32/v1.21/bin/../lib/gcc/pic32mx/4.5.2/../../../../pic32mx/lib/libpic32.a(read.o)
 .debug_aranges
                0x00000c70       0x20 /opt/microchip/xc32/v1.21/bin/../lib/gcc/pic32mx/4.5.2/../../../../pic32mx/lib/libpic32.a(write.o)
 .debug_aranges
                0x00000c90       0x20 /opt/microchip/xc32/v1.21/bin/../lib/gcc/pic32mx/4.5.2/../../../../pic32mx/lib/libpic32.a(_mon_putc.o)
 .debug_aranges
                0x00000cb0       0x20 /opt/microchip/xc32/v1.21/bin/../lib/gcc/pic32mx/4.5.2/../../../../pic32mx/lib/libe.a(_floatdisf.o)
 .debug_aranges
                0x00000cd0       0x20 /opt/microchip/xc32/v1.21/bin/../lib/gcc/pic32mx/4.5.2/../../../../pic32mx/lib/libe.a(_strtod.o)
 .debug_aranges
                0x00000cf0       0x20 /opt/microchip/xc32/v1.21/bin/../lib/gcc/pic32mx/4.5.2/../../../../pic32mx/lib/libe.a(_strtof.o)
 .debug_aranges
                0x00000d10       0x20 /opt/microchip/xc32/v1.21/bin/../lib/gcc/pic32mx/4.5.2/../../../../pic32mx/lib/libe.a(_ldexp.o)
 .debug_aranges
                0x00000d30       0x20 /opt/microchip/xc32/v1.21/bin/../lib/gcc/pic32mx/4.5.2/../../../../pic32mx/lib/libe.a(_ldexpf.o)
 .debug_aranges
                0x00000d50       0x20 /opt/microchip/xc32/v1.21/bin/../lib/gcc/pic32mx/4.5.2/libgcc.a(_lshrdi3.o)
 .debug_aranges
                0x00000d70       0x20 /opt/microchip/xc32/v1.21/bin/../lib/gcc/pic32mx/4.5.2/libgcc.a(_ashldi3.o)
 .debug_aranges
                0x00000d90       0x20 /opt/microchip/xc32/v1.21/bin/../lib/gcc/pic32mx/4.5.2/libgcc.a(_floatundisf.o)
 .debug_aranges
                0x00000db0       0x20 /opt/microchip/xc32/v1.21/bin/../lib/gcc/pic32mx/4.5.2/libgcc.a(_umoddi3.o)
 .debug_aranges
                0x00000dd0       0x20 /opt/microchip/xc32/v1.21/bin/../lib/gcc/pic32mx/4.5.2/libgcc.a(floatunsisf.o)

.debug_pubnames
                0x00000000     0x365a
 *(.debug_pubnames)
 .debug_pubnames
                0x00000000      0x1fc build/debug/production/_ext/71113213/SD-SPI.o
 .debug_pubnames
                0x000001fc      0x730 build/debug/production/_ext/71113213/FSIO.o
 .debug_pubnames
                0x0000092c      0x201 build/debug/production/_ext/2096855388/SClib.o
 .debug_pubnames
                0x00000b2d      0x113 build/debug/production/_ext/2096855388/SCpic32.o
 .debug_pubnames
                0x00000c40      0x33a build/debug/production/_ext/870548313/usb_device.o
 .debug_pubnames
                0x00000f7a      0x1b2 build/debug/production/_ext/1379786196/usb_function_cdc.o
 .debug_pubnames
                0x0000112c       0x82 build/debug/production/src/indala.o
 .debug_pubnames
                0x000011ae      0x3e9 build/debug/production/src/main.o
 .debug_pubnames
                0x00001597       0xa5 build/debug/production/src/psk.o
 .debug_pubnames
                0x0000163c       0x73 build/debug/production/src/usb_descriptors.o
 .debug_pubnames
                0x000016af      0x45c build/debug/production/src/util.o
 .debug_pubnames
                0x00001b0b       0x22 build/debug/production/src/emulate.o
 .debug_pubnames
                0x00001b2d       0x9e build/debug/production/src/ask.o
 .debug_pubnames
                0x00001bcb       0xb8 build/debug/production/src/fsk.o
 .debug_pubnames
                0x00001c83       0x74 build/debug/production/src/clock.o
 .debug_pubnames
                0x00001cf7       0x3c build/debug/production/src/rwd.o
 .debug_pubnames
                0x00001d33       0x2c build/debug/production/src/detect.o
 .debug_pubnames
                0x00001d5f       0x79 build/debug/production/src/hitagcrypto.o
 .debug_pubnames
                0x00001dd8       0xf7 build/debug/production/src/wiegand.o
 .debug_pubnames
                0x00001ecf       0xe5 build/debug/production/src/comms.o
 .debug_pubnames
                0x00001fb4       0x65 build/debug/production/src/nvm.o
 .debug_pubnames
                0x00002019       0xab build/debug/production/src/mcp414x.o
 .debug_pubnames
                0x000020c4       0x71 build/debug/production/src/spi.o
 .debug_pubnames
                0x00002135       0xa2 build/debug/production/src/uart3.o
 .debug_pubnames
                0x000021d7       0xb7 build/debug/production/src/tags.o
 .debug_pubnames
                0x0000228e       0x7d build/debug/production/src/unique.o
 .debug_pubnames
                0x0000230b       0x50 build/debug/production/src/led.o
 .debug_pubnames
                0x0000235b       0x93 build/debug/production/src/em.o
 .debug_pubnames
                0x000023ee       0x63 build/debug/production/src/hid.o
 .debug_pubnames
                0x00002451       0x1f build/debug/production/src/read.o
 .debug_pubnames
                0x00002470       0xb1 build/debug/production/src/isr.o
 .debug_pubnames
                0x00002521       0x2b build/debug/production/src/auto.o
 .debug_pubnames
                0x0000254c       0x73 build/debug/production/src/fdxb.o
 .debug_pubnames
                0x000025bf      0x2c8 build/debug/production/src/hitag.o
 .debug_pubnames
                0x00002887       0x50 build/debug/production/src/uid.o
 .debug_pubnames
                0x000028d7       0x20 build/debug/production/src/login.o
 .debug_pubnames
                0x000028f7       0x20 build/debug/production/src/write.o
 .debug_pubnames
                0x00002917       0x1f build/debug/production/src/auth.o
 .debug_pubnames
                0x00002936      0x116 build/debug/production/src/q5.o
 .debug_pubnames
                0x00002a4c       0xcc build/debug/production/src/vtag.o
 .debug_pubnames
                0x00002b18       0x51 build/debug/production/src/config.o
 .debug_pubnames
                0x00002b69       0x21 build/debug/production/src/select.o
 .debug_pubnames
                0x00002b8a       0x22 build/debug/production/src/sdcard.o
 .debug_pubnames
                0x00002bac       0x69 build/debug/production/src/debug_pins.o
 .debug_pubnames
                0x00002c15       0x67 build/debug/production/src/awid.o
 .debug_pubnames
                0x00002c7c       0x5f build/debug/production/src/analogue.o
 .debug_pubnames
                0x00002cdb       0x20 /opt/microchip/xc32/v1.21/pic32mx/lib/libmchp_peripheral_32MX795F512L.a(soft_reset_lib.o)
 .debug_pubnames
                0x00002cfb       0x3b /opt/microchip/xc32/v1.21/pic32mx/lib/libmchp_peripheral_32MX795F512L.a(pcache.o)
 .debug_pubnames
                0x00002d36       0x29 /opt/microchip/xc32/v1.21/pic32mx/lib/libmchp_peripheral_32MX795F512L.a(int_configure_system_lib.o)
 .debug_pubnames
                0x00002d5f       0x2a /opt/microchip/xc32/v1.21/pic32mx/lib/libmchp_peripheral_32MX795F512L.a(int_enable_interrupts_lib.o)
 .debug_pubnames
                0x00002d89       0x2b /opt/microchip/xc32/v1.21/pic32mx/lib/libmchp_peripheral_32MX795F512L.a(int_disable_interrupts_lib.o)
 .debug_pubnames
                0x00002db4       0x2b /opt/microchip/xc32/v1.21/pic32mx/lib/libmchp_peripheral_32MX795F512L.a(int_restore_interrupts_lib.o)
 .debug_pubnames
                0x00002ddf       0x36 /opt/microchip/xc32/v1.21/pic32mx/lib/libmchp_peripheral_32MX795F512L.a(int_enable_mv_int_lib.o)
 .debug_pubnames
                0x00002e15       0xca /opt/microchip/xc32/v1.21/pic32mx/lib/libmchp_peripheral_32MX795F512L.a(int_tbl_lib.o)
 .debug_pubnames
                0x00002edf       0x22 /opt/microchip/xc32/v1.21/pic32mx/lib/libmchp_peripheral_32MX795F512L.a(spi_chn_close_lib.o)
 .debug_pubnames
                0x00002f01       0x21 /opt/microchip/xc32/v1.21/pic32mx/lib/libmchp_peripheral_32MX795F512L.a(spi_chn_open_lib.o)
 .debug_pubnames
                0x00002f22       0x1f /opt/microchip/xc32/v1.21/pic32mx/lib/libmchp_peripheral_32MX795F512L.a(spi_getc_spi1_lib_legacy.o)
 .debug_pubnames
                0x00002f41       0x1f /opt/microchip/xc32/v1.21/pic32mx/lib/libmchp_peripheral_32MX795F512L.a(spi_open_spi1_lib_legacy.o)
 .debug_pubnames
                0x00002f60       0x23 /opt/microchip/xc32/v1.21/pic32mx/lib/libmchp_peripheral_32MX795F512L.a(nvm_erase_page_lib.o)
 .debug_pubnames
                0x00002f83       0x24 /opt/microchip/xc32/v1.21/pic32mx/lib/libmchp_peripheral_32MX795F512L.a(nvm_operation_lib.o)
 .debug_pubnames
                0x00002fa7       0x21 /opt/microchip/xc32/v1.21/pic32mx/lib/libmchp_peripheral_32MX795F512L.a(nvm_program_lib.o)
 .debug_pubnames
                0x00002fc8       0x22 /opt/microchip/xc32/v1.21/pic32mx/lib/libmchp_peripheral_32MX795F512L.a(nvm_write_row_lib.o)
 .debug_pubnames
                0x00002fea       0x24 /opt/microchip/xc32/v1.21/pic32mx/lib/libmchp_peripheral_32MX795F512L.a(port_reset_pins_lib.o)
 .debug_pubnames
                0x0000300e       0x2b /opt/microchip/xc32/v1.21/pic32mx/lib/libmchp_peripheral_32MX795F512L.a(port_set_pins_digital_in_lib.o)
 .debug_pubnames
                0x00003039       0x2c /opt/microchip/xc32/v1.21/pic32mx/lib/libmchp_peripheral_32MX795F512L.a(port_set_pins_digital_out_lib.o)
 .debug_pubnames
                0x00003065       0x20 /opt/microchip/xc32/v1.21/bin/../lib/gcc/pic32mx/4.5.2/libgcc.a(_udivdi3.o)
 .debug_pubnames
                0x00003085       0x33 /opt/microchip/xc32/v1.21/bin/../lib/gcc/pic32mx/4.5.2/../../../../pic32mx/lib/libpic32.a(default-bootstrap-exception-handler.o)
 .debug_pubnames
                0x000030b8       0x20 /opt/microchip/xc32/v1.21/bin/../lib/gcc/pic32mx/4.5.2/../../../../pic32mx/lib/libpic32.a(default-on-reset.o)
 .debug_pubnames
                0x000030d8       0x24 /opt/microchip/xc32/v1.21/bin/../lib/gcc/pic32mx/4.5.2/../../../../pic32mx/lib/libpic32.a(default-on-bootstrap.o)
 .debug_pubnames
                0x000030fc       0x31 /opt/microchip/xc32/v1.21/bin/../lib/gcc/pic32mx/4.5.2/../../../../pic32mx/lib/libpic32.a(default-general-exception-handler.o)
 .debug_pubnames
                0x0000312d       0x28 /opt/microchip/xc32/v1.21/bin/../lib/gcc/pic32mx/4.5.2/../../../../pic32mx/lib/libpic32.a(defaultinterrupt.o)
 .debug_pubnames
                0x00003155       0xe1 /opt/microchip/xc32/v1.21/bin/../lib/gcc/pic32mx/4.5.2/../../../../pic32mx/lib/libc.a(ctypef.o)
 .debug_pubnames
                0x00003236       0x25 /opt/microchip/xc32/v1.21/bin/../lib/gcc/pic32mx/4.5.2/../../../../pic32mx/lib/libc.a(rand.o)
 .debug_pubnames
                0x0000325b       0x1e /opt/microchip/xc32/v1.21/bin/../lib/gcc/pic32mx/4.5.2/../../../../pic32mx/lib/libc.a(strncmp.o)
 .debug_pubnames
                0x00003279       0x1e /opt/microchip/xc32/v1.21/bin/../lib/gcc/pic32mx/4.5.2/../../../../pic32mx/lib/libc.a(strncpy.o)
 .debug_pubnames
                0x00003297       0x28 /opt/microchip/xc32/v1.21/bin/../lib/gcc/pic32mx/4.5.2/../../../../pic32mx/lib/libc.a(sprintf_cdnopuxX.eo)
 .debug_pubnames
                0x000032bf       0x1e /opt/microchip/xc32/v1.21/bin/../lib/gcc/pic32mx/4.5.2/../../../../pic32mx/lib/libc.a(sprintf.o)
 .debug_pubnames
                0x000032dd       0x2a /opt/microchip/xc32/v1.21/bin/../lib/gcc/pic32mx/4.5.2/../../../../pic32mx/lib/libc.a(sscanf_cdfFnopsuxX.eo)
 .debug_pubnames
                0x00003307       0x29 /opt/microchip/xc32/v1.21/bin/../lib/gcc/pic32mx/4.5.2/../../../../pic32mx/lib/libc.a(doprnt_cdnopuxX.eo)
 .debug_pubnames
                0x00003330       0x1f /opt/microchip/xc32/v1.21/bin/../lib/gcc/pic32mx/4.5.2/../../../../pic32mx/lib/libc.a(doprnt.o)
 .debug_pubnames
                0x0000334f       0x2b /opt/microchip/xc32/v1.21/bin/../lib/gcc/pic32mx/4.5.2/../../../../pic32mx/lib/libc.a(doscan_cdfFnopsuxX.eo)
 .debug_pubnames
                0x0000337a       0x28 /opt/microchip/xc32/v1.21/bin/../lib/gcc/pic32mx/4.5.2/../../../../pic32mx/lib/libc.a(doscan_cdnopuxX.eo)
 .debug_pubnames
                0x000033a2       0x1c /opt/microchip/xc32/v1.21/bin/../lib/gcc/pic32mx/4.5.2/../../../../pic32mx/lib/libc.a(fgetc.o)
 .debug_pubnames
                0x000033be       0x1c /opt/microchip/xc32/v1.21/bin/../lib/gcc/pic32mx/4.5.2/../../../../pic32mx/lib/libc.a(_fputc_simple.o)
 .debug_pubnames
                0x000033da       0x1b /opt/microchip/xc32/v1.21/bin/../lib/gcc/pic32mx/4.5.2/../../../../pic32mx/lib/libc.a(atoi.o)
 .debug_pubnames
                0x000033f5       0x2a /opt/microchip/xc32/v1.21/bin/../lib/gcc/pic32mx/4.5.2/../../../../pic32mx/lib/libc.a(strtod.o)
 .debug_pubnames
                0x0000341f       0x29 /opt/microchip/xc32/v1.21/bin/../lib/gcc/pic32mx/4.5.2/../../../../pic32mx/lib/libc.a(strtof.o)
 .debug_pubnames
                0x00003448       0x1d /opt/microchip/xc32/v1.21/bin/../lib/gcc/pic32mx/4.5.2/../../../../pic32mx/lib/libc.a(ungetc.o)
 .debug_pubnames
                0x00003465       0x1e /opt/microchip/xc32/v1.21/bin/../lib/gcc/pic32mx/4.5.2/../../../../pic32mx/lib/libc.a(filbuf.o)
 .debug_pubnames
                0x00003483       0x1e /opt/microchip/xc32/v1.21/bin/../lib/gcc/pic32mx/4.5.2/../../../../pic32mx/lib/libc.a(_flsbuf_simple.o)
 .debug_pubnames
                0x000034a1       0x1d /opt/microchip/xc32/v1.21/bin/../lib/gcc/pic32mx/4.5.2/../../../../pic32mx/lib/libc.a(fflush.o)
 .debug_pubnames
                0x000034be       0x1b /opt/microchip/xc32/v1.21/bin/../lib/gcc/pic32mx/4.5.2/../../../../pic32mx/lib/libpic32.a(read.o)
 .debug_pubnames
                0x000034d9       0x1c /opt/microchip/xc32/v1.21/bin/../lib/gcc/pic32mx/4.5.2/../../../../pic32mx/lib/libpic32.a(write.o)
 .debug_pubnames
                0x000034f5       0x20 /opt/microchip/xc32/v1.21/bin/../lib/gcc/pic32mx/4.5.2/../../../../pic32mx/lib/libpic32.a(_mon_putc.o)
 .debug_pubnames
                0x00003515       0x22 /opt/microchip/xc32/v1.21/bin/../lib/gcc/pic32mx/4.5.2/../../../../pic32mx/lib/libe.a(_floatdisf.o)
 .debug_pubnames
                0x00003537       0x1f /opt/microchip/xc32/v1.21/bin/../lib/gcc/pic32mx/4.5.2/../../../../pic32mx/lib/libe.a(_strtod.o)
 .debug_pubnames
                0x00003556       0x1f /opt/microchip/xc32/v1.21/bin/../lib/gcc/pic32mx/4.5.2/../../../../pic32mx/lib/libe.a(_strtof.o)
 .debug_pubnames
                0x00003575       0x1e /opt/microchip/xc32/v1.21/bin/../lib/gcc/pic32mx/4.5.2/../../../../pic32mx/lib/libe.a(_ldexp.o)
 .debug_pubnames
                0x00003593       0x1f /opt/microchip/xc32/v1.21/bin/../lib/gcc/pic32mx/4.5.2/../../../../pic32mx/lib/libe.a(_ldexpf.o)
 .debug_pubnames
                0x000035b2       0x20 /opt/microchip/xc32/v1.21/bin/../lib/gcc/pic32mx/4.5.2/libgcc.a(_lshrdi3.o)
 .debug_pubnames
                0x000035d2       0x20 /opt/microchip/xc32/v1.21/bin/../lib/gcc/pic32mx/4.5.2/libgcc.a(_ashldi3.o)
 .debug_pubnames
                0x000035f2       0x24 /opt/microchip/xc32/v1.21/bin/../lib/gcc/pic32mx/4.5.2/libgcc.a(_floatundisf.o)
 .debug_pubnames
                0x00003616       0x20 /opt/microchip/xc32/v1.21/bin/../lib/gcc/pic32mx/4.5.2/libgcc.a(_umoddi3.o)
 .debug_pubnames
                0x00003636       0x24 /opt/microchip/xc32/v1.21/bin/../lib/gcc/pic32mx/4.5.2/libgcc.a(floatunsisf.o)

.debug_info     0x00000000    0x5a7e6
 *(.debug_info .gnu.linkonce.wi.*)
 .debug_info    0x00000000     0x2dcc build/debug/production/_ext/71113213/SD-SPI.o
 .debug_info    0x00002dcc     0x5962 build/debug/production/_ext/71113213/FSIO.o
 .debug_info    0x0000872e     0x225c build/debug/production/_ext/2096855388/SClib.o
 .debug_info    0x0000a98a     0x319a build/debug/production/_ext/2096855388/SCpic32.o
 .debug_info    0x0000db24     0x3c16 build/debug/production/_ext/870548313/usb_device.o
 .debug_info    0x0001173a     0x29b7 build/debug/production/_ext/1379786196/usb_function_cdc.o
 .debug_info    0x000140f1     0x1805 build/debug/production/src/indala.o
 .debug_info    0x000158f6     0x5222 build/debug/production/src/main.o
 .debug_info    0x0001ab18     0x22a1 build/debug/production/src/psk.o
 .debug_info    0x0001cdb9     0x17d5 build/debug/production/src/usb_descriptors.o
 .debug_info    0x0001e58e     0x2aa6 build/debug/production/src/util.o
 .debug_info    0x00021034     0x1594 build/debug/production/src/emulate.o
 .debug_info    0x000225c8     0x2179 build/debug/production/src/ask.o
 .debug_info    0x00024741     0x228d build/debug/production/src/fsk.o
 .debug_info    0x000269ce     0x20e0 build/debug/production/src/clock.o
 .debug_info    0x00028aae     0x1980 build/debug/production/src/rwd.o
 .debug_info    0x0002a42e     0x1662 build/debug/production/src/detect.o
 .debug_info    0x0002ba90     0x1509 build/debug/production/src/hitagcrypto.o
 .debug_info    0x0002cf99     0x21c7 build/debug/production/src/wiegand.o
 .debug_info    0x0002f160     0x180c build/debug/production/src/comms.o
 .debug_info    0x0003096c     0x16d8 build/debug/production/src/nvm.o
 .debug_info    0x00032044     0x1459 build/debug/production/src/mcp414x.o
 .debug_info    0x0003349d     0x17fa build/debug/production/src/spi.o
 .debug_info    0x00034c97     0x1dd4 build/debug/production/src/uart3.o
 .debug_info    0x00036a6b     0x1841 build/debug/production/src/tags.o
 .debug_info    0x000382ac     0x1343 build/debug/production/src/unique.o
 .debug_info    0x000395ef     0x1878 build/debug/production/src/led.o
 .debug_info    0x0003ae67     0x1413 build/debug/production/src/em.o
 .debug_info    0x0003c27a     0x1368 build/debug/production/src/hid.o
 .debug_info    0x0003d5e2     0x1535 build/debug/production/src/read.o
 .debug_info    0x0003eb17     0x1fec build/debug/production/src/isr.o
 .debug_info    0x00040b03     0x167d build/debug/production/src/auto.o
 .debug_info    0x00042180     0x142c build/debug/production/src/fdxb.o
 .debug_info    0x000435ac     0x209d build/debug/production/src/hitag.o
 .debug_info    0x00045649     0x1673 build/debug/production/src/uid.o
 .debug_info    0x00046cbc     0x1517 build/debug/production/src/login.o
 .debug_info    0x000481d3     0x1516 build/debug/production/src/write.o
 .debug_info    0x000496e9     0x153e build/debug/production/src/auth.o
 .debug_info    0x0004ac27     0x1c09 build/debug/production/src/q5.o
 .debug_info    0x0004c830     0x1ab1 build/debug/production/src/vtag.o
 .debug_info    0x0004e2e1     0x1399 build/debug/production/src/config.o
 .debug_info    0x0004f67a     0x154c build/debug/production/src/select.o
 .debug_info    0x00050bc6     0x132b build/debug/production/src/sdcard.o
 .debug_info    0x00051ef1     0x157a build/debug/production/src/debug_pins.o
 .debug_info    0x0005346b     0x138e build/debug/production/src/awid.o
 .debug_info    0x000547f9     0x1da0 build/debug/production/src/analogue.o
 .debug_info    0x00056599       0xb2 /opt/microchip/xc32/v1.21/pic32mx/lib/libmchp_peripheral_32MX795F512L.a(soft_reset_lib.o)
 .debug_info    0x0005664b       0xbf /opt/microchip/xc32/v1.21/pic32mx/lib/libmchp_peripheral_32MX795F512L.a(pcache.o)
 .debug_info    0x0005670a       0xb2 /opt/microchip/xc32/v1.21/pic32mx/lib/libmchp_peripheral_32MX795F512L.a(int_configure_system_lib.o)
 .debug_info    0x000567bc       0xb4 /opt/microchip/xc32/v1.21/pic32mx/lib/libmchp_peripheral_32MX795F512L.a(int_enable_interrupts_lib.o)
 .debug_info    0x00056870       0xb6 /opt/microchip/xc32/v1.21/pic32mx/lib/libmchp_peripheral_32MX795F512L.a(int_disable_interrupts_lib.o)
 .debug_info    0x00056926       0xb6 /opt/microchip/xc32/v1.21/pic32mx/lib/libmchp_peripheral_32MX795F512L.a(int_restore_interrupts_lib.o)
 .debug_info    0x000569dc       0xbc /opt/microchip/xc32/v1.21/pic32mx/lib/libmchp_peripheral_32MX795F512L.a(int_enable_mv_int_lib.o)
 .debug_info    0x00056a98      0x196 /opt/microchip/xc32/v1.21/pic32mx/lib/libmchp_peripheral_32MX795F512L.a(int_tbl_lib.o)
 .debug_info    0x00056c2e       0xa4 /opt/microchip/xc32/v1.21/pic32mx/lib/libmchp_peripheral_32MX795F512L.a(spi_chn_close_lib.o)
 .debug_info    0x00056cd2       0xa2 /opt/microchip/xc32/v1.21/pic32mx/lib/libmchp_peripheral_32MX795F512L.a(spi_chn_open_lib.o)
 .debug_info    0x00056d74        0x0 /opt/microchip/xc32/v1.21/pic32mx/lib/libmchp_peripheral_32MX795F512L.a(spi_io_tbl_libp.o)
 .debug_info    0x00056d74        0x0 /opt/microchip/xc32/v1.21/pic32mx/lib/libmchp_peripheral_32MX795F512L.a(spi_map_tbl_libp.o)
 .debug_info    0x00056d74       0xa8 /opt/microchip/xc32/v1.21/pic32mx/lib/libmchp_peripheral_32MX795F512L.a(spi_getc_spi1_lib_legacy.o)
 .debug_info    0x00056e1c       0xa8 /opt/microchip/xc32/v1.21/pic32mx/lib/libmchp_peripheral_32MX795F512L.a(spi_open_spi1_lib_legacy.o)
 .debug_info    0x00056ec4        0x0 /opt/microchip/xc32/v1.21/pic32mx/lib/libmchp_peripheral_32MX795F512L.a(spi_brg_tbl_lib_legacy.o)
 .debug_info    0x00056ec4       0xa6 /opt/microchip/xc32/v1.21/pic32mx/lib/libmchp_peripheral_32MX795F512L.a(nvm_erase_page_lib.o)
 .debug_info    0x00056f6a       0xc7 /opt/microchip/xc32/v1.21/pic32mx/lib/libmchp_peripheral_32MX795F512L.a(nvm_operation_lib.o)
 .debug_info    0x00057031       0xa1 /opt/microchip/xc32/v1.21/pic32mx/lib/libmchp_peripheral_32MX795F512L.a(nvm_program_lib.o)
 .debug_info    0x000570d2       0xa4 /opt/microchip/xc32/v1.21/pic32mx/lib/libmchp_peripheral_32MX795F512L.a(nvm_write_row_lib.o)
 .debug_info    0x00057176       0xaa /opt/microchip/xc32/v1.21/pic32mx/lib/libmchp_peripheral_32MX795F512L.a(port_reset_pins_lib.o)
 .debug_info    0x00057220       0xba /opt/microchip/xc32/v1.21/pic32mx/lib/libmchp_peripheral_32MX795F512L.a(port_set_pins_digital_in_lib.o)
 .debug_info    0x000572da       0xbc /opt/microchip/xc32/v1.21/pic32mx/lib/libmchp_peripheral_32MX795F512L.a(port_set_pins_digital_out_lib.o)
 .debug_info    0x00057396        0x0 /opt/microchip/xc32/v1.21/pic32mx/lib/libmchp_peripheral_32MX795F512L.a(_ports_tbl_libp.o)
 .debug_info    0x00057396      0x75a /opt/microchip/xc32/v1.21/bin/../lib/gcc/pic32mx/4.5.2/libgcc.a(_udivdi3.o)
 .debug_info    0x00057af0       0xe8 /opt/microchip/xc32/v1.21/bin/../lib/gcc/pic32mx/4.5.2/../../../../pic32mx/lib/libpic32.a(default-bootstrap-exception-handler.o)
 .debug_info    0x00057bd8       0xc2 /opt/microchip/xc32/v1.21/bin/../lib/gcc/pic32mx/4.5.2/../../../../pic32mx/lib/libpic32.a(default-on-reset.o)
 .debug_info    0x00057c9a       0xca /opt/microchip/xc32/v1.21/bin/../lib/gcc/pic32mx/4.5.2/../../../../pic32mx/lib/libpic32.a(default-on-bootstrap.o)
 .debug_info    0x00057d64       0xe4 /opt/microchip/xc32/v1.21/bin/../lib/gcc/pic32mx/4.5.2/../../../../pic32mx/lib/libpic32.a(default-general-exception-handler.o)
 .debug_info    0x00057e48       0xdc /opt/microchip/xc32/v1.21/bin/../lib/gcc/pic32mx/4.5.2/../../../../pic32mx/lib/libpic32.a(defaultinterrupt.o)
 .debug_info    0x00057f24      0x21b /opt/microchip/xc32/v1.21/bin/../lib/gcc/pic32mx/4.5.2/../../../../pic32mx/lib/libc.a(ctypef.o)
 .debug_info    0x0005813f       0xcd /opt/microchip/xc32/v1.21/bin/../lib/gcc/pic32mx/4.5.2/../../../../pic32mx/lib/libc.a(rand.o)
 .debug_info    0x0005820c       0xb9 /opt/microchip/xc32/v1.21/bin/../lib/gcc/pic32mx/4.5.2/../../../../pic32mx/lib/libc.a(strncmp.o)
 .debug_info    0x000582c5       0xb9 /opt/microchip/xc32/v1.21/bin/../lib/gcc/pic32mx/4.5.2/../../../../pic32mx/lib/libc.a(strncpy.o)
 .debug_info    0x0005837e       0xc3 /opt/microchip/xc32/v1.21/bin/../lib/gcc/pic32mx/4.5.2/../../../../pic32mx/lib/libc.a(sprintf_cdnopuxX.eo)
 .debug_info    0x00058441       0xb9 /opt/microchip/xc32/v1.21/bin/../lib/gcc/pic32mx/4.5.2/../../../../pic32mx/lib/libc.a(sprintf.o)
 .debug_info    0x000584fa       0xc4 /opt/microchip/xc32/v1.21/bin/../lib/gcc/pic32mx/4.5.2/../../../../pic32mx/lib/libc.a(sscanf_cdfFnopsuxX.eo)
 .debug_info    0x000585be        0x0 /opt/microchip/xc32/v1.21/bin/../lib/gcc/pic32mx/4.5.2/../../../../pic32mx/lib/libc.a(ctype.o)
 .debug_info    0x000585be       0xc4 /opt/microchip/xc32/v1.21/bin/../lib/gcc/pic32mx/4.5.2/../../../../pic32mx/lib/libc.a(doprnt_cdnopuxX.eo)
 .debug_info    0x00058682       0xe3 /opt/microchip/xc32/v1.21/bin/../lib/gcc/pic32mx/4.5.2/../../../../pic32mx/lib/libc.a(doprnt.o)
 .debug_info    0x00058765       0xec /opt/microchip/xc32/v1.21/bin/../lib/gcc/pic32mx/4.5.2/../../../../pic32mx/lib/libc.a(doscan_cdfFnopsuxX.eo)
 .debug_info    0x00058851       0xe9 /opt/microchip/xc32/v1.21/bin/../lib/gcc/pic32mx/4.5.2/../../../../pic32mx/lib/libc.a(doscan_cdnopuxX.eo)
 .debug_info    0x0005893a       0xb5 /opt/microchip/xc32/v1.21/bin/../lib/gcc/pic32mx/4.5.2/../../../../pic32mx/lib/libc.a(fgetc.o)
 .debug_info    0x000589ef       0xb5 /opt/microchip/xc32/v1.21/bin/../lib/gcc/pic32mx/4.5.2/../../../../pic32mx/lib/libc.a(_fputc_simple.o)
 .debug_info    0x00058aa4       0xb3 /opt/microchip/xc32/v1.21/bin/../lib/gcc/pic32mx/4.5.2/../../../../pic32mx/lib/libc.a(atoi.o)
 .debug_info    0x00058b57        0x0 /opt/microchip/xc32/v1.21/bin/../lib/gcc/pic32mx/4.5.2/../../../../pic32mx/lib/libc.a(powersf.o)
 .debug_info    0x00058b57       0xe6 /opt/microchip/xc32/v1.21/bin/../lib/gcc/pic32mx/4.5.2/../../../../pic32mx/lib/libc.a(strtod.o)
 .debug_info    0x00058c3d       0xe5 /opt/microchip/xc32/v1.21/bin/../lib/gcc/pic32mx/4.5.2/../../../../pic32mx/lib/libc.a(strtof.o)
 .debug_info    0x00058d22       0xb7 /opt/microchip/xc32/v1.21/bin/../lib/gcc/pic32mx/4.5.2/../../../../pic32mx/lib/libc.a(ungetc.o)
 .debug_info    0x00058dd9        0x0 /opt/microchip/xc32/v1.21/bin/../lib/gcc/pic32mx/4.5.2/../../../../pic32mx/lib/libc.a(_iob.o)
 .debug_info    0x00058dd9       0xb8 /opt/microchip/xc32/v1.21/bin/../lib/gcc/pic32mx/4.5.2/../../../../pic32mx/lib/libc.a(filbuf.o)
 .debug_info    0x00058e91       0xb8 /opt/microchip/xc32/v1.21/bin/../lib/gcc/pic32mx/4.5.2/../../../../pic32mx/lib/libc.a(_flsbuf_simple.o)
 .debug_info    0x00058f49       0xb7 /opt/microchip/xc32/v1.21/bin/../lib/gcc/pic32mx/4.5.2/../../../../pic32mx/lib/libc.a(fflush.o)
 .debug_info    0x00059000       0xb1 /opt/microchip/xc32/v1.21/bin/../lib/gcc/pic32mx/4.5.2/../../../../pic32mx/lib/libpic32.a(read.o)
 .debug_info    0x000590b1       0xb3 /opt/microchip/xc32/v1.21/bin/../lib/gcc/pic32mx/4.5.2/../../../../pic32mx/lib/libpic32.a(write.o)
 .debug_info    0x00059164        0x0 /opt/microchip/xc32/v1.21/bin/../lib/gcc/pic32mx/4.5.2/../../../../pic32mx/lib/libpic32.a(xc32_uart.o)
 .debug_info    0x00059164       0xbb /opt/microchip/xc32/v1.21/bin/../lib/gcc/pic32mx/4.5.2/../../../../pic32mx/lib/libpic32.a(_mon_putc.o)
 .debug_info    0x0005921f       0xd1 /opt/microchip/xc32/v1.21/bin/../lib/gcc/pic32mx/4.5.2/../../../../pic32mx/lib/libe.a(_floatdisf.o)
 .debug_info    0x000592f0       0xc1 /opt/microchip/xc32/v1.21/bin/../lib/gcc/pic32mx/4.5.2/../../../../pic32mx/lib/libe.a(_strtod.o)
 .debug_info    0x000593b1       0xc1 /opt/microchip/xc32/v1.21/bin/../lib/gcc/pic32mx/4.5.2/../../../../pic32mx/lib/libe.a(_strtof.o)
 .debug_info    0x00059472       0xcd /opt/microchip/xc32/v1.21/bin/../lib/gcc/pic32mx/4.5.2/../../../../pic32mx/lib/libe.a(_ldexp.o)
 .debug_info    0x0005953f       0xce /opt/microchip/xc32/v1.21/bin/../lib/gcc/pic32mx/4.5.2/../../../../pic32mx/lib/libe.a(_ldexpf.o)
 .debug_info    0x0005960d      0x320 /opt/microchip/xc32/v1.21/bin/../lib/gcc/pic32mx/4.5.2/libgcc.a(_lshrdi3.o)
 .debug_info    0x0005992d      0x31c /opt/microchip/xc32/v1.21/bin/../lib/gcc/pic32mx/4.5.2/libgcc.a(_ashldi3.o)
 .debug_info    0x00059c49      0x2a7 /opt/microchip/xc32/v1.21/bin/../lib/gcc/pic32mx/4.5.2/libgcc.a(_floatundisf.o)
 .debug_info    0x00059ef0      0x797 /opt/microchip/xc32/v1.21/bin/../lib/gcc/pic32mx/4.5.2/libgcc.a(_umoddi3.o)
 .debug_info    0x0005a687      0x15f /opt/microchip/xc32/v1.21/bin/../lib/gcc/pic32mx/4.5.2/libgcc.a(floatunsisf.o)
 .debug_info    0x0005a7e6        0x0 /opt/microchip/xc32/v1.21/bin/../lib/gcc/pic32mx/4.5.2/../../../../pic32mx/lib/libpic32.a(errno.o)

.debug_abbrev   0x00000000     0x71a5
 *(.debug_abbrev)
 .debug_abbrev  0x00000000      0x345 build/debug/production/_ext/71113213/SD-SPI.o
 .debug_abbrev  0x00000345      0x2f4 build/debug/production/_ext/71113213/FSIO.o
 .debug_abbrev  0x00000639      0x298 build/debug/production/_ext/2096855388/SClib.o
 .debug_abbrev  0x000008d1      0x22c build/debug/production/_ext/2096855388/SCpic32.o
 .debug_abbrev  0x00000afd      0x2f3 build/debug/production/_ext/870548313/usb_device.o
 .debug_abbrev  0x00000df0      0x29d build/debug/production/_ext/1379786196/usb_function_cdc.o
 .debug_abbrev  0x0000108d      0x204 build/debug/production/src/indala.o
 .debug_abbrev  0x00001291      0x417 build/debug/production/src/main.o
 .debug_abbrev  0x000016a8      0x25b build/debug/production/src/psk.o
 .debug_abbrev  0x00001903      0x1e5 build/debug/production/src/usb_descriptors.o
 .debug_abbrev  0x00001ae8      0x264 build/debug/production/src/util.o
 .debug_abbrev  0x00001d4c      0x1f9 build/debug/production/src/emulate.o
 .debug_abbrev  0x00001f45      0x23d build/debug/production/src/ask.o
 .debug_abbrev  0x00002182      0x23d build/debug/production/src/fsk.o
 .debug_abbrev  0x000023bf      0x206 build/debug/production/src/clock.o
 .debug_abbrev  0x000025c5      0x22e build/debug/production/src/rwd.o
 .debug_abbrev  0x000027f3      0x18c build/debug/production/src/detect.o
 .debug_abbrev  0x0000297f      0x239 build/debug/production/src/hitagcrypto.o
 .debug_abbrev  0x00002bb8      0x219 build/debug/production/src/wiegand.o
 .debug_abbrev  0x00002dd1      0x233 build/debug/production/src/comms.o
 .debug_abbrev  0x00003004      0x20d build/debug/production/src/nvm.o
 .debug_abbrev  0x00003211      0x1ea build/debug/production/src/mcp414x.o
 .debug_abbrev  0x000033fb      0x1d9 build/debug/production/src/spi.o
 .debug_abbrev  0x000035d4      0x224 build/debug/production/src/uart3.o
 .debug_abbrev  0x000037f8      0x254 build/debug/production/src/tags.o
 .debug_abbrev  0x00003a4c      0x1cd build/debug/production/src/unique.o
 .debug_abbrev  0x00003c19      0x1b5 build/debug/production/src/led.o
 .debug_abbrev  0x00003dce      0x1ed build/debug/production/src/em.o
 .debug_abbrev  0x00003fbb      0x1e3 build/debug/production/src/hid.o
 .debug_abbrev  0x0000419e      0x1cd build/debug/production/src/read.o
 .debug_abbrev  0x0000436b      0x22a build/debug/production/src/isr.o
 .debug_abbrev  0x00004595      0x209 build/debug/production/src/auto.o
 .debug_abbrev  0x0000479e      0x1e3 build/debug/production/src/fdxb.o
 .debug_abbrev  0x00004981      0x26c build/debug/production/src/hitag.o
 .debug_abbrev  0x00004bed      0x217 build/debug/production/src/uid.o
 .debug_abbrev  0x00004e04      0x1be build/debug/production/src/login.o
 .debug_abbrev  0x00004fc2      0x1be build/debug/production/src/write.o
 .debug_abbrev  0x00005180      0x1dd build/debug/production/src/auth.o
 .debug_abbrev  0x0000535d      0x25a build/debug/production/src/q5.o
 .debug_abbrev  0x000055b7      0x28a build/debug/production/src/vtag.o
 .debug_abbrev  0x00005841      0x1d8 build/debug/production/src/config.o
 .debug_abbrev  0x00005a19      0x1f5 build/debug/production/src/select.o
 .debug_abbrev  0x00005c0e      0x1eb build/debug/production/src/sdcard.o
 .debug_abbrev  0x00005df9      0x1fe build/debug/production/src/debug_pins.o
 .debug_abbrev  0x00005ff7      0x1e3 build/debug/production/src/awid.o
 .debug_abbrev  0x000061da      0x20f build/debug/production/src/analogue.o
 .debug_abbrev  0x000063e9       0x34 /opt/microchip/xc32/v1.21/pic32mx/lib/libmchp_peripheral_32MX795F512L.a(soft_reset_lib.o)
 .debug_abbrev  0x0000641d       0x25 /opt/microchip/xc32/v1.21/pic32mx/lib/libmchp_peripheral_32MX795F512L.a(pcache.o)
 .debug_abbrev  0x00006442       0x25 /opt/microchip/xc32/v1.21/pic32mx/lib/libmchp_peripheral_32MX795F512L.a(int_configure_system_lib.o)
 .debug_abbrev  0x00006467       0x25 /opt/microchip/xc32/v1.21/pic32mx/lib/libmchp_peripheral_32MX795F512L.a(int_enable_interrupts_lib.o)
 .debug_abbrev  0x0000648c       0x25 /opt/microchip/xc32/v1.21/pic32mx/lib/libmchp_peripheral_32MX795F512L.a(int_disable_interrupts_lib.o)
 .debug_abbrev  0x000064b1       0x25 /opt/microchip/xc32/v1.21/pic32mx/lib/libmchp_peripheral_32MX795F512L.a(int_restore_interrupts_lib.o)
 .debug_abbrev  0x000064d6       0x25 /opt/microchip/xc32/v1.21/pic32mx/lib/libmchp_peripheral_32MX795F512L.a(int_enable_mv_int_lib.o)
 .debug_abbrev  0x000064fb       0x25 /opt/microchip/xc32/v1.21/pic32mx/lib/libmchp_peripheral_32MX795F512L.a(int_tbl_lib.o)
 .debug_abbrev  0x00006520       0x25 /opt/microchip/xc32/v1.21/pic32mx/lib/libmchp_peripheral_32MX795F512L.a(spi_chn_close_lib.o)
 .debug_abbrev  0x00006545       0x25 /opt/microchip/xc32/v1.21/pic32mx/lib/libmchp_peripheral_32MX795F512L.a(spi_chn_open_lib.o)
 .debug_abbrev  0x0000656a        0x1 /opt/microchip/xc32/v1.21/pic32mx/lib/libmchp_peripheral_32MX795F512L.a(spi_io_tbl_libp.o)
 .debug_abbrev  0x0000656b        0x1 /opt/microchip/xc32/v1.21/pic32mx/lib/libmchp_peripheral_32MX795F512L.a(spi_map_tbl_libp.o)
 .debug_abbrev  0x0000656c       0x25 /opt/microchip/xc32/v1.21/pic32mx/lib/libmchp_peripheral_32MX795F512L.a(spi_getc_spi1_lib_legacy.o)
 .debug_abbrev  0x00006591       0x25 /opt/microchip/xc32/v1.21/pic32mx/lib/libmchp_peripheral_32MX795F512L.a(spi_open_spi1_lib_legacy.o)
 .debug_abbrev  0x000065b6        0x1 /opt/microchip/xc32/v1.21/pic32mx/lib/libmchp_peripheral_32MX795F512L.a(spi_brg_tbl_lib_legacy.o)
 .debug_abbrev  0x000065b7       0x25 /opt/microchip/xc32/v1.21/pic32mx/lib/libmchp_peripheral_32MX795F512L.a(nvm_erase_page_lib.o)
 .debug_abbrev  0x000065dc       0x34 /opt/microchip/xc32/v1.21/pic32mx/lib/libmchp_peripheral_32MX795F512L.a(nvm_operation_lib.o)
 .debug_abbrev  0x00006610       0x25 /opt/microchip/xc32/v1.21/pic32mx/lib/libmchp_peripheral_32MX795F512L.a(nvm_program_lib.o)
 .debug_abbrev  0x00006635       0x25 /opt/microchip/xc32/v1.21/pic32mx/lib/libmchp_peripheral_32MX795F512L.a(nvm_write_row_lib.o)
 .debug_abbrev  0x0000665a       0x25 /opt/microchip/xc32/v1.21/pic32mx/lib/libmchp_peripheral_32MX795F512L.a(port_reset_pins_lib.o)
 .debug_abbrev  0x0000667f       0x25 /opt/microchip/xc32/v1.21/pic32mx/lib/libmchp_peripheral_32MX795F512L.a(port_set_pins_digital_in_lib.o)
 .debug_abbrev  0x000066a4       0x25 /opt/microchip/xc32/v1.21/pic32mx/lib/libmchp_peripheral_32MX795F512L.a(port_set_pins_digital_out_lib.o)
 .debug_abbrev  0x000066c9        0x1 /opt/microchip/xc32/v1.21/pic32mx/lib/libmchp_peripheral_32MX795F512L.a(_ports_tbl_libp.o)
 .debug_abbrev  0x000066ca      0x13d /opt/microchip/xc32/v1.21/bin/../lib/gcc/pic32mx/4.5.2/libgcc.a(_udivdi3.o)
 .debug_abbrev  0x00006807       0x25 /opt/microchip/xc32/v1.21/bin/../lib/gcc/pic32mx/4.5.2/../../../../pic32mx/lib/libpic32.a(default-bootstrap-exception-handler.o)
 .debug_abbrev  0x0000682c       0x25 /opt/microchip/xc32/v1.21/bin/../lib/gcc/pic32mx/4.5.2/../../../../pic32mx/lib/libpic32.a(default-on-reset.o)
 .debug_abbrev  0x00006851       0x25 /opt/microchip/xc32/v1.21/bin/../lib/gcc/pic32mx/4.5.2/../../../../pic32mx/lib/libpic32.a(default-on-bootstrap.o)
 .debug_abbrev  0x00006876       0x25 /opt/microchip/xc32/v1.21/bin/../lib/gcc/pic32mx/4.5.2/../../../../pic32mx/lib/libpic32.a(default-general-exception-handler.o)
 .debug_abbrev  0x0000689b       0x25 /opt/microchip/xc32/v1.21/bin/../lib/gcc/pic32mx/4.5.2/../../../../pic32mx/lib/libpic32.a(defaultinterrupt.o)
 .debug_abbrev  0x000068c0       0x25 /opt/microchip/xc32/v1.21/bin/../lib/gcc/pic32mx/4.5.2/../../../../pic32mx/lib/libc.a(ctypef.o)
 .debug_abbrev  0x000068e5       0x41 /opt/microchip/xc32/v1.21/bin/../lib/gcc/pic32mx/4.5.2/../../../../pic32mx/lib/libc.a(rand.o)
 .debug_abbrev  0x00006926       0x25 /opt/microchip/xc32/v1.21/bin/../lib/gcc/pic32mx/4.5.2/../../../../pic32mx/lib/libc.a(strncmp.o)
 .debug_abbrev  0x0000694b       0x25 /opt/microchip/xc32/v1.21/bin/../lib/gcc/pic32mx/4.5.2/../../../../pic32mx/lib/libc.a(strncpy.o)
 .debug_abbrev  0x00006970       0x25 /opt/microchip/xc32/v1.21/bin/../lib/gcc/pic32mx/4.5.2/../../../../pic32mx/lib/libc.a(sprintf_cdnopuxX.eo)
 .debug_abbrev  0x00006995       0x25 /opt/microchip/xc32/v1.21/bin/../lib/gcc/pic32mx/4.5.2/../../../../pic32mx/lib/libc.a(sprintf.o)
 .debug_abbrev  0x000069ba       0x25 /opt/microchip/xc32/v1.21/bin/../lib/gcc/pic32mx/4.5.2/../../../../pic32mx/lib/libc.a(sscanf_cdfFnopsuxX.eo)
 .debug_abbrev  0x000069df        0x1 /opt/microchip/xc32/v1.21/bin/../lib/gcc/pic32mx/4.5.2/../../../../pic32mx/lib/libc.a(ctype.o)
 .debug_abbrev  0x000069e0       0x25 /opt/microchip/xc32/v1.21/bin/../lib/gcc/pic32mx/4.5.2/../../../../pic32mx/lib/libc.a(doprnt_cdnopuxX.eo)
 .debug_abbrev  0x00006a05       0x36 /opt/microchip/xc32/v1.21/bin/../lib/gcc/pic32mx/4.5.2/../../../../pic32mx/lib/libc.a(doprnt.o)
 .debug_abbrev  0x00006a3b       0x36 /opt/microchip/xc32/v1.21/bin/../lib/gcc/pic32mx/4.5.2/../../../../pic32mx/lib/libc.a(doscan_cdfFnopsuxX.eo)
 .debug_abbrev  0x00006a71       0x36 /opt/microchip/xc32/v1.21/bin/../lib/gcc/pic32mx/4.5.2/../../../../pic32mx/lib/libc.a(doscan_cdnopuxX.eo)
 .debug_abbrev  0x00006aa7       0x25 /opt/microchip/xc32/v1.21/bin/../lib/gcc/pic32mx/4.5.2/../../../../pic32mx/lib/libc.a(fgetc.o)
 .debug_abbrev  0x00006acc       0x25 /opt/microchip/xc32/v1.21/bin/../lib/gcc/pic32mx/4.5.2/../../../../pic32mx/lib/libc.a(_fputc_simple.o)
 .debug_abbrev  0x00006af1       0x25 /opt/microchip/xc32/v1.21/bin/../lib/gcc/pic32mx/4.5.2/../../../../pic32mx/lib/libc.a(atoi.o)
 .debug_abbrev  0x00006b16        0x1 /opt/microchip/xc32/v1.21/bin/../lib/gcc/pic32mx/4.5.2/../../../../pic32mx/lib/libc.a(powersf.o)
 .debug_abbrev  0x00006b17       0x49 /opt/microchip/xc32/v1.21/bin/../lib/gcc/pic32mx/4.5.2/../../../../pic32mx/lib/libc.a(strtod.o)
 .debug_abbrev  0x00006b60       0x49 /opt/microchip/xc32/v1.21/bin/../lib/gcc/pic32mx/4.5.2/../../../../pic32mx/lib/libc.a(strtof.o)
 .debug_abbrev  0x00006ba9       0x25 /opt/microchip/xc32/v1.21/bin/../lib/gcc/pic32mx/4.5.2/../../../../pic32mx/lib/libc.a(ungetc.o)
 .debug_abbrev  0x00006bce        0x1 /opt/microchip/xc32/v1.21/bin/../lib/gcc/pic32mx/4.5.2/../../../../pic32mx/lib/libc.a(_iob.o)
 .debug_abbrev  0x00006bcf       0x25 /opt/microchip/xc32/v1.21/bin/../lib/gcc/pic32mx/4.5.2/../../../../pic32mx/lib/libc.a(filbuf.o)
 .debug_abbrev  0x00006bf4       0x25 /opt/microchip/xc32/v1.21/bin/../lib/gcc/pic32mx/4.5.2/../../../../pic32mx/lib/libc.a(_flsbuf_simple.o)
 .debug_abbrev  0x00006c19       0x25 /opt/microchip/xc32/v1.21/bin/../lib/gcc/pic32mx/4.5.2/../../../../pic32mx/lib/libc.a(fflush.o)
 .debug_abbrev  0x00006c3e       0x25 /opt/microchip/xc32/v1.21/bin/../lib/gcc/pic32mx/4.5.2/../../../../pic32mx/lib/libpic32.a(read.o)
 .debug_abbrev  0x00006c63       0x25 /opt/microchip/xc32/v1.21/bin/../lib/gcc/pic32mx/4.5.2/../../../../pic32mx/lib/libpic32.a(write.o)
 .debug_abbrev  0x00006c88        0x1 /opt/microchip/xc32/v1.21/bin/../lib/gcc/pic32mx/4.5.2/../../../../pic32mx/lib/libpic32.a(xc32_uart.o)
 .debug_abbrev  0x00006c89       0x25 /opt/microchip/xc32/v1.21/bin/../lib/gcc/pic32mx/4.5.2/../../../../pic32mx/lib/libpic32.a(_mon_putc.o)
 .debug_abbrev  0x00006cae       0x32 /opt/microchip/xc32/v1.21/bin/../lib/gcc/pic32mx/4.5.2/../../../../pic32mx/lib/libe.a(_floatdisf.o)
 .debug_abbrev  0x00006ce0       0x32 /opt/microchip/xc32/v1.21/bin/../lib/gcc/pic32mx/4.5.2/../../../../pic32mx/lib/libe.a(_strtod.o)
 .debug_abbrev  0x00006d12       0x32 /opt/microchip/xc32/v1.21/bin/../lib/gcc/pic32mx/4.5.2/../../../../pic32mx/lib/libe.a(_strtof.o)
 .debug_abbrev  0x00006d44       0x32 /opt/microchip/xc32/v1.21/bin/../lib/gcc/pic32mx/4.5.2/../../../../pic32mx/lib/libe.a(_ldexp.o)
 .debug_abbrev  0x00006d76       0x32 /opt/microchip/xc32/v1.21/bin/../lib/gcc/pic32mx/4.5.2/../../../../pic32mx/lib/libe.a(_ldexpf.o)
 .debug_abbrev  0x00006da8       0xe3 /opt/microchip/xc32/v1.21/bin/../lib/gcc/pic32mx/4.5.2/libgcc.a(_lshrdi3.o)
 .debug_abbrev  0x00006e8b       0xe3 /opt/microchip/xc32/v1.21/bin/../lib/gcc/pic32mx/4.5.2/libgcc.a(_ashldi3.o)
 .debug_abbrev  0x00006f6e       0x79 /opt/microchip/xc32/v1.21/bin/../lib/gcc/pic32mx/4.5.2/libgcc.a(_floatundisf.o)
 .debug_abbrev  0x00006fe7      0x15c /opt/microchip/xc32/v1.21/bin/../lib/gcc/pic32mx/4.5.2/libgcc.a(_umoddi3.o)
 .debug_abbrev  0x00007143       0x61 /opt/microchip/xc32/v1.21/bin/../lib/gcc/pic32mx/4.5.2/libgcc.a(floatunsisf.o)
 .debug_abbrev  0x000071a4        0x1 /opt/microchip/xc32/v1.21/bin/../lib/gcc/pic32mx/4.5.2/../../../../pic32mx/lib/libpic32.a(errno.o)

.debug_line     0x00000000     0x9a17
 *(.debug_line)
 .debug_line    0x00000000      0x430 build/debug/production/_ext/71113213/SD-SPI.o
 .debug_line    0x00000430     0x1aae build/debug/production/_ext/71113213/FSIO.o
 .debug_line    0x00001ede      0x363 build/debug/production/_ext/2096855388/SClib.o
 .debug_line    0x00002241      0x25a build/debug/production/_ext/2096855388/SCpic32.o
 .debug_line    0x0000249b      0x64e build/debug/production/_ext/870548313/usb_device.o
 .debug_line    0x00002ae9      0x2c7 build/debug/production/_ext/1379786196/usb_function_cdc.o
 .debug_line    0x00002db0      0x170 build/debug/production/src/indala.o
 .debug_line    0x00002f20      0x950 build/debug/production/src/main.o
 .debug_line    0x00003870      0x1ee build/debug/production/src/psk.o
 .debug_line    0x00003a5e      0x1a8 build/debug/production/src/usb_descriptors.o
 .debug_line    0x00003c06      0x48b build/debug/production/src/util.o
 .debug_line    0x00004091      0x14a build/debug/production/src/emulate.o
 .debug_line    0x000041db      0x1f5 build/debug/production/src/ask.o
 .debug_line    0x000043d0      0x227 build/debug/production/src/fsk.o
 .debug_line    0x000045f7      0x1ba build/debug/production/src/clock.o
 .debug_line    0x000047b1      0x169 build/debug/production/src/rwd.o
 .debug_line    0x0000491a      0x144 build/debug/production/src/detect.o
 .debug_line    0x00004a5e      0x22c build/debug/production/src/hitagcrypto.o
 .debug_line    0x00004c8a      0x242 build/debug/production/src/wiegand.o
 .debug_line    0x00004ecc      0x247 build/debug/production/src/comms.o
 .debug_line    0x00005113      0x1b3 build/debug/production/src/nvm.o
 .debug_line    0x000052c6      0x17b build/debug/production/src/mcp414x.o
 .debug_line    0x00005441      0x160 build/debug/production/src/spi.o
 .debug_line    0x000055a1      0x16a build/debug/production/src/uart3.o
 .debug_line    0x0000570b      0x2c5 build/debug/production/src/tags.o
 .debug_line    0x000059d0      0x142 build/debug/production/src/unique.o
 .debug_line    0x00005b12      0x166 build/debug/production/src/led.o
 .debug_line    0x00005c78      0x17e build/debug/production/src/em.o
 .debug_line    0x00005df6      0x14a build/debug/production/src/hid.o
 .debug_line    0x00005f40      0x142 build/debug/production/src/read.o
 .debug_line    0x00006082      0x29e build/debug/production/src/isr.o
 .debug_line    0x00006320      0x16c build/debug/production/src/auto.o
 .debug_line    0x0000648c      0x1a0 build/debug/production/src/fdxb.o
 .debug_line    0x0000662c      0x31d build/debug/production/src/hitag.o
 .debug_line    0x00006949      0x171 build/debug/production/src/uid.o
 .debug_line    0x00006aba      0x12c build/debug/production/src/login.o
 .debug_line    0x00006be6      0x12d build/debug/production/src/write.o
 .debug_line    0x00006d13      0x128 build/debug/production/src/auth.o
 .debug_line    0x00006e3b      0x21a build/debug/production/src/q5.o
 .debug_line    0x00007055      0x24a build/debug/production/src/vtag.o
 .debug_line    0x0000729f      0x133 build/debug/production/src/config.o
 .debug_line    0x000073d2      0x12f build/debug/production/src/select.o
 .debug_line    0x00007501      0x190 build/debug/production/src/sdcard.o
 .debug_line    0x00007691      0x160 build/debug/production/src/debug_pins.o
 .debug_line    0x000077f1      0x17a build/debug/production/src/awid.o
 .debug_line    0x0000796b      0x1aa build/debug/production/src/analogue.o
 .debug_line    0x00007b15       0xbf /opt/microchip/xc32/v1.21/pic32mx/lib/libmchp_peripheral_32MX795F512L.a(soft_reset_lib.o)
 .debug_line    0x00007bd4       0x62 /opt/microchip/xc32/v1.21/pic32mx/lib/libmchp_peripheral_32MX795F512L.a(pcache.o)
 .debug_line    0x00007c36       0x71 /opt/microchip/xc32/v1.21/pic32mx/lib/libmchp_peripheral_32MX795F512L.a(int_configure_system_lib.o)
 .debug_line    0x00007ca7       0x72 /opt/microchip/xc32/v1.21/pic32mx/lib/libmchp_peripheral_32MX795F512L.a(int_enable_interrupts_lib.o)
 .debug_line    0x00007d19       0x73 /opt/microchip/xc32/v1.21/pic32mx/lib/libmchp_peripheral_32MX795F512L.a(int_disable_interrupts_lib.o)
 .debug_line    0x00007d8c       0x73 /opt/microchip/xc32/v1.21/pic32mx/lib/libmchp_peripheral_32MX795F512L.a(int_restore_interrupts_lib.o)
 .debug_line    0x00007dff       0x6e /opt/microchip/xc32/v1.21/pic32mx/lib/libmchp_peripheral_32MX795F512L.a(int_enable_mv_int_lib.o)
 .debug_line    0x00007e6d       0x64 /opt/microchip/xc32/v1.21/pic32mx/lib/libmchp_peripheral_32MX795F512L.a(int_tbl_lib.o)
 .debug_line    0x00007ed1       0x6a /opt/microchip/xc32/v1.21/pic32mx/lib/libmchp_peripheral_32MX795F512L.a(spi_chn_close_lib.o)
 .debug_line    0x00007f3b       0x69 /opt/microchip/xc32/v1.21/pic32mx/lib/libmchp_peripheral_32MX795F512L.a(spi_chn_open_lib.o)
 .debug_line    0x00007fa4        0x0 /opt/microchip/xc32/v1.21/pic32mx/lib/libmchp_peripheral_32MX795F512L.a(spi_io_tbl_libp.o)
 .debug_line    0x00007fa4        0x0 /opt/microchip/xc32/v1.21/pic32mx/lib/libmchp_peripheral_32MX795F512L.a(spi_map_tbl_libp.o)
 .debug_line    0x00007fa4       0x71 /opt/microchip/xc32/v1.21/pic32mx/lib/libmchp_peripheral_32MX795F512L.a(spi_getc_spi1_lib_legacy.o)
 .debug_line    0x00008015       0x71 /opt/microchip/xc32/v1.21/pic32mx/lib/libmchp_peripheral_32MX795F512L.a(spi_open_spi1_lib_legacy.o)
 .debug_line    0x00008086        0x0 /opt/microchip/xc32/v1.21/pic32mx/lib/libmchp_peripheral_32MX795F512L.a(spi_brg_tbl_lib_legacy.o)
 .debug_line    0x00008086       0x6b /opt/microchip/xc32/v1.21/pic32mx/lib/libmchp_peripheral_32MX795F512L.a(nvm_erase_page_lib.o)
 .debug_line    0x000080f1       0xc0 /opt/microchip/xc32/v1.21/pic32mx/lib/libmchp_peripheral_32MX795F512L.a(nvm_operation_lib.o)
 .debug_line    0x000081b1       0x68 /opt/microchip/xc32/v1.21/pic32mx/lib/libmchp_peripheral_32MX795F512L.a(nvm_program_lib.o)
 .debug_line    0x00008219       0x6a /opt/microchip/xc32/v1.21/pic32mx/lib/libmchp_peripheral_32MX795F512L.a(nvm_write_row_lib.o)
 .debug_line    0x00008283       0x6e /opt/microchip/xc32/v1.21/pic32mx/lib/libmchp_peripheral_32MX795F512L.a(port_reset_pins_lib.o)
 .debug_line    0x000082f1       0x77 /opt/microchip/xc32/v1.21/pic32mx/lib/libmchp_peripheral_32MX795F512L.a(port_set_pins_digital_in_lib.o)
 .debug_line    0x00008368       0x78 /opt/microchip/xc32/v1.21/pic32mx/lib/libmchp_peripheral_32MX795F512L.a(port_set_pins_digital_out_lib.o)
 .debug_line    0x000083e0        0x0 /opt/microchip/xc32/v1.21/pic32mx/lib/libmchp_peripheral_32MX795F512L.a(_ports_tbl_libp.o)
 .debug_line    0x000083e0      0x113 /opt/microchip/xc32/v1.21/bin/../lib/gcc/pic32mx/4.5.2/libgcc.a(_udivdi3.o)
 .debug_line    0x000084f3       0x9d /opt/microchip/xc32/v1.21/bin/../lib/gcc/pic32mx/4.5.2/../../../../pic32mx/lib/libpic32.a(default-bootstrap-exception-handler.o)
 .debug_line    0x00008590       0x8a /opt/microchip/xc32/v1.21/bin/../lib/gcc/pic32mx/4.5.2/../../../../pic32mx/lib/libpic32.a(default-on-reset.o)
 .debug_line    0x0000861a       0x8e /opt/microchip/xc32/v1.21/bin/../lib/gcc/pic32mx/4.5.2/../../../../pic32mx/lib/libpic32.a(default-on-bootstrap.o)
 .debug_line    0x000086a8       0x9b /opt/microchip/xc32/v1.21/bin/../lib/gcc/pic32mx/4.5.2/../../../../pic32mx/lib/libpic32.a(default-general-exception-handler.o)
 .debug_line    0x00008743       0x9c /opt/microchip/xc32/v1.21/bin/../lib/gcc/pic32mx/4.5.2/../../../../pic32mx/lib/libpic32.a(defaultinterrupt.o)
 .debug_line    0x000087df       0x82 /opt/microchip/xc32/v1.21/bin/../lib/gcc/pic32mx/4.5.2/../../../../pic32mx/lib/libc.a(ctypef.o)
 .debug_line    0x00008861       0x80 /opt/microchip/xc32/v1.21/bin/../lib/gcc/pic32mx/4.5.2/../../../../pic32mx/lib/libc.a(rand.o)
 .debug_line    0x000088e1       0x83 /opt/microchip/xc32/v1.21/bin/../lib/gcc/pic32mx/4.5.2/../../../../pic32mx/lib/libc.a(strncmp.o)
 .debug_line    0x00008964       0x83 /opt/microchip/xc32/v1.21/bin/../lib/gcc/pic32mx/4.5.2/../../../../pic32mx/lib/libc.a(strncpy.o)
 .debug_line    0x000089e7       0x83 /opt/microchip/xc32/v1.21/bin/../lib/gcc/pic32mx/4.5.2/../../../../pic32mx/lib/libc.a(sprintf_cdnopuxX.eo)
 .debug_line    0x00008a6a       0x83 /opt/microchip/xc32/v1.21/bin/../lib/gcc/pic32mx/4.5.2/../../../../pic32mx/lib/libc.a(sprintf.o)
 .debug_line    0x00008aed       0x82 /opt/microchip/xc32/v1.21/bin/../lib/gcc/pic32mx/4.5.2/../../../../pic32mx/lib/libc.a(sscanf_cdfFnopsuxX.eo)
 .debug_line    0x00008b6f        0x0 /opt/microchip/xc32/v1.21/bin/../lib/gcc/pic32mx/4.5.2/../../../../pic32mx/lib/libc.a(ctype.o)
 .debug_line    0x00008b6f       0x82 /opt/microchip/xc32/v1.21/bin/../lib/gcc/pic32mx/4.5.2/../../../../pic32mx/lib/libc.a(doprnt_cdnopuxX.eo)
 .debug_line    0x00008bf1       0x82 /opt/microchip/xc32/v1.21/bin/../lib/gcc/pic32mx/4.5.2/../../../../pic32mx/lib/libc.a(doprnt.o)
 .debug_line    0x00008c73       0x82 /opt/microchip/xc32/v1.21/bin/../lib/gcc/pic32mx/4.5.2/../../../../pic32mx/lib/libc.a(doscan_cdfFnopsuxX.eo)
 .debug_line    0x00008cf5       0x82 /opt/microchip/xc32/v1.21/bin/../lib/gcc/pic32mx/4.5.2/../../../../pic32mx/lib/libc.a(doscan_cdnopuxX.eo)
 .debug_line    0x00008d77       0x81 /opt/microchip/xc32/v1.21/bin/../lib/gcc/pic32mx/4.5.2/../../../../pic32mx/lib/libc.a(fgetc.o)
 .debug_line    0x00008df8       0x81 /opt/microchip/xc32/v1.21/bin/../lib/gcc/pic32mx/4.5.2/../../../../pic32mx/lib/libc.a(_fputc_simple.o)
 .debug_line    0x00008e79       0x80 /opt/microchip/xc32/v1.21/bin/../lib/gcc/pic32mx/4.5.2/../../../../pic32mx/lib/libc.a(atoi.o)
 .debug_line    0x00008ef9        0x0 /opt/microchip/xc32/v1.21/bin/../lib/gcc/pic32mx/4.5.2/../../../../pic32mx/lib/libc.a(powersf.o)
 .debug_line    0x00008ef9       0x82 /opt/microchip/xc32/v1.21/bin/../lib/gcc/pic32mx/4.5.2/../../../../pic32mx/lib/libc.a(strtod.o)
 .debug_line    0x00008f7b       0x82 /opt/microchip/xc32/v1.21/bin/../lib/gcc/pic32mx/4.5.2/../../../../pic32mx/lib/libc.a(strtof.o)
 .debug_line    0x00008ffd       0x82 /opt/microchip/xc32/v1.21/bin/../lib/gcc/pic32mx/4.5.2/../../../../pic32mx/lib/libc.a(ungetc.o)
 .debug_line    0x0000907f        0x0 /opt/microchip/xc32/v1.21/bin/../lib/gcc/pic32mx/4.5.2/../../../../pic32mx/lib/libc.a(_iob.o)
 .debug_line    0x0000907f       0x82 /opt/microchip/xc32/v1.21/bin/../lib/gcc/pic32mx/4.5.2/../../../../pic32mx/lib/libc.a(filbuf.o)
 .debug_line    0x00009101       0x82 /opt/microchip/xc32/v1.21/bin/../lib/gcc/pic32mx/4.5.2/../../../../pic32mx/lib/libc.a(_flsbuf_simple.o)
 .debug_line    0x00009183       0x82 /opt/microchip/xc32/v1.21/bin/../lib/gcc/pic32mx/4.5.2/../../../../pic32mx/lib/libc.a(fflush.o)
 .debug_line    0x00009205       0x7e /opt/microchip/xc32/v1.21/bin/../lib/gcc/pic32mx/4.5.2/../../../../pic32mx/lib/libpic32.a(read.o)
 .debug_line    0x00009283       0x7f /opt/microchip/xc32/v1.21/bin/../lib/gcc/pic32mx/4.5.2/../../../../pic32mx/lib/libpic32.a(write.o)
 .debug_line    0x00009302        0x0 /opt/microchip/xc32/v1.21/bin/../lib/gcc/pic32mx/4.5.2/../../../../pic32mx/lib/libpic32.a(xc32_uart.o)
 .debug_line    0x00009302       0x83 /opt/microchip/xc32/v1.21/bin/../lib/gcc/pic32mx/4.5.2/../../../../pic32mx/lib/libpic32.a(_mon_putc.o)
 .debug_line    0x00009385       0x99 /opt/microchip/xc32/v1.21/bin/../lib/gcc/pic32mx/4.5.2/../../../../pic32mx/lib/libe.a(_floatdisf.o)
 .debug_line    0x0000941e       0x86 /opt/microchip/xc32/v1.21/bin/../lib/gcc/pic32mx/4.5.2/../../../../pic32mx/lib/libe.a(_strtod.o)
 .debug_line    0x000094a4       0x86 /opt/microchip/xc32/v1.21/bin/../lib/gcc/pic32mx/4.5.2/../../../../pic32mx/lib/libe.a(_strtof.o)
 .debug_line    0x0000952a       0x99 /opt/microchip/xc32/v1.21/bin/../lib/gcc/pic32mx/4.5.2/../../../../pic32mx/lib/libe.a(_ldexp.o)
 .debug_line    0x000095c3       0x99 /opt/microchip/xc32/v1.21/bin/../lib/gcc/pic32mx/4.5.2/../../../../pic32mx/lib/libe.a(_ldexpf.o)
 .debug_line    0x0000965c       0xb8 /opt/microchip/xc32/v1.21/bin/../lib/gcc/pic32mx/4.5.2/libgcc.a(_lshrdi3.o)
 .debug_line    0x00009714       0xba /opt/microchip/xc32/v1.21/bin/../lib/gcc/pic32mx/4.5.2/libgcc.a(_ashldi3.o)
 .debug_line    0x000097ce       0xc3 /opt/microchip/xc32/v1.21/bin/../lib/gcc/pic32mx/4.5.2/libgcc.a(_floatundisf.o)
 .debug_line    0x00009891      0x119 /opt/microchip/xc32/v1.21/bin/../lib/gcc/pic32mx/4.5.2/libgcc.a(_umoddi3.o)
 .debug_line    0x000099aa       0x6d /opt/microchip/xc32/v1.21/bin/../lib/gcc/pic32mx/4.5.2/libgcc.a(floatunsisf.o)
 .debug_line    0x00009a17        0x0 /opt/microchip/xc32/v1.21/bin/../lib/gcc/pic32mx/4.5.2/../../../../pic32mx/lib/libpic32.a(errno.o)

.debug_frame    0x00000000     0x3c24
 *(.debug_frame)
 .debug_frame   0x00000000      0x210 build/debug/production/_ext/71113213/SD-SPI.o
 .debug_frame   0x00000210      0x7e8 build/debug/production/_ext/71113213/FSIO.o
 .debug_frame   0x000009f8      0x118 build/debug/production/_ext/2096855388/SClib.o
 .debug_frame   0x00000b10       0xf4 build/debug/production/_ext/2096855388/SCpic32.o
 .debug_frame   0x00000c04      0x314 build/debug/production/_ext/870548313/usb_device.o
 .debug_frame   0x00000f18       0xf0 build/debug/production/_ext/1379786196/usb_function_cdc.o
 .debug_frame   0x00001008       0xa4 build/debug/production/src/indala.o
 .debug_frame   0x000010ac      0x148 build/debug/production/src/main.o
 .debug_frame   0x000011f4       0xd8 build/debug/production/src/psk.o
 .debug_frame   0x000012cc      0x65c build/debug/production/src/util.o
 .debug_frame   0x00001928       0x2c build/debug/production/src/emulate.o
 .debug_frame   0x00001954       0xd8 build/debug/production/src/ask.o
 .debug_frame   0x00001a2c       0xf4 build/debug/production/src/fsk.o
 .debug_frame   0x00001b20       0xa0 build/debug/production/src/clock.o
 .debug_frame   0x00001bc0       0x64 build/debug/production/src/rwd.o
 .debug_frame   0x00001c24       0x2c build/debug/production/src/detect.o
 .debug_frame   0x00001c50       0xbc build/debug/production/src/hitagcrypto.o
 .debug_frame   0x00001d0c      0x148 build/debug/production/src/wiegand.o
 .debug_frame   0x00001e54      0x168 build/debug/production/src/comms.o
 .debug_frame   0x00001fbc       0x9c build/debug/production/src/nvm.o
 .debug_frame   0x00002058       0xd4 build/debug/production/src/mcp414x.o
 .debug_frame   0x0000212c       0x9c build/debug/production/src/spi.o
 .debug_frame   0x000021c8       0xf0 build/debug/production/src/uart3.o
 .debug_frame   0x000022b8       0xf4 build/debug/production/src/tags.o
 .debug_frame   0x000023ac       0xa0 build/debug/production/src/unique.o
 .debug_frame   0x0000244c       0x9c build/debug/production/src/led.o
 .debug_frame   0x000024e8       0xbc build/debug/production/src/em.o
 .debug_frame   0x000025a4       0x80 build/debug/production/src/hid.o
 .debug_frame   0x00002624       0x2c build/debug/production/src/read.o
 .debug_frame   0x00002650       0xcc build/debug/production/src/isr.o
 .debug_frame   0x0000271c       0x48 build/debug/production/src/auto.o
 .debug_frame   0x00002764       0xa4 build/debug/production/src/fdxb.o
 .debug_frame   0x00002808      0x2cc build/debug/production/src/hitag.o
 .debug_frame   0x00002ad4       0x64 build/debug/production/src/uid.o
 .debug_frame   0x00002b38       0x2c build/debug/production/src/login.o
 .debug_frame   0x00002b64       0x2c build/debug/production/src/write.o
 .debug_frame   0x00002b90       0x2c build/debug/production/src/auth.o
 .debug_frame   0x00002bbc      0x160 build/debug/production/src/q5.o
 .debug_frame   0x00002d1c      0x11c build/debug/production/src/vtag.o
 .debug_frame   0x00002e38       0x64 build/debug/production/src/config.o
 .debug_frame   0x00002e9c       0x2c build/debug/production/src/select.o
 .debug_frame   0x00002ec8       0x30 build/debug/production/src/sdcard.o
 .debug_frame   0x00002ef8       0xb8 build/debug/production/src/debug_pins.o
 .debug_frame   0x00002fb0       0x88 build/debug/production/src/awid.o
 .debug_frame   0x00003038       0x88 build/debug/production/src/analogue.o
 .debug_frame   0x000030c0       0x28 /opt/microchip/xc32/v1.21/pic32mx/lib/libmchp_peripheral_32MX795F512L.a(soft_reset_lib.o)
 .debug_frame   0x000030e8       0x30 /opt/microchip/xc32/v1.21/pic32mx/lib/libmchp_peripheral_32MX795F512L.a(pcache.o)
 .debug_frame   0x00003118       0x20 /opt/microchip/xc32/v1.21/pic32mx/lib/libmchp_peripheral_32MX795F512L.a(int_configure_system_lib.o)
 .debug_frame   0x00003138       0x20 /opt/microchip/xc32/v1.21/pic32mx/lib/libmchp_peripheral_32MX795F512L.a(int_enable_interrupts_lib.o)
 .debug_frame   0x00003158       0x20 /opt/microchip/xc32/v1.21/pic32mx/lib/libmchp_peripheral_32MX795F512L.a(int_disable_interrupts_lib.o)
 .debug_frame   0x00003178       0x20 /opt/microchip/xc32/v1.21/pic32mx/lib/libmchp_peripheral_32MX795F512L.a(int_restore_interrupts_lib.o)
 .debug_frame   0x00003198       0x28 /opt/microchip/xc32/v1.21/pic32mx/lib/libmchp_peripheral_32MX795F512L.a(int_enable_mv_int_lib.o)
 .debug_frame   0x000031c0       0xa0 /opt/microchip/xc32/v1.21/pic32mx/lib/libmchp_peripheral_32MX795F512L.a(int_tbl_lib.o)
 .debug_frame   0x00003260       0x2c /opt/microchip/xc32/v1.21/pic32mx/lib/libmchp_peripheral_32MX795F512L.a(spi_chn_close_lib.o)
 .debug_frame   0x0000328c       0x38 /opt/microchip/xc32/v1.21/pic32mx/lib/libmchp_peripheral_32MX795F512L.a(spi_chn_open_lib.o)
 .debug_frame   0x000032c4       0x20 /opt/microchip/xc32/v1.21/pic32mx/lib/libmchp_peripheral_32MX795F512L.a(spi_getc_spi1_lib_legacy.o)
 .debug_frame   0x000032e4       0x20 /opt/microchip/xc32/v1.21/pic32mx/lib/libmchp_peripheral_32MX795F512L.a(spi_open_spi1_lib_legacy.o)
 .debug_frame   0x00003304       0x28 /opt/microchip/xc32/v1.21/pic32mx/lib/libmchp_peripheral_32MX795F512L.a(nvm_erase_page_lib.o)
 .debug_frame   0x0000332c       0x28 /opt/microchip/xc32/v1.21/pic32mx/lib/libmchp_peripheral_32MX795F512L.a(nvm_operation_lib.o)
 .debug_frame   0x00003354       0x38 /opt/microchip/xc32/v1.21/pic32mx/lib/libmchp_peripheral_32MX795F512L.a(nvm_program_lib.o)
 .debug_frame   0x0000338c       0x28 /opt/microchip/xc32/v1.21/pic32mx/lib/libmchp_peripheral_32MX795F512L.a(nvm_write_row_lib.o)
 .debug_frame   0x000033b4       0x20 /opt/microchip/xc32/v1.21/pic32mx/lib/libmchp_peripheral_32MX795F512L.a(port_reset_pins_lib.o)
 .debug_frame   0x000033d4       0x20 /opt/microchip/xc32/v1.21/pic32mx/lib/libmchp_peripheral_32MX795F512L.a(port_set_pins_digital_in_lib.o)
 .debug_frame   0x000033f4       0x20 /opt/microchip/xc32/v1.21/pic32mx/lib/libmchp_peripheral_32MX795F512L.a(port_set_pins_digital_out_lib.o)
 .debug_frame   0x00003414       0x20 /opt/microchip/xc32/v1.21/bin/../lib/gcc/pic32mx/4.5.2/libgcc.a(_udivdi3.o)
 .debug_frame   0x00003434       0x20 /opt/microchip/xc32/v1.21/bin/../lib/gcc/pic32mx/4.5.2/../../../../pic32mx/lib/libpic32.a(default-bootstrap-exception-handler.o)
 .debug_frame   0x00003454       0x20 /opt/microchip/xc32/v1.21/bin/../lib/gcc/pic32mx/4.5.2/../../../../pic32mx/lib/libpic32.a(default-on-reset.o)
 .debug_frame   0x00003474       0x20 /opt/microchip/xc32/v1.21/bin/../lib/gcc/pic32mx/4.5.2/../../../../pic32mx/lib/libpic32.a(default-on-bootstrap.o)
 .debug_frame   0x00003494       0x20 /opt/microchip/xc32/v1.21/bin/../lib/gcc/pic32mx/4.5.2/../../../../pic32mx/lib/libpic32.a(default-general-exception-handler.o)
 .debug_frame   0x000034b4       0x20 /opt/microchip/xc32/v1.21/bin/../lib/gcc/pic32mx/4.5.2/../../../../pic32mx/lib/libpic32.a(defaultinterrupt.o)
 .debug_frame   0x000034d4      0x120 /opt/microchip/xc32/v1.21/bin/../lib/gcc/pic32mx/4.5.2/../../../../pic32mx/lib/libc.a(ctypef.o)
 .debug_frame   0x000035f4       0x30 /opt/microchip/xc32/v1.21/bin/../lib/gcc/pic32mx/4.5.2/../../../../pic32mx/lib/libc.a(rand.o)
 .debug_frame   0x00003624       0x20 /opt/microchip/xc32/v1.21/bin/../lib/gcc/pic32mx/4.5.2/../../../../pic32mx/lib/libc.a(strncmp.o)
 .debug_frame   0x00003644       0x20 /opt/microchip/xc32/v1.21/bin/../lib/gcc/pic32mx/4.5.2/../../../../pic32mx/lib/libc.a(strncpy.o)
 .debug_frame   0x00003664       0x2c /opt/microchip/xc32/v1.21/bin/../lib/gcc/pic32mx/4.5.2/../../../../pic32mx/lib/libc.a(sprintf_cdnopuxX.eo)
 .debug_frame   0x00003690       0x2c /opt/microchip/xc32/v1.21/bin/../lib/gcc/pic32mx/4.5.2/../../../../pic32mx/lib/libc.a(sprintf.o)
 .debug_frame   0x000036bc       0x28 /opt/microchip/xc32/v1.21/bin/../lib/gcc/pic32mx/4.5.2/../../../../pic32mx/lib/libc.a(sscanf_cdfFnopsuxX.eo)
 .debug_frame   0x000036e4       0x38 /opt/microchip/xc32/v1.21/bin/../lib/gcc/pic32mx/4.5.2/../../../../pic32mx/lib/libc.a(doprnt_cdnopuxX.eo)
 .debug_frame   0x0000371c       0x74 /opt/microchip/xc32/v1.21/bin/../lib/gcc/pic32mx/4.5.2/../../../../pic32mx/lib/libc.a(doprnt.o)
 .debug_frame   0x00003790       0x74 /opt/microchip/xc32/v1.21/bin/../lib/gcc/pic32mx/4.5.2/../../../../pic32mx/lib/libc.a(doscan_cdfFnopsuxX.eo)
 .debug_frame   0x00003804       0x74 /opt/microchip/xc32/v1.21/bin/../lib/gcc/pic32mx/4.5.2/../../../../pic32mx/lib/libc.a(doscan_cdnopuxX.eo)
 .debug_frame   0x00003878       0x30 /opt/microchip/xc32/v1.21/bin/../lib/gcc/pic32mx/4.5.2/../../../../pic32mx/lib/libc.a(fgetc.o)
 .debug_frame   0x000038a8       0x2c /opt/microchip/xc32/v1.21/bin/../lib/gcc/pic32mx/4.5.2/../../../../pic32mx/lib/libc.a(_fputc_simple.o)
 .debug_frame   0x000038d4       0x20 /opt/microchip/xc32/v1.21/bin/../lib/gcc/pic32mx/4.5.2/../../../../pic32mx/lib/libc.a(atoi.o)
 .debug_frame   0x000038f4       0x40 /opt/microchip/xc32/v1.21/bin/../lib/gcc/pic32mx/4.5.2/../../../../pic32mx/lib/libc.a(strtod.o)
 .debug_frame   0x00003934       0x40 /opt/microchip/xc32/v1.21/bin/../lib/gcc/pic32mx/4.5.2/../../../../pic32mx/lib/libc.a(strtof.o)
 .debug_frame   0x00003974       0x20 /opt/microchip/xc32/v1.21/bin/../lib/gcc/pic32mx/4.5.2/../../../../pic32mx/lib/libc.a(ungetc.o)
 .debug_frame   0x00003994       0x30 /opt/microchip/xc32/v1.21/bin/../lib/gcc/pic32mx/4.5.2/../../../../pic32mx/lib/libc.a(filbuf.o)
 .debug_frame   0x000039c4       0x28 /opt/microchip/xc32/v1.21/bin/../lib/gcc/pic32mx/4.5.2/../../../../pic32mx/lib/libc.a(_flsbuf_simple.o)
 .debug_frame   0x000039ec       0x2c /opt/microchip/xc32/v1.21/bin/../lib/gcc/pic32mx/4.5.2/../../../../pic32mx/lib/libc.a(fflush.o)
 .debug_frame   0x00003a18       0x2c /opt/microchip/xc32/v1.21/bin/../lib/gcc/pic32mx/4.5.2/../../../../pic32mx/lib/libpic32.a(read.o)
 .debug_frame   0x00003a44       0x28 /opt/microchip/xc32/v1.21/bin/../lib/gcc/pic32mx/4.5.2/../../../../pic32mx/lib/libpic32.a(write.o)
 .debug_frame   0x00003a6c       0x20 /opt/microchip/xc32/v1.21/bin/../lib/gcc/pic32mx/4.5.2/../../../../pic32mx/lib/libpic32.a(_mon_putc.o)
 .debug_frame   0x00003a8c       0x20 /opt/microchip/xc32/v1.21/bin/../lib/gcc/pic32mx/4.5.2/../../../../pic32mx/lib/libe.a(_floatdisf.o)
 .debug_frame   0x00003aac       0x38 /opt/microchip/xc32/v1.21/bin/../lib/gcc/pic32mx/4.5.2/../../../../pic32mx/lib/libe.a(_strtod.o)
 .debug_frame   0x00003ae4       0x38 /opt/microchip/xc32/v1.21/bin/../lib/gcc/pic32mx/4.5.2/../../../../pic32mx/lib/libe.a(_strtof.o)
 .debug_frame   0x00003b1c       0x34 /opt/microchip/xc32/v1.21/bin/../lib/gcc/pic32mx/4.5.2/../../../../pic32mx/lib/libe.a(_ldexp.o)
 .debug_frame   0x00003b50       0x20 /opt/microchip/xc32/v1.21/bin/../lib/gcc/pic32mx/4.5.2/../../../../pic32mx/lib/libe.a(_ldexpf.o)
 .debug_frame   0x00003b70       0x20 /opt/microchip/xc32/v1.21/bin/../lib/gcc/pic32mx/4.5.2/libgcc.a(_lshrdi3.o)
 .debug_frame   0x00003b90       0x20 /opt/microchip/xc32/v1.21/bin/../lib/gcc/pic32mx/4.5.2/libgcc.a(_ashldi3.o)
 .debug_frame   0x00003bb0       0x2c /opt/microchip/xc32/v1.21/bin/../lib/gcc/pic32mx/4.5.2/libgcc.a(_floatundisf.o)
 .debug_frame   0x00003bdc       0x20 /opt/microchip/xc32/v1.21/bin/../lib/gcc/pic32mx/4.5.2/libgcc.a(_umoddi3.o)
 .debug_frame   0x00003bfc       0x28 /opt/microchip/xc32/v1.21/bin/../lib/gcc/pic32mx/4.5.2/libgcc.a(floatunsisf.o)

.debug_str      0x00000000     0x506c
 *(.debug_str)
 .debug_str     0x00000000      0x26c build/debug/production/_ext/71113213/SD-SPI.o
 .debug_str     0x0000026c      0x69b build/debug/production/_ext/71113213/FSIO.o
 .debug_str     0x00000907      0x231 build/debug/production/_ext/2096855388/SClib.o
 .debug_str     0x00000b38      0x210 build/debug/production/_ext/2096855388/SCpic32.o
 .debug_str     0x00000d48      0x3a6 build/debug/production/_ext/870548313/usb_device.o
 .debug_str     0x000010ee      0x204 build/debug/production/_ext/1379786196/usb_function_cdc.o
 .debug_str     0x000012f2      0x14f build/debug/production/src/indala.o
 .debug_str     0x00001441      0x455 build/debug/production/src/main.o
 .debug_str     0x00001896      0x226 build/debug/production/src/psk.o
 .debug_str     0x00001abc      0x159 build/debug/production/src/usb_descriptors.o
 .debug_str     0x00001c15      0x192 build/debug/production/src/util.o
 .debug_str     0x00001da7      0x13d build/debug/production/src/emulate.o
 .debug_str     0x00001ee4      0x201 build/debug/production/src/ask.o
 .debug_str     0x000020e5      0x209 build/debug/production/src/fsk.o
 .debug_str     0x000022ee      0x1b2 build/debug/production/src/clock.o
 .debug_str     0x000024a0      0x1d2 build/debug/production/src/rwd.o
 .debug_str     0x00002672      0x14b build/debug/production/src/detect.o
 .debug_str     0x000027bd      0x144 build/debug/production/src/hitagcrypto.o
 .debug_str     0x00002901      0x1a5 build/debug/production/src/wiegand.o
 .debug_str     0x00002aa6      0x18f build/debug/production/src/comms.o
 .debug_str     0x00002c35      0x179 build/debug/production/src/nvm.o
 .debug_str     0x00002dae      0x143 build/debug/production/src/mcp414x.o
 .debug_str     0x00002ef1      0x14f build/debug/production/src/spi.o
 .debug_str     0x00003040      0x14d build/debug/production/src/uart3.o
 .debug_str     0x0000318d      0x169 build/debug/production/src/tags.o
 .debug_str     0x000032f6      0x13f build/debug/production/src/unique.o
 .debug_str     0x00003435      0x153 build/debug/production/src/led.o
 .debug_str     0x00003588      0x138 build/debug/production/src/em.o
 .debug_str     0x000036c0      0x138 build/debug/production/src/hid.o
 .debug_str     0x000037f8      0x13d build/debug/production/src/read.o
 .debug_str     0x00003935      0x2d2 build/debug/production/src/isr.o
 .debug_str     0x00003c07      0x167 build/debug/production/src/auto.o
 .debug_str     0x00003d6e      0x138 build/debug/production/src/fdxb.o
 .debug_str     0x00003ea6      0x1ab build/debug/production/src/hitag.o
 .debug_str     0x00004051      0x146 build/debug/production/src/uid.o
 .debug_str     0x00004197      0x13d build/debug/production/src/login.o
 .debug_str     0x000042d4      0x13d build/debug/production/src/write.o
 .debug_str     0x00004411      0x13d build/debug/production/src/auth.o
 .debug_str     0x0000454e      0x191 build/debug/production/src/q5.o
 .debug_str     0x000046df      0x1d3 build/debug/production/src/vtag.o
 .debug_str     0x000048b2      0x12f build/debug/production/src/config.o
 .debug_str     0x000049e1      0x13d build/debug/production/src/select.o
 .debug_str     0x00004b1e      0x13a build/debug/production/src/sdcard.o
 .debug_str     0x00004c58      0x141 build/debug/production/src/debug_pins.o
 .debug_str     0x00004d99      0x13f build/debug/production/src/awid.o
 .debug_str     0x00004ed8      0x182 build/debug/production/src/analogue.o
 .debug_str     0x0000505a        0x0 /opt/microchip/xc32/v1.21/pic32mx/lib/libmchp_peripheral_32MX795F512L.a(soft_reset_lib.o)
 .debug_str     0x0000505a        0x0 /opt/microchip/xc32/v1.21/pic32mx/lib/libmchp_peripheral_32MX795F512L.a(pcache.o)
 .debug_str     0x0000505a        0x0 /opt/microchip/xc32/v1.21/pic32mx/lib/libmchp_peripheral_32MX795F512L.a(int_configure_system_lib.o)
 .debug_str     0x0000505a        0x0 /opt/microchip/xc32/v1.21/pic32mx/lib/libmchp_peripheral_32MX795F512L.a(int_enable_interrupts_lib.o)
 .debug_str     0x0000505a        0x0 /opt/microchip/xc32/v1.21/pic32mx/lib/libmchp_peripheral_32MX795F512L.a(int_disable_interrupts_lib.o)
 .debug_str     0x0000505a        0x0 /opt/microchip/xc32/v1.21/pic32mx/lib/libmchp_peripheral_32MX795F512L.a(int_restore_interrupts_lib.o)
 .debug_str     0x0000505a        0x0 /opt/microchip/xc32/v1.21/pic32mx/lib/libmchp_peripheral_32MX795F512L.a(int_enable_mv_int_lib.o)
 .debug_str     0x0000505a        0x0 /opt/microchip/xc32/v1.21/pic32mx/lib/libmchp_peripheral_32MX795F512L.a(int_tbl_lib.o)
 .debug_str     0x0000505a        0x0 /opt/microchip/xc32/v1.21/pic32mx/lib/libmchp_peripheral_32MX795F512L.a(spi_chn_close_lib.o)
 .debug_str     0x0000505a        0x0 /opt/microchip/xc32/v1.21/pic32mx/lib/libmchp_peripheral_32MX795F512L.a(spi_chn_open_lib.o)
 .debug_str     0x0000505a        0x0 /opt/microchip/xc32/v1.21/pic32mx/lib/libmchp_peripheral_32MX795F512L.a(spi_io_tbl_libp.o)
 .debug_str     0x0000505a        0x0 /opt/microchip/xc32/v1.21/pic32mx/lib/libmchp_peripheral_32MX795F512L.a(spi_map_tbl_libp.o)
 .debug_str     0x0000505a        0x0 /opt/microchip/xc32/v1.21/pic32mx/lib/libmchp_peripheral_32MX795F512L.a(spi_getc_spi1_lib_legacy.o)
 .debug_str     0x0000505a        0x0 /opt/microchip/xc32/v1.21/pic32mx/lib/libmchp_peripheral_32MX795F512L.a(spi_open_spi1_lib_legacy.o)
 .debug_str     0x0000505a        0x0 /opt/microchip/xc32/v1.21/pic32mx/lib/libmchp_peripheral_32MX795F512L.a(spi_brg_tbl_lib_legacy.o)
 .debug_str     0x0000505a        0x0 /opt/microchip/xc32/v1.21/pic32mx/lib/libmchp_peripheral_32MX795F512L.a(nvm_erase_page_lib.o)
 .debug_str     0x0000505a        0x0 /opt/microchip/xc32/v1.21/pic32mx/lib/libmchp_peripheral_32MX795F512L.a(nvm_operation_lib.o)
 .debug_str     0x0000505a        0x0 /opt/microchip/xc32/v1.21/pic32mx/lib/libmchp_peripheral_32MX795F512L.a(nvm_program_lib.o)
 .debug_str     0x0000505a        0x0 /opt/microchip/xc32/v1.21/pic32mx/lib/libmchp_peripheral_32MX795F512L.a(nvm_write_row_lib.o)
 .debug_str     0x0000505a        0x0 /opt/microchip/xc32/v1.21/pic32mx/lib/libmchp_peripheral_32MX795F512L.a(port_reset_pins_lib.o)
 .debug_str     0x0000505a        0x0 /opt/microchip/xc32/v1.21/pic32mx/lib/libmchp_peripheral_32MX795F512L.a(port_set_pins_digital_in_lib.o)
 .debug_str     0x0000505a        0x0 /opt/microchip/xc32/v1.21/pic32mx/lib/libmchp_peripheral_32MX795F512L.a(port_set_pins_digital_out_lib.o)
 .debug_str     0x0000505a        0x0 /opt/microchip/xc32/v1.21/pic32mx/lib/libmchp_peripheral_32MX795F512L.a(_ports_tbl_libp.o)
 .debug_str     0x0000505a        0x0 /opt/microchip/xc32/v1.21/bin/../lib/gcc/pic32mx/4.5.2/libgcc.a(_udivdi3.o)
 .debug_str     0x0000505a        0x0 /opt/microchip/xc32/v1.21/bin/../lib/gcc/pic32mx/4.5.2/../../../../pic32mx/lib/libpic32.a(default-bootstrap-exception-handler.o)
 .debug_str     0x0000505a        0x0 /opt/microchip/xc32/v1.21/bin/../lib/gcc/pic32mx/4.5.2/../../../../pic32mx/lib/libpic32.a(default-on-reset.o)
 .debug_str     0x0000505a        0x0 /opt/microchip/xc32/v1.21/bin/../lib/gcc/pic32mx/4.5.2/../../../../pic32mx/lib/libpic32.a(default-on-bootstrap.o)
 .debug_str     0x0000505a        0x0 /opt/microchip/xc32/v1.21/bin/../lib/gcc/pic32mx/4.5.2/../../../../pic32mx/lib/libpic32.a(default-general-exception-handler.o)
 .debug_str     0x0000505a        0x0 /opt/microchip/xc32/v1.21/bin/../lib/gcc/pic32mx/4.5.2/../../../../pic32mx/lib/libpic32.a(defaultinterrupt.o)
 .debug_str     0x0000505a        0x0 /opt/microchip/xc32/v1.21/bin/../lib/gcc/pic32mx/4.5.2/../../../../pic32mx/lib/libc.a(ctypef.o)
 .debug_str     0x0000505a        0x0 /opt/microchip/xc32/v1.21/bin/../lib/gcc/pic32mx/4.5.2/../../../../pic32mx/lib/libc.a(rand.o)
 .debug_str     0x0000505a        0x0 /opt/microchip/xc32/v1.21/bin/../lib/gcc/pic32mx/4.5.2/../../../../pic32mx/lib/libc.a(strncmp.o)
 .debug_str     0x0000505a        0x0 /opt/microchip/xc32/v1.21/bin/../lib/gcc/pic32mx/4.5.2/../../../../pic32mx/lib/libc.a(strncpy.o)
 .debug_str     0x0000505a        0x0 /opt/microchip/xc32/v1.21/bin/../lib/gcc/pic32mx/4.5.2/../../../../pic32mx/lib/libc.a(sprintf_cdnopuxX.eo)
 .debug_str     0x0000505a        0x0 /opt/microchip/xc32/v1.21/bin/../lib/gcc/pic32mx/4.5.2/../../../../pic32mx/lib/libc.a(sprintf.o)
 .debug_str     0x0000505a        0x0 /opt/microchip/xc32/v1.21/bin/../lib/gcc/pic32mx/4.5.2/../../../../pic32mx/lib/libc.a(sscanf_cdfFnopsuxX.eo)
 .debug_str     0x0000505a        0x0 /opt/microchip/xc32/v1.21/bin/../lib/gcc/pic32mx/4.5.2/../../../../pic32mx/lib/libc.a(ctype.o)
 .debug_str     0x0000505a        0x0 /opt/microchip/xc32/v1.21/bin/../lib/gcc/pic32mx/4.5.2/../../../../pic32mx/lib/libc.a(doprnt_cdnopuxX.eo)
 .debug_str     0x0000505a        0x0 /opt/microchip/xc32/v1.21/bin/../lib/gcc/pic32mx/4.5.2/../../../../pic32mx/lib/libc.a(doprnt.o)
 .debug_str     0x0000505a        0x0 /opt/microchip/xc32/v1.21/bin/../lib/gcc/pic32mx/4.5.2/../../../../pic32mx/lib/libc.a(doscan_cdfFnopsuxX.eo)
 .debug_str     0x0000505a        0x0 /opt/microchip/xc32/v1.21/bin/../lib/gcc/pic32mx/4.5.2/../../../../pic32mx/lib/libc.a(doscan_cdnopuxX.eo)
 .debug_str     0x0000505a        0x0 /opt/microchip/xc32/v1.21/bin/../lib/gcc/pic32mx/4.5.2/../../../../pic32mx/lib/libc.a(fgetc.o)
 .debug_str     0x0000505a        0x0 /opt/microchip/xc32/v1.21/bin/../lib/gcc/pic32mx/4.5.2/../../../../pic32mx/lib/libc.a(_fputc_simple.o)
 .debug_str     0x0000505a        0x0 /opt/microchip/xc32/v1.21/bin/../lib/gcc/pic32mx/4.5.2/../../../../pic32mx/lib/libc.a(atoi.o)
 .debug_str     0x0000505a        0x0 /opt/microchip/xc32/v1.21/bin/../lib/gcc/pic32mx/4.5.2/../../../../pic32mx/lib/libc.a(powersf.o)
 .debug_str     0x0000505a        0x9 /opt/microchip/xc32/v1.21/bin/../lib/gcc/pic32mx/4.5.2/../../../../pic32mx/lib/libc.a(strtod.o)
 .debug_str     0x00005063        0x9 /opt/microchip/xc32/v1.21/bin/../lib/gcc/pic32mx/4.5.2/../../../../pic32mx/lib/libc.a(strtof.o)
 .debug_str     0x0000506c        0x0 /opt/microchip/xc32/v1.21/bin/../lib/gcc/pic32mx/4.5.2/../../../../pic32mx/lib/libc.a(ungetc.o)
 .debug_str     0x0000506c        0x0 /opt/microchip/xc32/v1.21/bin/../lib/gcc/pic32mx/4.5.2/../../../../pic32mx/lib/libc.a(_iob.o)
 .debug_str     0x0000506c        0x0 /opt/microchip/xc32/v1.21/bin/../lib/gcc/pic32mx/4.5.2/../../../../pic32mx/lib/libc.a(filbuf.o)
 .debug_str     0x0000506c        0x0 /opt/microchip/xc32/v1.21/bin/../lib/gcc/pic32mx/4.5.2/../../../../pic32mx/lib/libc.a(_flsbuf_simple.o)
 .debug_str     0x0000506c        0x0 /opt/microchip/xc32/v1.21/bin/../lib/gcc/pic32mx/4.5.2/../../../../pic32mx/lib/libc.a(fflush.o)
 .debug_str     0x0000506c        0x0 /opt/microchip/xc32/v1.21/bin/../lib/gcc/pic32mx/4.5.2/../../../../pic32mx/lib/libpic32.a(read.o)
 .debug_str     0x0000506c        0x0 /opt/microchip/xc32/v1.21/bin/../lib/gcc/pic32mx/4.5.2/../../../../pic32mx/lib/libpic32.a(write.o)
 .debug_str     0x0000506c        0x0 /opt/microchip/xc32/v1.21/bin/../lib/gcc/pic32mx/4.5.2/../../../../pic32mx/lib/libpic32.a(xc32_uart.o)
 .debug_str     0x0000506c        0x0 /opt/microchip/xc32/v1.21/bin/../lib/gcc/pic32mx/4.5.2/../../../../pic32mx/lib/libpic32.a(_mon_putc.o)
 .debug_str     0x0000506c        0x0 /opt/microchip/xc32/v1.21/bin/../lib/gcc/pic32mx/4.5.2/../../../../pic32mx/lib/libe.a(_floatdisf.o)
 .debug_str     0x0000506c        0x0 /opt/microchip/xc32/v1.21/bin/../lib/gcc/pic32mx/4.5.2/../../../../pic32mx/lib/libe.a(_strtod.o)
 .debug_str     0x0000506c        0x0 /opt/microchip/xc32/v1.21/bin/../lib/gcc/pic32mx/4.5.2/../../../../pic32mx/lib/libe.a(_strtof.o)
 .debug_str     0x0000506c        0x0 /opt/microchip/xc32/v1.21/bin/../lib/gcc/pic32mx/4.5.2/../../../../pic32mx/lib/libe.a(_ldexp.o)
 .debug_str     0x0000506c        0x0 /opt/microchip/xc32/v1.21/bin/../lib/gcc/pic32mx/4.5.2/../../../../pic32mx/lib/libe.a(_ldexpf.o)
 .debug_str     0x0000506c        0x0 /opt/microchip/xc32/v1.21/bin/../lib/gcc/pic32mx/4.5.2/libgcc.a(_lshrdi3.o)
 .debug_str     0x0000506c        0x0 /opt/microchip/xc32/v1.21/bin/../lib/gcc/pic32mx/4.5.2/libgcc.a(_ashldi3.o)
 .debug_str     0x0000506c        0x0 /opt/microchip/xc32/v1.21/bin/../lib/gcc/pic32mx/4.5.2/libgcc.a(_floatundisf.o)
 .debug_str     0x0000506c        0x0 /opt/microchip/xc32/v1.21/bin/../lib/gcc/pic32mx/4.5.2/libgcc.a(_umoddi3.o)
 .debug_str     0x0000506c        0x0 /opt/microchip/xc32/v1.21/bin/../lib/gcc/pic32mx/4.5.2/libgcc.a(floatunsisf.o)
 .debug_str     0x0000506c        0x0 /opt/microchip/xc32/v1.21/bin/../lib/gcc/pic32mx/4.5.2/../../../../pic32mx/lib/libpic32.a(errno.o)

.debug_loc      0x00000000     0x16a6
 *(.debug_loc)
 .debug_loc     0x00000000      0xa67 /opt/microchip/xc32/v1.21/bin/../lib/gcc/pic32mx/4.5.2/libgcc.a(_udivdi3.o)
 .debug_loc     0x00000a67       0x5f /opt/microchip/xc32/v1.21/bin/../lib/gcc/pic32mx/4.5.2/libgcc.a(_lshrdi3.o)
 .debug_loc     0x00000ac6       0x3c /opt/microchip/xc32/v1.21/bin/../lib/gcc/pic32mx/4.5.2/libgcc.a(_ashldi3.o)
 .debug_loc     0x00000b02       0xc9 /opt/microchip/xc32/v1.21/bin/../lib/gcc/pic32mx/4.5.2/libgcc.a(_floatundisf.o)
 .debug_loc     0x00000bcb      0xa73 /opt/microchip/xc32/v1.21/bin/../lib/gcc/pic32mx/4.5.2/libgcc.a(_umoddi3.o)
 .debug_loc     0x0000163e       0x68 /opt/microchip/xc32/v1.21/bin/../lib/gcc/pic32mx/4.5.2/libgcc.a(floatunsisf.o)

.debug_macinfo
 *(.debug_macinfo)

.debug_weaknames
 *(.debug_weaknames)

.debug_funcnames
 *(.debug_funcnames)

.debug_typenames
 *(.debug_typenames)

.debug_varnames
 *(.debug_varnames)

.debug_pubtypes
                0x00000000     0x3e6c
 *(.debug_pubtypes)
 .debug_pubtypes
                0x00000000      0x220 build/debug/production/_ext/71113213/SD-SPI.o
 .debug_pubtypes
                0x00000220      0x272 build/debug/production/_ext/71113213/FSIO.o
 .debug_pubtypes
                0x00000492      0x1aa build/debug/production/_ext/2096855388/SClib.o
 .debug_pubtypes
                0x0000063c      0x203 build/debug/production/_ext/2096855388/SCpic32.o
 .debug_pubtypes
                0x0000083f      0x2af build/debug/production/_ext/870548313/usb_device.o
 .debug_pubtypes
                0x00000aee      0x249 build/debug/production/_ext/1379786196/usb_function_cdc.o
 .debug_pubtypes
                0x00000d37      0x125 build/debug/production/src/indala.o
 .debug_pubtypes
                0x00000e5c      0x2be build/debug/production/src/main.o
 .debug_pubtypes
                0x0000111a      0x159 build/debug/production/src/psk.o
 .debug_pubtypes
                0x00001273      0x12e build/debug/production/src/usb_descriptors.o
 .debug_pubtypes
                0x000013a1      0x12f build/debug/production/src/util.o
 .debug_pubtypes
                0x000014d0      0x114 build/debug/production/src/emulate.o
 .debug_pubtypes
                0x000015e4      0x159 build/debug/production/src/ask.o
 .debug_pubtypes
                0x0000173d      0x159 build/debug/production/src/fsk.o
 .debug_pubtypes
                0x00001896      0x158 build/debug/production/src/clock.o
 .debug_pubtypes
                0x000019ee      0x125 build/debug/production/src/rwd.o
 .debug_pubtypes
                0x00001b13      0x124 build/debug/production/src/detect.o
 .debug_pubtypes
                0x00001c37      0x123 build/debug/production/src/hitagcrypto.o
 .debug_pubtypes
                0x00001d5a      0x17d build/debug/production/src/wiegand.o
 .debug_pubtypes
                0x00001ed7      0x13c build/debug/production/src/comms.o
 .debug_pubtypes
                0x00002013      0x123 build/debug/production/src/nvm.o
 .debug_pubtypes
                0x00002136       0xfa build/debug/production/src/mcp414x.o
 .debug_pubtypes
                0x00002230      0x105 build/debug/production/src/spi.o
 .debug_pubtypes
                0x00002335      0x11d build/debug/production/src/uart3.o
 .debug_pubtypes
                0x00002452      0x114 build/debug/production/src/tags.o
 .debug_pubtypes
                0x00002566      0x103 build/debug/production/src/unique.o
 .debug_pubtypes
                0x00002669      0x147 build/debug/production/src/led.o
 .debug_pubtypes
                0x000027b0      0x103 build/debug/production/src/em.o
 .debug_pubtypes
                0x000028b3      0x103 build/debug/production/src/hid.o
 .debug_pubtypes
                0x000029b6      0x114 build/debug/production/src/read.o
 .debug_pubtypes
                0x00002aca      0x159 build/debug/production/src/isr.o
 .debug_pubtypes
                0x00002c23      0x123 build/debug/production/src/auto.o
 .debug_pubtypes
                0x00002d46      0x103 build/debug/production/src/fdxb.o
 .debug_pubtypes
                0x00002e49      0x133 build/debug/production/src/hitag.o
 .debug_pubtypes
                0x00002f7c      0x114 build/debug/production/src/uid.o
 .debug_pubtypes
                0x00003090      0x114 build/debug/production/src/login.o
 .debug_pubtypes
                0x000031a4      0x114 build/debug/production/src/write.o
 .debug_pubtypes
                0x000032b8      0x114 build/debug/production/src/auth.o
 .debug_pubtypes
                0x000033cc      0x126 build/debug/production/src/q5.o
 .debug_pubtypes
                0x000034f2      0x123 build/debug/production/src/vtag.o
 .debug_pubtypes
                0x00003615      0x103 build/debug/production/src/config.o
 .debug_pubtypes
                0x00003718      0x114 build/debug/production/src/select.o
 .debug_pubtypes
                0x0000382c      0x108 build/debug/production/src/sdcard.o
 .debug_pubtypes
                0x00003934      0x125 build/debug/production/src/debug_pins.o
 .debug_pubtypes
                0x00003a59      0x103 build/debug/production/src/awid.o
 .debug_pubtypes
                0x00003b5c      0x126 build/debug/production/src/analogue.o
 .debug_pubtypes
                0x00003c82       0x59 /opt/microchip/xc32/v1.21/bin/../lib/gcc/pic32mx/4.5.2/libgcc.a(_udivdi3.o)
 .debug_pubtypes
                0x00003cdb       0x62 /opt/microchip/xc32/v1.21/bin/../lib/gcc/pic32mx/4.5.2/libgcc.a(_lshrdi3.o)
 .debug_pubtypes
                0x00003d3d       0x62 /opt/microchip/xc32/v1.21/bin/../lib/gcc/pic32mx/4.5.2/libgcc.a(_ashldi3.o)
 .debug_pubtypes
                0x00003d9f       0x40 /opt/microchip/xc32/v1.21/bin/../lib/gcc/pic32mx/4.5.2/libgcc.a(_floatundisf.o)
 .debug_pubtypes
                0x00003ddf       0x59 /opt/microchip/xc32/v1.21/bin/../lib/gcc/pic32mx/4.5.2/libgcc.a(_umoddi3.o)
 .debug_pubtypes
                0x00003e38       0x34 /opt/microchip/xc32/v1.21/bin/../lib/gcc/pic32mx/4.5.2/libgcc.a(floatunsisf.o)

.debug_ranges   0x00000000      0x6d8
 *(.debug_ranges)
 .debug_ranges  0x00000000       0x18 build/debug/production/_ext/870548313/usb_device.o
 .debug_ranges  0x00000018       0xd0 build/debug/production/src/main.o
 .debug_ranges  0x000000e8       0x18 build/debug/production/src/auto.o
 .debug_ranges  0x00000100       0x10 /opt/microchip/xc32/v1.21/pic32mx/lib/libmchp_peripheral_32MX795F512L.a(soft_reset_lib.o)
 .debug_ranges  0x00000110       0x18 /opt/microchip/xc32/v1.21/pic32mx/lib/libmchp_peripheral_32MX795F512L.a(pcache.o)
 .debug_ranges  0x00000128       0x10 /opt/microchip/xc32/v1.21/pic32mx/lib/libmchp_peripheral_32MX795F512L.a(int_configure_system_lib.o)
 .debug_ranges  0x00000138       0x10 /opt/microchip/xc32/v1.21/pic32mx/lib/libmchp_peripheral_32MX795F512L.a(int_enable_interrupts_lib.o)
 .debug_ranges  0x00000148       0x10 /opt/microchip/xc32/v1.21/pic32mx/lib/libmchp_peripheral_32MX795F512L.a(int_disable_interrupts_lib.o)
 .debug_ranges  0x00000158       0x10 /opt/microchip/xc32/v1.21/pic32mx/lib/libmchp_peripheral_32MX795F512L.a(int_restore_interrupts_lib.o)
 .debug_ranges  0x00000168       0x10 /opt/microchip/xc32/v1.21/pic32mx/lib/libmchp_peripheral_32MX795F512L.a(int_enable_mv_int_lib.o)
 .debug_ranges  0x00000178       0x50 /opt/microchip/xc32/v1.21/pic32mx/lib/libmchp_peripheral_32MX795F512L.a(int_tbl_lib.o)
 .debug_ranges  0x000001c8       0x10 /opt/microchip/xc32/v1.21/pic32mx/lib/libmchp_peripheral_32MX795F512L.a(spi_chn_close_lib.o)
 .debug_ranges  0x000001d8       0x10 /opt/microchip/xc32/v1.21/pic32mx/lib/libmchp_peripheral_32MX795F512L.a(spi_chn_open_lib.o)
 .debug_ranges  0x000001e8       0x10 /opt/microchip/xc32/v1.21/pic32mx/lib/libmchp_peripheral_32MX795F512L.a(spi_getc_spi1_lib_legacy.o)
 .debug_ranges  0x000001f8       0x10 /opt/microchip/xc32/v1.21/pic32mx/lib/libmchp_peripheral_32MX795F512L.a(spi_open_spi1_lib_legacy.o)
 .debug_ranges  0x00000208       0x10 /opt/microchip/xc32/v1.21/pic32mx/lib/libmchp_peripheral_32MX795F512L.a(nvm_erase_page_lib.o)
 .debug_ranges  0x00000218       0x10 /opt/microchip/xc32/v1.21/pic32mx/lib/libmchp_peripheral_32MX795F512L.a(nvm_operation_lib.o)
 .debug_ranges  0x00000228       0x10 /opt/microchip/xc32/v1.21/pic32mx/lib/libmchp_peripheral_32MX795F512L.a(nvm_program_lib.o)
 .debug_ranges  0x00000238       0x10 /opt/microchip/xc32/v1.21/pic32mx/lib/libmchp_peripheral_32MX795F512L.a(nvm_write_row_lib.o)
 .debug_ranges  0x00000248       0x10 /opt/microchip/xc32/v1.21/pic32mx/lib/libmchp_peripheral_32MX795F512L.a(port_reset_pins_lib.o)
 .debug_ranges  0x00000258       0x10 /opt/microchip/xc32/v1.21/pic32mx/lib/libmchp_peripheral_32MX795F512L.a(port_set_pins_digital_in_lib.o)
 .debug_ranges  0x00000268       0x10 /opt/microchip/xc32/v1.21/pic32mx/lib/libmchp_peripheral_32MX795F512L.a(port_set_pins_digital_out_lib.o)
 .debug_ranges  0x00000278       0xc0 /opt/microchip/xc32/v1.21/bin/../lib/gcc/pic32mx/4.5.2/libgcc.a(_udivdi3.o)
 .debug_ranges  0x00000338       0x10 /opt/microchip/xc32/v1.21/bin/../lib/gcc/pic32mx/4.5.2/../../../../pic32mx/lib/libpic32.a(default-bootstrap-exception-handler.o)
 .debug_ranges  0x00000348       0x10 /opt/microchip/xc32/v1.21/bin/../lib/gcc/pic32mx/4.5.2/../../../../pic32mx/lib/libpic32.a(default-on-reset.o)
 .debug_ranges  0x00000358       0x10 /opt/microchip/xc32/v1.21/bin/../lib/gcc/pic32mx/4.5.2/../../../../pic32mx/lib/libpic32.a(default-on-bootstrap.o)
 .debug_ranges  0x00000368       0x10 /opt/microchip/xc32/v1.21/bin/../lib/gcc/pic32mx/4.5.2/../../../../pic32mx/lib/libpic32.a(default-general-exception-handler.o)
 .debug_ranges  0x00000378       0x10 /opt/microchip/xc32/v1.21/bin/../lib/gcc/pic32mx/4.5.2/../../../../pic32mx/lib/libpic32.a(defaultinterrupt.o)
 .debug_ranges  0x00000388       0x90 /opt/microchip/xc32/v1.21/bin/../lib/gcc/pic32mx/4.5.2/../../../../pic32mx/lib/libc.a(ctypef.o)
 .debug_ranges  0x00000418       0x18 /opt/microchip/xc32/v1.21/bin/../lib/gcc/pic32mx/4.5.2/../../../../pic32mx/lib/libc.a(rand.o)
 .debug_ranges  0x00000430       0x10 /opt/microchip/xc32/v1.21/bin/../lib/gcc/pic32mx/4.5.2/../../../../pic32mx/lib/libc.a(strncmp.o)
 .debug_ranges  0x00000440       0x10 /opt/microchip/xc32/v1.21/bin/../lib/gcc/pic32mx/4.5.2/../../../../pic32mx/lib/libc.a(strncpy.o)
 .debug_ranges  0x00000450       0x10 /opt/microchip/xc32/v1.21/bin/../lib/gcc/pic32mx/4.5.2/../../../../pic32mx/lib/libc.a(sprintf_cdnopuxX.eo)
 .debug_ranges  0x00000460       0x10 /opt/microchip/xc32/v1.21/bin/../lib/gcc/pic32mx/4.5.2/../../../../pic32mx/lib/libc.a(sprintf.o)
 .debug_ranges  0x00000470       0x10 /opt/microchip/xc32/v1.21/bin/../lib/gcc/pic32mx/4.5.2/../../../../pic32mx/lib/libc.a(sscanf_cdfFnopsuxX.eo)
 .debug_ranges  0x00000480       0x10 /opt/microchip/xc32/v1.21/bin/../lib/gcc/pic32mx/4.5.2/../../../../pic32mx/lib/libc.a(doprnt_cdnopuxX.eo)
 .debug_ranges  0x00000490       0x20 /opt/microchip/xc32/v1.21/bin/../lib/gcc/pic32mx/4.5.2/../../../../pic32mx/lib/libc.a(doprnt.o)
 .debug_ranges  0x000004b0       0x20 /opt/microchip/xc32/v1.21/bin/../lib/gcc/pic32mx/4.5.2/../../../../pic32mx/lib/libc.a(doscan_cdfFnopsuxX.eo)
 .debug_ranges  0x000004d0       0x20 /opt/microchip/xc32/v1.21/bin/../lib/gcc/pic32mx/4.5.2/../../../../pic32mx/lib/libc.a(doscan_cdnopuxX.eo)
 .debug_ranges  0x000004f0       0x10 /opt/microchip/xc32/v1.21/bin/../lib/gcc/pic32mx/4.5.2/../../../../pic32mx/lib/libc.a(fgetc.o)
 .debug_ranges  0x00000500       0x10 /opt/microchip/xc32/v1.21/bin/../lib/gcc/pic32mx/4.5.2/../../../../pic32mx/lib/libc.a(_fputc_simple.o)
 .debug_ranges  0x00000510       0x10 /opt/microchip/xc32/v1.21/bin/../lib/gcc/pic32mx/4.5.2/../../../../pic32mx/lib/libc.a(atoi.o)
 .debug_ranges  0x00000520       0x18 /opt/microchip/xc32/v1.21/bin/../lib/gcc/pic32mx/4.5.2/../../../../pic32mx/lib/libc.a(strtod.o)
 .debug_ranges  0x00000538       0x18 /opt/microchip/xc32/v1.21/bin/../lib/gcc/pic32mx/4.5.2/../../../../pic32mx/lib/libc.a(strtof.o)
 .debug_ranges  0x00000550       0x10 /opt/microchip/xc32/v1.21/bin/../lib/gcc/pic32mx/4.5.2/../../../../pic32mx/lib/libc.a(ungetc.o)
 .debug_ranges  0x00000560       0x10 /opt/microchip/xc32/v1.21/bin/../lib/gcc/pic32mx/4.5.2/../../../../pic32mx/lib/libc.a(filbuf.o)
 .debug_ranges  0x00000570       0x10 /opt/microchip/xc32/v1.21/bin/../lib/gcc/pic32mx/4.5.2/../../../../pic32mx/lib/libc.a(_flsbuf_simple.o)
 .debug_ranges  0x00000580       0x10 /opt/microchip/xc32/v1.21/bin/../lib/gcc/pic32mx/4.5.2/../../../../pic32mx/lib/libc.a(fflush.o)
 .debug_ranges  0x00000590       0x10 /opt/microchip/xc32/v1.21/bin/../lib/gcc/pic32mx/4.5.2/../../../../pic32mx/lib/libpic32.a(read.o)
 .debug_ranges  0x000005a0       0x10 /opt/microchip/xc32/v1.21/bin/../lib/gcc/pic32mx/4.5.2/../../../../pic32mx/lib/libpic32.a(write.o)
 .debug_ranges  0x000005b0       0x10 /opt/microchip/xc32/v1.21/bin/../lib/gcc/pic32mx/4.5.2/../../../../pic32mx/lib/libpic32.a(_mon_putc.o)
 .debug_ranges  0x000005c0       0x10 /opt/microchip/xc32/v1.21/bin/../lib/gcc/pic32mx/4.5.2/../../../../pic32mx/lib/libe.a(_floatdisf.o)
 .debug_ranges  0x000005d0       0x10 /opt/microchip/xc32/v1.21/bin/../lib/gcc/pic32mx/4.5.2/../../../../pic32mx/lib/libe.a(_strtod.o)
 .debug_ranges  0x000005e0       0x10 /opt/microchip/xc32/v1.21/bin/../lib/gcc/pic32mx/4.5.2/../../../../pic32mx/lib/libe.a(_strtof.o)
 .debug_ranges  0x000005f0       0x10 /opt/microchip/xc32/v1.21/bin/../lib/gcc/pic32mx/4.5.2/../../../../pic32mx/lib/libe.a(_ldexp.o)
 .debug_ranges  0x00000600       0x10 /opt/microchip/xc32/v1.21/bin/../lib/gcc/pic32mx/4.5.2/../../../../pic32mx/lib/libe.a(_ldexpf.o)
 .debug_ranges  0x00000610       0xc8 /opt/microchip/xc32/v1.21/bin/../lib/gcc/pic32mx/4.5.2/libgcc.a(_umoddi3.o)

.gnu.attributes
                0x00000000       0x10
 *(.gnu.attributes)
 .gnu.attributes
                0x00000000       0x10 build/debug/production/_ext/71113213/SD-SPI.o
 .gnu.attributes
                0x00000010       0x10 build/debug/production/_ext/71113213/FSIO.o
 .gnu.attributes
                0x00000020       0x10 build/debug/production/_ext/2096855388/SClib.o
 .gnu.attributes
                0x00000030       0x10 build/debug/production/_ext/2096855388/SCpic32.o
 .gnu.attributes
                0x00000040       0x10 build/debug/production/_ext/870548313/usb_device.o
 .gnu.attributes
                0x00000050       0x10 build/debug/production/_ext/1379786196/usb_function_cdc.o
 .gnu.attributes
                0x00000060       0x10 build/debug/production/src/indala.o
 .gnu.attributes
                0x00000070       0x10 build/debug/production/src/main.o
 .gnu.attributes
                0x00000080       0x10 build/debug/production/src/psk.o
 .gnu.attributes
                0x00000090       0x10 build/debug/production/src/usb_descriptors.o
 .gnu.attributes
                0x000000a0       0x10 build/debug/production/src/util.o
 .gnu.attributes
                0x000000b0       0x10 build/debug/production/src/emulate.o
 .gnu.attributes
                0x000000c0       0x10 build/debug/production/src/ask.o
 .gnu.attributes
                0x000000d0       0x10 build/debug/production/src/fsk.o
 .gnu.attributes
                0x000000e0       0x10 build/debug/production/src/clock.o
 .gnu.attributes
                0x000000f0       0x10 build/debug/production/src/rwd.o
 .gnu.attributes
                0x00000100       0x10 build/debug/production/src/detect.o
 .gnu.attributes
                0x00000110       0x10 build/debug/production/src/hitagcrypto.o
 .gnu.attributes
                0x00000120       0x10 build/debug/production/src/wiegand.o
 .gnu.attributes
                0x00000130       0x10 build/debug/production/src/comms.o
 .gnu.attributes
                0x00000140       0x10 build/debug/production/src/nvm.o
 .gnu.attributes
                0x00000150       0x10 build/debug/production/src/mcp414x.o
 .gnu.attributes
                0x00000160       0x10 build/debug/production/src/spi.o
 .gnu.attributes
                0x00000170       0x10 build/debug/production/src/uart3.o
 .gnu.attributes
                0x00000180       0x10 build/debug/production/src/tags.o
 .gnu.attributes
                0x00000190       0x10 build/debug/production/src/unique.o
 .gnu.attributes
                0x000001a0       0x10 build/debug/production/src/led.o
 .gnu.attributes
                0x000001b0       0x10 build/debug/production/src/em.o
 .gnu.attributes
                0x000001c0       0x10 build/debug/production/src/hid.o
 .gnu.attributes
                0x000001d0       0x10 build/debug/production/src/read.o
 .gnu.attributes
                0x000001e0       0x10 build/debug/production/src/isr.o
 .gnu.attributes
                0x000001f0       0x10 build/debug/production/src/auto.o
 .gnu.attributes
                0x00000200       0x10 build/debug/production/src/fdxb.o
 .gnu.attributes
                0x00000210       0x10 build/debug/production/src/hitag.o
 .gnu.attributes
                0x00000220       0x10 build/debug/production/src/uid.o
 .gnu.attributes
                0x00000230       0x10 build/debug/production/src/login.o
 .gnu.attributes
                0x00000240       0x10 build/debug/production/src/write.o
 .gnu.attributes
                0x00000250       0x10 build/debug/production/src/auth.o
 .gnu.attributes
                0x00000260       0x10 build/debug/production/src/q5.o
 .gnu.attributes
                0x00000270       0x10 build/debug/production/src/vtag.o
 .gnu.attributes
                0x00000280       0x10 build/debug/production/src/config.o
 .gnu.attributes
                0x00000290       0x10 build/debug/production/src/select.o
 .gnu.attributes
                0x000002a0       0x10 build/debug/production/src/sdcard.o
 .gnu.attributes
                0x000002b0       0x10 build/debug/production/src/debug_pins.o
 .gnu.attributes
                0x000002c0       0x10 build/debug/production/src/awid.o
 .gnu.attributes
                0x000002d0       0x10 build/debug/production/src/analogue.o
 .gnu.attributes
                0x000002e0       0x10 /opt/microchip/xc32/v1.21/pic32mx/lib/libmchp_peripheral_32MX795F512L.a(soft_reset_lib.o)
 .gnu.attributes
                0x000002f0       0x10 /opt/microchip/xc32/v1.21/pic32mx/lib/libmchp_peripheral_32MX795F512L.a(pcache.o)
 .gnu.attributes
                0x00000300       0x10 /opt/microchip/xc32/v1.21/pic32mx/lib/libmchp_peripheral_32MX795F512L.a(int_configure_system_lib.o)
 .gnu.attributes
                0x00000310       0x10 /opt/microchip/xc32/v1.21/pic32mx/lib/libmchp_peripheral_32MX795F512L.a(int_enable_interrupts_lib.o)
 .gnu.attributes
                0x00000320       0x10 /opt/microchip/xc32/v1.21/pic32mx/lib/libmchp_peripheral_32MX795F512L.a(int_disable_interrupts_lib.o)
 .gnu.attributes
                0x00000330       0x10 /opt/microchip/xc32/v1.21/pic32mx/lib/libmchp_peripheral_32MX795F512L.a(int_restore_interrupts_lib.o)
 .gnu.attributes
                0x00000340       0x10 /opt/microchip/xc32/v1.21/pic32mx/lib/libmchp_peripheral_32MX795F512L.a(int_enable_mv_int_lib.o)
 .gnu.attributes
                0x00000350       0x10 /opt/microchip/xc32/v1.21/pic32mx/lib/libmchp_peripheral_32MX795F512L.a(int_tbl_lib.o)
 .gnu.attributes
                0x00000360       0x10 /opt/microchip/xc32/v1.21/pic32mx/lib/libmchp_peripheral_32MX795F512L.a(spi_chn_close_lib.o)
 .gnu.attributes
                0x00000370       0x10 /opt/microchip/xc32/v1.21/pic32mx/lib/libmchp_peripheral_32MX795F512L.a(spi_chn_open_lib.o)
 .gnu.attributes
                0x00000380       0x10 /opt/microchip/xc32/v1.21/pic32mx/lib/libmchp_peripheral_32MX795F512L.a(spi_io_tbl_libp.o)
 .gnu.attributes
                0x00000390       0x10 /opt/microchip/xc32/v1.21/pic32mx/lib/libmchp_peripheral_32MX795F512L.a(spi_map_tbl_libp.o)
 .gnu.attributes
                0x000003a0       0x10 /opt/microchip/xc32/v1.21/pic32mx/lib/libmchp_peripheral_32MX795F512L.a(spi_getc_spi1_lib_legacy.o)
 .gnu.attributes
                0x000003b0       0x10 /opt/microchip/xc32/v1.21/pic32mx/lib/libmchp_peripheral_32MX795F512L.a(spi_open_spi1_lib_legacy.o)
 .gnu.attributes
                0x000003c0       0x10 /opt/microchip/xc32/v1.21/pic32mx/lib/libmchp_peripheral_32MX795F512L.a(spi_brg_tbl_lib_legacy.o)
 .gnu.attributes
                0x000003d0       0x10 /opt/microchip/xc32/v1.21/pic32mx/lib/libmchp_peripheral_32MX795F512L.a(nvm_erase_page_lib.o)
 .gnu.attributes
                0x000003e0       0x10 /opt/microchip/xc32/v1.21/pic32mx/lib/libmchp_peripheral_32MX795F512L.a(nvm_operation_lib.o)
 .gnu.attributes
                0x000003f0       0x10 /opt/microchip/xc32/v1.21/pic32mx/lib/libmchp_peripheral_32MX795F512L.a(nvm_program_lib.o)
 .gnu.attributes
                0x00000400       0x10 /opt/microchip/xc32/v1.21/pic32mx/lib/libmchp_peripheral_32MX795F512L.a(nvm_write_row_lib.o)
 .gnu.attributes
                0x00000410       0x10 /opt/microchip/xc32/v1.21/pic32mx/lib/libmchp_peripheral_32MX795F512L.a(port_reset_pins_lib.o)
 .gnu.attributes
                0x00000420       0x10 /opt/microchip/xc32/v1.21/pic32mx/lib/libmchp_peripheral_32MX795F512L.a(port_set_pins_digital_in_lib.o)
 .gnu.attributes
                0x00000430       0x10 /opt/microchip/xc32/v1.21/pic32mx/lib/libmchp_peripheral_32MX795F512L.a(port_set_pins_digital_out_lib.o)
 .gnu.attributes
                0x00000440       0x10 /opt/microchip/xc32/v1.21/pic32mx/lib/libmchp_peripheral_32MX795F512L.a(_ports_tbl_libp.o)
 .gnu.attributes
                0x00000450       0x10 /opt/microchip/xc32/v1.21/bin/../lib/gcc/pic32mx/4.5.2/libgcc.a(_udivdi3.o)
 .gnu.attributes
                0x00000460       0x10 /opt/microchip/xc32/v1.21/bin/../lib/gcc/pic32mx/4.5.2/../../../../pic32mx/lib/libpic32.a(default-bootstrap-exception-handler.o)
 .gnu.attributes
                0x00000470       0x10 /opt/microchip/xc32/v1.21/bin/../lib/gcc/pic32mx/4.5.2/../../../../pic32mx/lib/libpic32.a(default-on-reset.o)
 .gnu.attributes
                0x00000480       0x10 /opt/microchip/xc32/v1.21/bin/../lib/gcc/pic32mx/4.5.2/../../../../pic32mx/lib/libpic32.a(default-on-bootstrap.o)
 .gnu.attributes
                0x00000490       0x10 /opt/microchip/xc32/v1.21/bin/../lib/gcc/pic32mx/4.5.2/../../../../pic32mx/lib/libpic32.a(default-general-exception-handler.o)
 .gnu.attributes
                0x000004a0       0x10 /opt/microchip/xc32/v1.21/bin/../lib/gcc/pic32mx/4.5.2/../../../../pic32mx/lib/libpic32.a(defaultinterrupt.o)
 .gnu.attributes
                0x000004b0       0x10 /opt/microchip/xc32/v1.21/bin/../lib/gcc/pic32mx/4.5.2/../../../../pic32mx/lib/libc.a(ctypef.o)
 .gnu.attributes
                0x000004c0       0x10 /opt/microchip/xc32/v1.21/bin/../lib/gcc/pic32mx/4.5.2/../../../../pic32mx/lib/libc.a(rand.o)
 .gnu.attributes
                0x000004d0       0x10 /opt/microchip/xc32/v1.21/bin/../lib/gcc/pic32mx/4.5.2/../../../../pic32mx/lib/libc.a(strncmp.o)
 .gnu.attributes
                0x000004e0       0x10 /opt/microchip/xc32/v1.21/bin/../lib/gcc/pic32mx/4.5.2/../../../../pic32mx/lib/libc.a(strncpy.o)
 .gnu.attributes
                0x000004f0       0x10 /opt/microchip/xc32/v1.21/bin/../lib/gcc/pic32mx/4.5.2/../../../../pic32mx/lib/libc.a(sprintf_cdnopuxX.eo)
 .gnu.attributes
                0x00000500       0x10 /opt/microchip/xc32/v1.21/bin/../lib/gcc/pic32mx/4.5.2/../../../../pic32mx/lib/libc.a(sprintf.o)
 .gnu.attributes
                0x00000510       0x10 /opt/microchip/xc32/v1.21/bin/../lib/gcc/pic32mx/4.5.2/../../../../pic32mx/lib/libc.a(sscanf_cdfFnopsuxX.eo)
 .gnu.attributes
                0x00000520       0x10 /opt/microchip/xc32/v1.21/bin/../lib/gcc/pic32mx/4.5.2/../../../../pic32mx/lib/libc.a(ctype.o)
 .gnu.attributes
                0x00000530       0x10 /opt/microchip/xc32/v1.21/bin/../lib/gcc/pic32mx/4.5.2/../../../../pic32mx/lib/libc.a(doprnt_cdnopuxX.eo)
 .gnu.attributes
                0x00000540       0x10 /opt/microchip/xc32/v1.21/bin/../lib/gcc/pic32mx/4.5.2/../../../../pic32mx/lib/libc.a(doprnt.o)
 .gnu.attributes
                0x00000550       0x10 /opt/microchip/xc32/v1.21/bin/../lib/gcc/pic32mx/4.5.2/../../../../pic32mx/lib/libc.a(doscan_cdfFnopsuxX.eo)
 .gnu.attributes
                0x00000560       0x10 /opt/microchip/xc32/v1.21/bin/../lib/gcc/pic32mx/4.5.2/../../../../pic32mx/lib/libc.a(doscan_cdnopuxX.eo)
 .gnu.attributes
                0x00000570       0x10 /opt/microchip/xc32/v1.21/bin/../lib/gcc/pic32mx/4.5.2/../../../../pic32mx/lib/libc.a(fgetc.o)
 .gnu.attributes
                0x00000580       0x10 /opt/microchip/xc32/v1.21/bin/../lib/gcc/pic32mx/4.5.2/../../../../pic32mx/lib/libc.a(_fputc_simple.o)
 .gnu.attributes
                0x00000590       0x10 /opt/microchip/xc32/v1.21/bin/../lib/gcc/pic32mx/4.5.2/../../../../pic32mx/lib/libc.a(atoi.o)
 .gnu.attributes
                0x000005a0       0x10 /opt/microchip/xc32/v1.21/bin/../lib/gcc/pic32mx/4.5.2/../../../../pic32mx/lib/libc.a(powersf.o)
 .gnu.attributes
                0x000005b0       0x10 /opt/microchip/xc32/v1.21/bin/../lib/gcc/pic32mx/4.5.2/../../../../pic32mx/lib/libc.a(strtod.o)
 .gnu.attributes
                0x000005c0       0x10 /opt/microchip/xc32/v1.21/bin/../lib/gcc/pic32mx/4.5.2/../../../../pic32mx/lib/libc.a(strtof.o)
 .gnu.attributes
                0x000005d0       0x10 /opt/microchip/xc32/v1.21/bin/../lib/gcc/pic32mx/4.5.2/../../../../pic32mx/lib/libc.a(ungetc.o)
 .gnu.attributes
                0x000005e0       0x10 /opt/microchip/xc32/v1.21/bin/../lib/gcc/pic32mx/4.5.2/../../../../pic32mx/lib/libc.a(_iob.o)
 .gnu.attributes
                0x000005f0       0x10 /opt/microchip/xc32/v1.21/bin/../lib/gcc/pic32mx/4.5.2/../../../../pic32mx/lib/libc.a(filbuf.o)
 .gnu.attributes
                0x00000600       0x10 /opt/microchip/xc32/v1.21/bin/../lib/gcc/pic32mx/4.5.2/../../../../pic32mx/lib/libc.a(_flsbuf_simple.o)
 .gnu.attributes
                0x00000610       0x10 /opt/microchip/xc32/v1.21/bin/../lib/gcc/pic32mx/4.5.2/../../../../pic32mx/lib/libc.a(fflush.o)
 .gnu.attributes
                0x00000620       0x10 /opt/microchip/xc32/v1.21/bin/../lib/gcc/pic32mx/4.5.2/../../../../pic32mx/lib/libpic32.a(read.o)
 .gnu.attributes
                0x00000630       0x10 /opt/microchip/xc32/v1.21/bin/../lib/gcc/pic32mx/4.5.2/../../../../pic32mx/lib/libpic32.a(write.o)
 .gnu.attributes
                0x00000640       0x10 /opt/microchip/xc32/v1.21/bin/../lib/gcc/pic32mx/4.5.2/../../../../pic32mx/lib/libpic32.a(xc32_uart.o)
 .gnu.attributes
                0x00000650       0x10 /opt/microchip/xc32/v1.21/bin/../lib/gcc/pic32mx/4.5.2/../../../../pic32mx/lib/libpic32.a(_mon_putc.o)
 .gnu.attributes
                0x00000660       0x10 /opt/microchip/xc32/v1.21/bin/../lib/gcc/pic32mx/4.5.2/../../../../pic32mx/lib/libe.a(_floatdisf.o)
 .gnu.attributes
                0x00000670       0x10 /opt/microchip/xc32/v1.21/bin/../lib/gcc/pic32mx/4.5.2/../../../../pic32mx/lib/libe.a(_strtod.o)
 .gnu.attributes
                0x00000680       0x10 /opt/microchip/xc32/v1.21/bin/../lib/gcc/pic32mx/4.5.2/../../../../pic32mx/lib/libe.a(_strtof.o)
 .gnu.attributes
                0x00000690       0x10 /opt/microchip/xc32/v1.21/bin/../lib/gcc/pic32mx/4.5.2/../../../../pic32mx/lib/libe.a(_ldexp.o)
 .gnu.attributes
                0x000006a0       0x10 /opt/microchip/xc32/v1.21/bin/../lib/gcc/pic32mx/4.5.2/../../../../pic32mx/lib/libe.a(_ldexpf.o)
 .gnu.attributes
                0x000006b0       0x10 /opt/microchip/xc32/v1.21/bin/../lib/gcc/pic32mx/4.5.2/libgcc.a(_lshrdi3.o)
 .gnu.attributes
                0x000006c0       0x10 /opt/microchip/xc32/v1.21/bin/../lib/gcc/pic32mx/4.5.2/libgcc.a(_ashldi3.o)
 .gnu.attributes
                0x000006d0       0x10 /opt/microchip/xc32/v1.21/bin/../lib/gcc/pic32mx/4.5.2/libgcc.a(_floatundisf.o)
 .gnu.attributes
                0x000006e0       0x10 /opt/microchip/xc32/v1.21/bin/../lib/gcc/pic32mx/4.5.2/libgcc.a(_umoddi3.o)
 .gnu.attributes
                0x000006f0       0x10 /opt/microchip/xc32/v1.21/bin/../lib/gcc/pic32mx/4.5.2/libgcc.a(floatunsisf.o)
 .gnu.attributes
                0x00000700       0x10 /opt/microchip/xc32/v1.21/bin/../lib/gcc/pic32mx/4.5.2/../../../../pic32mx/lib/libpic32.a(errno.o)
LOAD /opt/microchip/xc32/v1.21/bin/../lib/gcc/pic32mx/4.5.2/libgcc.a
START GROUP
LOAD /opt/microchip/xc32/v1.21/bin/../lib/gcc/pic32mx/4.5.2/../../../../pic32mx/lib/libpic32.a
LOAD /opt/microchip/xc32/v1.21/bin/../lib/gcc/pic32mx/4.5.2/../../../../pic32mx/lib/libdebug.a
LOAD /opt/microchip/xc32/v1.21/bin/../lib/gcc/pic32mx/4.5.2/../../../../pic32mx/lib/libm.a
LOAD /opt/microchip/xc32/v1.21/bin/../lib/gcc/pic32mx/4.5.2/../../../../pic32mx/lib/libe.a
LOAD /opt/microchip/xc32/v1.21/bin/../lib/gcc/pic32mx/4.5.2/../../../../pic32mx/lib/libdsp.a
LOAD /opt/microchip/xc32/v1.21/bin/../lib/gcc/pic32mx/4.5.2/libgcc.a
LOAD /opt/microchip/xc32/v1.21/bin/../lib/gcc/pic32mx/4.5.2/../../../../pic32mx/lib/libpic32.a
LOAD /opt/microchip/xc32/v1.21/bin/../lib/gcc/pic32mx/4.5.2/../../../../pic32mx/lib/libc.a
LOAD /opt/microchip/xc32/v1.21/bin/../lib/gcc/pic32mx/4.5.2/../../../../pic32mx/lib/libpic32.a
END GROUP
LOAD /opt/microchip/xc32/v1.21/bin/../lib/gcc/pic32mx/4.5.2/libgcc.a
OUTPUT(dist/debug/production/RFIDler.X.production.elf elf32-tradlittlemips)
LOAD stack
LOAD data_init

.reginfo        0x9d006a00       0x18
 .reginfo       0x9d006a00       0x18 /opt/microchip/xc32/v1.21/bin/../lib/gcc/pic32mx/4.5.2/../../../../pic32mx/lib/crt0.o

.stack          0xa00079e8      0x400
 .stack         0xa00079e8      0x400 stack

.bss            0xa0007210      0x680
 .bss           0xa0007210      0x680 build/debug/production/src/main.o

.bss            0xa0000278      0x128
 .bss           0xa0000278      0x128 build/debug/production/src/indala.o

.data           0xa0007890       0xa0
 .data          0xa0007890       0xa0 /opt/microchip/xc32/v1.21/bin/../lib/gcc/pic32mx/4.5.2/../../../../pic32mx/lib/libc.a(_iob.o)
                0xa0007890                _iob

.data           0xa00003a0       0x4c
 .data          0xa00003a0       0x4c build/debug/production/src/tags.o
                0xa00003a0                TagTypes

.bss            0xa0007930       0x68
 .bss           0xa0007930       0x40 /opt/microchip/xc32/v1.21/bin/../lib/gcc/pic32mx/4.5.2/../../../../pic32mx/lib/libc.a(_iob.o)
                0xa0007930                _sibuf
                0xa0007950                _sobuf
 .bss           0xa0007970       0x28 build/debug/production/_ext/71113213/SD-SPI.o

.data           0xa00003ec       0x10
 .data          0xa00003ec       0x10 build/debug/production/src/main.o
                0xa00003ec                ModulationSchemes

.bss            0xa0007998       0x1c
 .bss           0xa0007998       0x10 /opt/microchip/xc32/v1.21/bin/../lib/gcc/pic32mx/4.5.2/../../../../pic32mx/lib/libc.a(rand.o)
 .bss           0xa00079a8        0xc build/debug/production/src/q5.o
                0xa00079a8                Password

.bss            0xa00003fc        0x4
 .bss           0xa00003fc        0x4 /opt/microchip/xc32/v1.21/bin/../lib/gcc/pic32mx/4.5.2/../../../../pic32mx/lib/libc.a(doscan_cdfFnopsuxX.eo)

.bss            0xa00079b4        0x4
 .bss           0xa00079b4        0x4 /opt/microchip/xc32/v1.21/bin/../lib/gcc/pic32mx/4.5.2/../../../../pic32mx/lib/libc.a(doscan_cdnopuxX.eo)

.bss%z1         0x00000000        0x0
 .bss           0x00000000        0x0 /opt/microchip/xc32/v1.21/bin/../lib/gcc/pic32mx/4.5.2/../../../../pic32mx/lib/libpic32.a(errno.o)

.data%z2        0x00000000        0x0
 .data          0x00000000        0x0 /opt/microchip/xc32/v1.21/bin/../lib/gcc/pic32mx/4.5.2/../../../../pic32mx/lib/libpic32.a(errno.o)

.bss%z3         0x00000000        0x0
 .bss           0x00000000        0x0 /opt/microchip/xc32/v1.21/bin/../lib/gcc/pic32mx/4.5.2/libgcc.a(floatunsisf.o)

.data%z4        0x00000000        0x0
 .data          0x00000000        0x0 /opt/microchip/xc32/v1.21/bin/../lib/gcc/pic32mx/4.5.2/libgcc.a(floatunsisf.o)

.bss%z5         0x00000000        0x0
 .bss           0x00000000        0x0 /opt/microchip/xc32/v1.21/bin/../lib/gcc/pic32mx/4.5.2/libgcc.a(_umoddi3.o)

.data%z6        0x00000000        0x0
 .data          0x00000000        0x0 /opt/microchip/xc32/v1.21/bin/../lib/gcc/pic32mx/4.5.2/libgcc.a(_umoddi3.o)

.bss%z7         0x00000000        0x0
 .bss           0x00000000        0x0 /opt/microchip/xc32/v1.21/bin/../lib/gcc/pic32mx/4.5.2/libgcc.a(_floatundisf.o)

.data%z8        0x00000000        0x0
 .data          0x00000000        0x0 /opt/microchip/xc32/v1.21/bin/../lib/gcc/pic32mx/4.5.2/libgcc.a(_floatundisf.o)

.bss%z9         0x00000000        0x0
 .bss           0x00000000        0x0 /opt/microchip/xc32/v1.21/bin/../lib/gcc/pic32mx/4.5.2/libgcc.a(_ashldi3.o)

.data%z10       0x00000000        0x0
 .data          0x00000000        0x0 /opt/microchip/xc32/v1.21/bin/../lib/gcc/pic32mx/4.5.2/libgcc.a(_ashldi3.o)

.bss%z11        0x00000000        0x0
 .bss           0x00000000        0x0 /opt/microchip/xc32/v1.21/bin/../lib/gcc/pic32mx/4.5.2/libgcc.a(_lshrdi3.o)

.data%z12       0x00000000        0x0
 .data          0x00000000        0x0 /opt/microchip/xc32/v1.21/bin/../lib/gcc/pic32mx/4.5.2/libgcc.a(_lshrdi3.o)

.bss%z13        0x00000000        0x0
 .bss           0x00000000        0x0 /opt/microchip/xc32/v1.21/bin/../lib/gcc/pic32mx/4.5.2/../../../../pic32mx/lib/libe.a(_ldexpf.o)

.data%z14       0x00000000        0x0
 .data          0x00000000        0x0 /opt/microchip/xc32/v1.21/bin/../lib/gcc/pic32mx/4.5.2/../../../../pic32mx/lib/libe.a(_ldexpf.o)

.bss%z15        0x00000000        0x0
 .bss           0x00000000        0x0 /opt/microchip/xc32/v1.21/bin/../lib/gcc/pic32mx/4.5.2/../../../../pic32mx/lib/libe.a(_ldexp.o)

.data%z16       0x00000000        0x0
 .data          0x00000000        0x0 /opt/microchip/xc32/v1.21/bin/../lib/gcc/pic32mx/4.5.2/../../../../pic32mx/lib/libe.a(_ldexp.o)

.bss%z17        0x00000000        0x0
 .bss           0x00000000        0x0 /opt/microchip/xc32/v1.21/bin/../lib/gcc/pic32mx/4.5.2/../../../../pic32mx/lib/libe.a(_strtof.o)

.data%z18       0x00000000        0x0
 .data          0x00000000        0x0 /opt/microchip/xc32/v1.21/bin/../lib/gcc/pic32mx/4.5.2/../../../../pic32mx/lib/libe.a(_strtof.o)

.bss%z19        0x00000000        0x0
 .bss           0x00000000        0x0 /opt/microchip/xc32/v1.21/bin/../lib/gcc/pic32mx/4.5.2/../../../../pic32mx/lib/libe.a(_strtod.o)

.data%z20       0x00000000        0x0
 .data          0x00000000        0x0 /opt/microchip/xc32/v1.21/bin/../lib/gcc/pic32mx/4.5.2/../../../../pic32mx/lib/libe.a(_strtod.o)

.bss%z21        0x00000000        0x0
 .bss           0x00000000        0x0 /opt/microchip/xc32/v1.21/bin/../lib/gcc/pic32mx/4.5.2/../../../../pic32mx/lib/libe.a(_floatdisf.o)

.data%z22       0x00000000        0x0
 .data          0x00000000        0x0 /opt/microchip/xc32/v1.21/bin/../lib/gcc/pic32mx/4.5.2/../../../../pic32mx/lib/libe.a(_floatdisf.o)

.bss%z23        0x00000000        0x0
 .bss           0x00000000        0x0 /opt/microchip/xc32/v1.21/bin/../lib/gcc/pic32mx/4.5.2/../../../../pic32mx/lib/libm.a(dp32.o)

.data%z24       0x00000000        0x0
 .data          0x00000000        0x0 /opt/microchip/xc32/v1.21/bin/../lib/gcc/pic32mx/4.5.2/../../../../pic32mx/lib/libm.a(dp32.o)

.bss%z25        0x00000000        0x0
 .bss           0x00000000        0x0 /opt/microchip/xc32/v1.21/bin/../lib/gcc/pic32mx/4.5.2/../../../../pic32mx/lib/libm.a(fpmod32.o)

.data%z26       0x00000000        0x0
 .data          0x00000000        0x0 /opt/microchip/xc32/v1.21/bin/../lib/gcc/pic32mx/4.5.2/../../../../pic32mx/lib/libm.a(fpmod32.o)

.bss%z27        0x00000000        0x0
 .bss           0x00000000        0x0 /opt/microchip/xc32/v1.21/bin/../lib/gcc/pic32mx/4.5.2/../../../../pic32mx/lib/libpic32.a(_mon_putc.o)

.data%z28       0x00000000        0x0
 .data          0x00000000        0x0 /opt/microchip/xc32/v1.21/bin/../lib/gcc/pic32mx/4.5.2/../../../../pic32mx/lib/libpic32.a(_mon_putc.o)

.bss%z29        0x00000000        0x0
 .bss           0x00000000        0x0 /opt/microchip/xc32/v1.21/bin/../lib/gcc/pic32mx/4.5.2/../../../../pic32mx/lib/libpic32.a(xc32_uart.o)

.data%z30       0x00000000        0x0
 .data          0x00000000        0x0 /opt/microchip/xc32/v1.21/bin/../lib/gcc/pic32mx/4.5.2/../../../../pic32mx/lib/libpic32.a(xc32_uart.o)

.bss%z31        0x00000000        0x0
 .bss           0x00000000        0x0 /opt/microchip/xc32/v1.21/bin/../lib/gcc/pic32mx/4.5.2/../../../../pic32mx/lib/libpic32.a(write.o)

.data%z32       0x00000000        0x0
 .data          0x00000000        0x0 /opt/microchip/xc32/v1.21/bin/../lib/gcc/pic32mx/4.5.2/../../../../pic32mx/lib/libpic32.a(write.o)

.bss%z33        0x00000000        0x0
 .bss           0x00000000        0x0 /opt/microchip/xc32/v1.21/bin/../lib/gcc/pic32mx/4.5.2/../../../../pic32mx/lib/libpic32.a(read.o)

.data%z34       0x00000000        0x0
 .data          0x00000000        0x0 /opt/microchip/xc32/v1.21/bin/../lib/gcc/pic32mx/4.5.2/../../../../pic32mx/lib/libpic32.a(read.o)

.bss%z35        0x00000000        0x0
 .bss           0x00000000        0x0 /opt/microchip/xc32/v1.21/bin/../lib/gcc/pic32mx/4.5.2/../../../../pic32mx/lib/libc.a(fflush.o)

.data%z36       0x00000000        0x0
 .data          0x00000000        0x0 /opt/microchip/xc32/v1.21/bin/../lib/gcc/pic32mx/4.5.2/../../../../pic32mx/lib/libc.a(fflush.o)

.bss%z37        0x00000000        0x0
 .bss           0x00000000        0x0 /opt/microchip/xc32/v1.21/bin/../lib/gcc/pic32mx/4.5.2/../../../../pic32mx/lib/libc.a(_flsbuf_simple.o)

.data%z38       0x00000000        0x0
 .data          0x00000000        0x0 /opt/microchip/xc32/v1.21/bin/../lib/gcc/pic32mx/4.5.2/../../../../pic32mx/lib/libc.a(_flsbuf_simple.o)

.bss%z39        0x00000000        0x0
 .bss           0x00000000        0x0 /opt/microchip/xc32/v1.21/bin/../lib/gcc/pic32mx/4.5.2/../../../../pic32mx/lib/libc.a(filbuf.o)

.data%z40       0x00000000        0x0
 .data          0x00000000        0x0 /opt/microchip/xc32/v1.21/bin/../lib/gcc/pic32mx/4.5.2/../../../../pic32mx/lib/libc.a(filbuf.o)

.bss%z41        0x00000000        0x0
 .bss           0x00000000        0x0 /opt/microchip/xc32/v1.21/bin/../lib/gcc/pic32mx/4.5.2/../../../../pic32mx/lib/libc.a(ungetc.o)

.data%z42       0x00000000        0x0
 .data          0x00000000        0x0 /opt/microchip/xc32/v1.21/bin/../lib/gcc/pic32mx/4.5.2/../../../../pic32mx/lib/libc.a(ungetc.o)

.bss%z43        0x00000000        0x0
 .bss           0x00000000        0x0 /opt/microchip/xc32/v1.21/bin/../lib/gcc/pic32mx/4.5.2/../../../../pic32mx/lib/libc.a(strtof.o)

.data%z44       0x00000000        0x0
 .data          0x00000000        0x0 /opt/microchip/xc32/v1.21/bin/../lib/gcc/pic32mx/4.5.2/../../../../pic32mx/lib/libc.a(strtof.o)

.bss%z45        0x00000000        0x0
 .bss           0x00000000        0x0 /opt/microchip/xc32/v1.21/bin/../lib/gcc/pic32mx/4.5.2/../../../../pic32mx/lib/libc.a(strtod.o)

.data%z46       0x00000000        0x0
 .data          0x00000000        0x0 /opt/microchip/xc32/v1.21/bin/../lib/gcc/pic32mx/4.5.2/../../../../pic32mx/lib/libc.a(strtod.o)

.bss%z47        0x00000000        0x0
 .bss           0x00000000        0x0 /opt/microchip/xc32/v1.21/bin/../lib/gcc/pic32mx/4.5.2/../../../../pic32mx/lib/libc.a(powersf.o)

.data%z48       0x00000000        0x0
 .data          0x00000000        0x0 /opt/microchip/xc32/v1.21/bin/../lib/gcc/pic32mx/4.5.2/../../../../pic32mx/lib/libc.a(powersf.o)

.bss%z49        0x00000000        0x0
 .bss           0x00000000        0x0 /opt/microchip/xc32/v1.21/bin/../lib/gcc/pic32mx/4.5.2/../../../../pic32mx/lib/libc.a(atoi.o)

.data%z50       0x00000000        0x0
 .data          0x00000000        0x0 /opt/microchip/xc32/v1.21/bin/../lib/gcc/pic32mx/4.5.2/../../../../pic32mx/lib/libc.a(atoi.o)

.bss%z51        0x00000000        0x0
 .bss           0x00000000        0x0 /opt/microchip/xc32/v1.21/bin/../lib/gcc/pic32mx/4.5.2/../../../../pic32mx/lib/libc.a(_fputc_simple.o)

.data%z52       0x00000000        0x0
 .data          0x00000000        0x0 /opt/microchip/xc32/v1.21/bin/../lib/gcc/pic32mx/4.5.2/../../../../pic32mx/lib/libc.a(_fputc_simple.o)

.bss%z53        0x00000000        0x0
 .bss           0x00000000        0x0 /opt/microchip/xc32/v1.21/bin/../lib/gcc/pic32mx/4.5.2/../../../../pic32mx/lib/libc.a(fgetc.o)

.data%z54       0x00000000        0x0
 .data          0x00000000        0x0 /opt/microchip/xc32/v1.21/bin/../lib/gcc/pic32mx/4.5.2/../../../../pic32mx/lib/libc.a(fgetc.o)

.data%z55       0x00000000        0x0
 .data          0x00000000        0x0 /opt/microchip/xc32/v1.21/bin/../lib/gcc/pic32mx/4.5.2/../../../../pic32mx/lib/libc.a(doscan_cdnopuxX.eo)

.data%z56       0x00000000        0x0
 .data          0x00000000        0x0 /opt/microchip/xc32/v1.21/bin/../lib/gcc/pic32mx/4.5.2/../../../../pic32mx/lib/libc.a(doscan_cdfFnopsuxX.eo)

.bss%z57        0x00000000        0x0
 .bss           0x00000000        0x0 /opt/microchip/xc32/v1.21/bin/../lib/gcc/pic32mx/4.5.2/../../../../pic32mx/lib/libc.a(doprnt.o)

.data%z58       0x00000000        0x0
 .data          0x00000000        0x0 /opt/microchip/xc32/v1.21/bin/../lib/gcc/pic32mx/4.5.2/../../../../pic32mx/lib/libc.a(doprnt.o)

.bss%z59        0x00000000        0x0
 .bss           0x00000000        0x0 /opt/microchip/xc32/v1.21/bin/../lib/gcc/pic32mx/4.5.2/../../../../pic32mx/lib/libc.a(doprnt_cdnopuxX.eo)

.data%z60       0x00000000        0x0
 .data          0x00000000        0x0 /opt/microchip/xc32/v1.21/bin/../lib/gcc/pic32mx/4.5.2/../../../../pic32mx/lib/libc.a(doprnt_cdnopuxX.eo)

.bss%z61        0x00000000        0x0
 .bss           0x00000000        0x0 /opt/microchip/xc32/v1.21/bin/../lib/gcc/pic32mx/4.5.2/../../../../pic32mx/lib/libc.a(ctype.o)

.data%z62       0x00000000        0x0
 .data          0x00000000        0x0 /opt/microchip/xc32/v1.21/bin/../lib/gcc/pic32mx/4.5.2/../../../../pic32mx/lib/libc.a(ctype.o)

.bss%z63        0x00000000        0x0
 .bss           0x00000000        0x0 /opt/microchip/xc32/v1.21/bin/../lib/gcc/pic32mx/4.5.2/../../../../pic32mx/lib/libc.a(sscanf_cdfFnopsuxX.eo)

.data%z64       0x00000000        0x0
 .data          0x00000000        0x0 /opt/microchip/xc32/v1.21/bin/../lib/gcc/pic32mx/4.5.2/../../../../pic32mx/lib/libc.a(sscanf_cdfFnopsuxX.eo)

.bss%z65        0x00000000        0x0
 .bss           0x00000000        0x0 /opt/microchip/xc32/v1.21/bin/../lib/gcc/pic32mx/4.5.2/../../../../pic32mx/lib/libc.a(sprintf.o)

.data%z66       0x00000000        0x0
 .data          0x00000000        0x0 /opt/microchip/xc32/v1.21/bin/../lib/gcc/pic32mx/4.5.2/../../../../pic32mx/lib/libc.a(sprintf.o)

.bss%z67        0x00000000        0x0
 .bss           0x00000000        0x0 /opt/microchip/xc32/v1.21/bin/../lib/gcc/pic32mx/4.5.2/../../../../pic32mx/lib/libc.a(sprintf_cdnopuxX.eo)

.data%z68       0x00000000        0x0
 .data          0x00000000        0x0 /opt/microchip/xc32/v1.21/bin/../lib/gcc/pic32mx/4.5.2/../../../../pic32mx/lib/libc.a(sprintf_cdnopuxX.eo)

.bss%z69        0x00000000        0x0
 .bss           0x00000000        0x0 /opt/microchip/xc32/v1.21/bin/../lib/gcc/pic32mx/4.5.2/../../../../pic32mx/lib/libc.a(strncpy.o)

.data%z70       0x00000000        0x0
 .data          0x00000000        0x0 /opt/microchip/xc32/v1.21/bin/../lib/gcc/pic32mx/4.5.2/../../../../pic32mx/lib/libc.a(strncpy.o)

.bss%z71        0x00000000        0x0
 .bss           0x00000000        0x0 /opt/microchip/xc32/v1.21/bin/../lib/gcc/pic32mx/4.5.2/../../../../pic32mx/lib/libc.a(strncmp.o)

.data%z72       0x00000000        0x0
 .data          0x00000000        0x0 /opt/microchip/xc32/v1.21/bin/../lib/gcc/pic32mx/4.5.2/../../../../pic32mx/lib/libc.a(strncmp.o)

.data%z73       0x00000000        0x0
 .data          0x00000000        0x0 /opt/microchip/xc32/v1.21/bin/../lib/gcc/pic32mx/4.5.2/../../../../pic32mx/lib/libc.a(rand.o)

.bss%z74        0x00000000        0x0
 .bss           0x00000000        0x0 /opt/microchip/xc32/v1.21/bin/../lib/gcc/pic32mx/4.5.2/../../../../pic32mx/lib/libc.a(ctypef.o)

.data%z75       0x00000000        0x0
 .data          0x00000000        0x0 /opt/microchip/xc32/v1.21/bin/../lib/gcc/pic32mx/4.5.2/../../../../pic32mx/lib/libc.a(ctypef.o)

.bss%z76        0x00000000        0x0
 .bss           0x00000000        0x0 /opt/microchip/xc32/v1.21/bin/../lib/gcc/pic32mx/4.5.2/../../../../pic32mx/lib/libm.a(fp32.o)

.data%z77       0x00000000        0x0
 .data          0x00000000        0x0 /opt/microchip/xc32/v1.21/bin/../lib/gcc/pic32mx/4.5.2/../../../../pic32mx/lib/libm.a(fp32.o)

.bss%z78        0x00000000        0x0
 .bss           0x00000000        0x0 /opt/microchip/xc32/v1.21/bin/../lib/gcc/pic32mx/4.5.2/../../../../pic32mx/lib/libpic32.a(defaultinterrupt.o)

.data%z79       0x00000000        0x0
 .data          0x00000000        0x0 /opt/microchip/xc32/v1.21/bin/../lib/gcc/pic32mx/4.5.2/../../../../pic32mx/lib/libpic32.a(defaultinterrupt.o)

.bss%z80        0x00000000        0x0
 .bss           0x00000000        0x0 /opt/microchip/xc32/v1.21/bin/../lib/gcc/pic32mx/4.5.2/../../../../pic32mx/lib/libpic32.a(default-general-exception-handler.o)

.data%z81       0x00000000        0x0
 .data          0x00000000        0x0 /opt/microchip/xc32/v1.21/bin/../lib/gcc/pic32mx/4.5.2/../../../../pic32mx/lib/libpic32.a(default-general-exception-handler.o)

.bss%z82        0x00000000        0x0
 .bss           0x00000000        0x0 /opt/microchip/xc32/v1.21/bin/../lib/gcc/pic32mx/4.5.2/../../../../pic32mx/lib/libpic32.a(vector63.o)

.data%z83       0x00000000        0x0
 .data          0x00000000        0x0 /opt/microchip/xc32/v1.21/bin/../lib/gcc/pic32mx/4.5.2/../../../../pic32mx/lib/libpic32.a(vector63.o)

.bss%z84        0x00000000        0x0
 .bss           0x00000000        0x0 /opt/microchip/xc32/v1.21/bin/../lib/gcc/pic32mx/4.5.2/../../../../pic32mx/lib/libpic32.a(vector62.o)

.data%z85       0x00000000        0x0
 .data          0x00000000        0x0 /opt/microchip/xc32/v1.21/bin/../lib/gcc/pic32mx/4.5.2/../../../../pic32mx/lib/libpic32.a(vector62.o)

.bss%z86        0x00000000        0x0
 .bss           0x00000000        0x0 /opt/microchip/xc32/v1.21/bin/../lib/gcc/pic32mx/4.5.2/../../../../pic32mx/lib/libpic32.a(vector61.o)

.data%z87       0x00000000        0x0
 .data          0x00000000        0x0 /opt/microchip/xc32/v1.21/bin/../lib/gcc/pic32mx/4.5.2/../../../../pic32mx/lib/libpic32.a(vector61.o)

.bss%z88        0x00000000        0x0
 .bss           0x00000000        0x0 /opt/microchip/xc32/v1.21/bin/../lib/gcc/pic32mx/4.5.2/../../../../pic32mx/lib/libpic32.a(vector60.o)

.data%z89       0x00000000        0x0
 .data          0x00000000        0x0 /opt/microchip/xc32/v1.21/bin/../lib/gcc/pic32mx/4.5.2/../../../../pic32mx/lib/libpic32.a(vector60.o)

.bss%z90        0x00000000        0x0
 .bss           0x00000000        0x0 /opt/microchip/xc32/v1.21/bin/../lib/gcc/pic32mx/4.5.2/../../../../pic32mx/lib/libpic32.a(vector59.o)

.data%z91       0x00000000        0x0
 .data          0x00000000        0x0 /opt/microchip/xc32/v1.21/bin/../lib/gcc/pic32mx/4.5.2/../../../../pic32mx/lib/libpic32.a(vector59.o)

.bss%z92        0x00000000        0x0
 .bss           0x00000000        0x0 /opt/microchip/xc32/v1.21/bin/../lib/gcc/pic32mx/4.5.2/../../../../pic32mx/lib/libpic32.a(vector58.o)

.data%z93       0x00000000        0x0
 .data          0x00000000        0x0 /opt/microchip/xc32/v1.21/bin/../lib/gcc/pic32mx/4.5.2/../../../../pic32mx/lib/libpic32.a(vector58.o)

.bss%z94        0x00000000        0x0
 .bss           0x00000000        0x0 /opt/microchip/xc32/v1.21/bin/../lib/gcc/pic32mx/4.5.2/../../../../pic32mx/lib/libpic32.a(vector57.o)

.data%z95       0x00000000        0x0
 .data          0x00000000        0x0 /opt/microchip/xc32/v1.21/bin/../lib/gcc/pic32mx/4.5.2/../../../../pic32mx/lib/libpic32.a(vector57.o)

.bss%z96        0x00000000        0x0
 .bss           0x00000000        0x0 /opt/microchip/xc32/v1.21/bin/../lib/gcc/pic32mx/4.5.2/../../../../pic32mx/lib/libpic32.a(vector56.o)

.data%z97       0x00000000        0x0
 .data          0x00000000        0x0 /opt/microchip/xc32/v1.21/bin/../lib/gcc/pic32mx/4.5.2/../../../../pic32mx/lib/libpic32.a(vector56.o)

.bss%z98        0x00000000        0x0
 .bss           0x00000000        0x0 /opt/microchip/xc32/v1.21/bin/../lib/gcc/pic32mx/4.5.2/../../../../pic32mx/lib/libpic32.a(vector55.o)

.data%z99       0x00000000        0x0
 .data          0x00000000        0x0 /opt/microchip/xc32/v1.21/bin/../lib/gcc/pic32mx/4.5.2/../../../../pic32mx/lib/libpic32.a(vector55.o)

.bss%z100       0x00000000        0x0
 .bss           0x00000000        0x0 /opt/microchip/xc32/v1.21/bin/../lib/gcc/pic32mx/4.5.2/../../../../pic32mx/lib/libpic32.a(vector54.o)

.data%z101      0x00000000        0x0
 .data          0x00000000        0x0 /opt/microchip/xc32/v1.21/bin/../lib/gcc/pic32mx/4.5.2/../../../../pic32mx/lib/libpic32.a(vector54.o)

.bss%z102       0x00000000        0x0
 .bss           0x00000000        0x0 /opt/microchip/xc32/v1.21/bin/../lib/gcc/pic32mx/4.5.2/../../../../pic32mx/lib/libpic32.a(vector53.o)

.data%z103      0x00000000        0x0
 .data          0x00000000        0x0 /opt/microchip/xc32/v1.21/bin/../lib/gcc/pic32mx/4.5.2/../../../../pic32mx/lib/libpic32.a(vector53.o)

.bss%z104       0x00000000        0x0
 .bss           0x00000000        0x0 /opt/microchip/xc32/v1.21/bin/../lib/gcc/pic32mx/4.5.2/../../../../pic32mx/lib/libpic32.a(vector52.o)

.data%z105      0x00000000        0x0
 .data          0x00000000        0x0 /opt/microchip/xc32/v1.21/bin/../lib/gcc/pic32mx/4.5.2/../../../../pic32mx/lib/libpic32.a(vector52.o)

.bss%z106       0x00000000        0x0
 .bss           0x00000000        0x0 /opt/microchip/xc32/v1.21/bin/../lib/gcc/pic32mx/4.5.2/../../../../pic32mx/lib/libpic32.a(vector51.o)

.data%z107      0x00000000        0x0
 .data          0x00000000        0x0 /opt/microchip/xc32/v1.21/bin/../lib/gcc/pic32mx/4.5.2/../../../../pic32mx/lib/libpic32.a(vector51.o)

.bss%z108       0x00000000        0x0
 .bss           0x00000000        0x0 /opt/microchip/xc32/v1.21/bin/../lib/gcc/pic32mx/4.5.2/../../../../pic32mx/lib/libpic32.a(vector50.o)

.data%z109      0x00000000        0x0
 .data          0x00000000        0x0 /opt/microchip/xc32/v1.21/bin/../lib/gcc/pic32mx/4.5.2/../../../../pic32mx/lib/libpic32.a(vector50.o)

.bss%z110       0x00000000        0x0
 .bss           0x00000000        0x0 /opt/microchip/xc32/v1.21/bin/../lib/gcc/pic32mx/4.5.2/../../../../pic32mx/lib/libpic32.a(vector49.o)

.data%z111      0x00000000        0x0
 .data          0x00000000        0x0 /opt/microchip/xc32/v1.21/bin/../lib/gcc/pic32mx/4.5.2/../../../../pic32mx/lib/libpic32.a(vector49.o)

.bss%z112       0x00000000        0x0
 .bss           0x00000000        0x0 /opt/microchip/xc32/v1.21/bin/../lib/gcc/pic32mx/4.5.2/../../../../pic32mx/lib/libpic32.a(vector48.o)

.data%z113      0x00000000        0x0
 .data          0x00000000        0x0 /opt/microchip/xc32/v1.21/bin/../lib/gcc/pic32mx/4.5.2/../../../../pic32mx/lib/libpic32.a(vector48.o)

.bss%z114       0x00000000        0x0
 .bss           0x00000000        0x0 /opt/microchip/xc32/v1.21/bin/../lib/gcc/pic32mx/4.5.2/../../../../pic32mx/lib/libpic32.a(vector47.o)

.data%z115      0x00000000        0x0
 .data          0x00000000        0x0 /opt/microchip/xc32/v1.21/bin/../lib/gcc/pic32mx/4.5.2/../../../../pic32mx/lib/libpic32.a(vector47.o)

.bss%z116       0x00000000        0x0
 .bss           0x00000000        0x0 /opt/microchip/xc32/v1.21/bin/../lib/gcc/pic32mx/4.5.2/../../../../pic32mx/lib/libpic32.a(vector46.o)

.data%z117      0x00000000        0x0
 .data          0x00000000        0x0 /opt/microchip/xc32/v1.21/bin/../lib/gcc/pic32mx/4.5.2/../../../../pic32mx/lib/libpic32.a(vector46.o)

.bss%z118       0x00000000        0x0
 .bss           0x00000000        0x0 /opt/microchip/xc32/v1.21/bin/../lib/gcc/pic32mx/4.5.2/../../../../pic32mx/lib/libpic32.a(vector44.o)

.data%z119      0x00000000        0x0
 .data          0x00000000        0x0 /opt/microchip/xc32/v1.21/bin/../lib/gcc/pic32mx/4.5.2/../../../../pic32mx/lib/libpic32.a(vector44.o)

.bss%z120       0x00000000        0x0
 .bss           0x00000000        0x0 /opt/microchip/xc32/v1.21/bin/../lib/gcc/pic32mx/4.5.2/../../../../pic32mx/lib/libpic32.a(vector43.o)

.data%z121      0x00000000        0x0
 .data          0x00000000        0x0 /opt/microchip/xc32/v1.21/bin/../lib/gcc/pic32mx/4.5.2/../../../../pic32mx/lib/libpic32.a(vector43.o)

.bss%z122       0x00000000        0x0
 .bss           0x00000000        0x0 /opt/microchip/xc32/v1.21/bin/../lib/gcc/pic32mx/4.5.2/../../../../pic32mx/lib/libpic32.a(vector42.o)

.data%z123      0x00000000        0x0
 .data          0x00000000        0x0 /opt/microchip/xc32/v1.21/bin/../lib/gcc/pic32mx/4.5.2/../../../../pic32mx/lib/libpic32.a(vector42.o)

.bss%z124       0x00000000        0x0
 .bss           0x00000000        0x0 /opt/microchip/xc32/v1.21/bin/../lib/gcc/pic32mx/4.5.2/../../../../pic32mx/lib/libpic32.a(vector41.o)

.data%z125      0x00000000        0x0
 .data          0x00000000        0x0 /opt/microchip/xc32/v1.21/bin/../lib/gcc/pic32mx/4.5.2/../../../../pic32mx/lib/libpic32.a(vector41.o)

.bss%z126       0x00000000        0x0
 .bss           0x00000000        0x0 /opt/microchip/xc32/v1.21/bin/../lib/gcc/pic32mx/4.5.2/../../../../pic32mx/lib/libpic32.a(vector40.o)

.data%z127      0x00000000        0x0
 .data          0x00000000        0x0 /opt/microchip/xc32/v1.21/bin/../lib/gcc/pic32mx/4.5.2/../../../../pic32mx/lib/libpic32.a(vector40.o)

.bss%z128       0x00000000        0x0
 .bss           0x00000000        0x0 /opt/microchip/xc32/v1.21/bin/../lib/gcc/pic32mx/4.5.2/../../../../pic32mx/lib/libpic32.a(vector39.o)

.data%z129      0x00000000        0x0
 .data          0x00000000        0x0 /opt/microchip/xc32/v1.21/bin/../lib/gcc/pic32mx/4.5.2/../../../../pic32mx/lib/libpic32.a(vector39.o)

.bss%z130       0x00000000        0x0
 .bss           0x00000000        0x0 /opt/microchip/xc32/v1.21/bin/../lib/gcc/pic32mx/4.5.2/../../../../pic32mx/lib/libpic32.a(vector38.o)

.data%z131      0x00000000        0x0
 .data          0x00000000        0x0 /opt/microchip/xc32/v1.21/bin/../lib/gcc/pic32mx/4.5.2/../../../../pic32mx/lib/libpic32.a(vector38.o)

.bss%z132       0x00000000        0x0
 .bss           0x00000000        0x0 /opt/microchip/xc32/v1.21/bin/../lib/gcc/pic32mx/4.5.2/../../../../pic32mx/lib/libpic32.a(vector37.o)

.data%z133      0x00000000        0x0
 .data          0x00000000        0x0 /opt/microchip/xc32/v1.21/bin/../lib/gcc/pic32mx/4.5.2/../../../../pic32mx/lib/libpic32.a(vector37.o)

.bss%z134       0x00000000        0x0
 .bss           0x00000000        0x0 /opt/microchip/xc32/v1.21/bin/../lib/gcc/pic32mx/4.5.2/../../../../pic32mx/lib/libpic32.a(vector36.o)

.data%z135      0x00000000        0x0
 .data          0x00000000        0x0 /opt/microchip/xc32/v1.21/bin/../lib/gcc/pic32mx/4.5.2/../../../../pic32mx/lib/libpic32.a(vector36.o)

.bss%z136       0x00000000        0x0
 .bss           0x00000000        0x0 /opt/microchip/xc32/v1.21/bin/../lib/gcc/pic32mx/4.5.2/../../../../pic32mx/lib/libpic32.a(vector35.o)

.data%z137      0x00000000        0x0
 .data          0x00000000        0x0 /opt/microchip/xc32/v1.21/bin/../lib/gcc/pic32mx/4.5.2/../../../../pic32mx/lib/libpic32.a(vector35.o)

.bss%z138       0x00000000        0x0
 .bss           0x00000000        0x0 /opt/microchip/xc32/v1.21/bin/../lib/gcc/pic32mx/4.5.2/../../../../pic32mx/lib/libpic32.a(vector34.o)

.data%z139      0x00000000        0x0
 .data          0x00000000        0x0 /opt/microchip/xc32/v1.21/bin/../lib/gcc/pic32mx/4.5.2/../../../../pic32mx/lib/libpic32.a(vector34.o)

.bss%z140       0x00000000        0x0
 .bss           0x00000000        0x0 /opt/microchip/xc32/v1.21/bin/../lib/gcc/pic32mx/4.5.2/../../../../pic32mx/lib/libpic32.a(vector33.o)

.data%z141      0x00000000        0x0
 .data          0x00000000        0x0 /opt/microchip/xc32/v1.21/bin/../lib/gcc/pic32mx/4.5.2/../../../../pic32mx/lib/libpic32.a(vector33.o)

.bss%z142       0x00000000        0x0
 .bss           0x00000000        0x0 /opt/microchip/xc32/v1.21/bin/../lib/gcc/pic32mx/4.5.2/../../../../pic32mx/lib/libpic32.a(vector32.o)

.data%z143      0x00000000        0x0
 .data          0x00000000        0x0 /opt/microchip/xc32/v1.21/bin/../lib/gcc/pic32mx/4.5.2/../../../../pic32mx/lib/libpic32.a(vector32.o)

.bss%z144       0x00000000        0x0
 .bss           0x00000000        0x0 /opt/microchip/xc32/v1.21/bin/../lib/gcc/pic32mx/4.5.2/../../../../pic32mx/lib/libpic32.a(vector31.o)

.data%z145      0x00000000        0x0
 .data          0x00000000        0x0 /opt/microchip/xc32/v1.21/bin/../lib/gcc/pic32mx/4.5.2/../../../../pic32mx/lib/libpic32.a(vector31.o)

.bss%z146       0x00000000        0x0
 .bss           0x00000000        0x0 /opt/microchip/xc32/v1.21/bin/../lib/gcc/pic32mx/4.5.2/../../../../pic32mx/lib/libpic32.a(vector30.o)

.data%z147      0x00000000        0x0
 .data          0x00000000        0x0 /opt/microchip/xc32/v1.21/bin/../lib/gcc/pic32mx/4.5.2/../../../../pic32mx/lib/libpic32.a(vector30.o)

.bss%z148       0x00000000        0x0
 .bss           0x00000000        0x0 /opt/microchip/xc32/v1.21/bin/../lib/gcc/pic32mx/4.5.2/../../../../pic32mx/lib/libpic32.a(vector29.o)

.data%z149      0x00000000        0x0
 .data          0x00000000        0x0 /opt/microchip/xc32/v1.21/bin/../lib/gcc/pic32mx/4.5.2/../../../../pic32mx/lib/libpic32.a(vector29.o)

.bss%z150       0x00000000        0x0
 .bss           0x00000000        0x0 /opt/microchip/xc32/v1.21/bin/../lib/gcc/pic32mx/4.5.2/../../../../pic32mx/lib/libpic32.a(vector28.o)

.data%z151      0x00000000        0x0
 .data          0x00000000        0x0 /opt/microchip/xc32/v1.21/bin/../lib/gcc/pic32mx/4.5.2/../../../../pic32mx/lib/libpic32.a(vector28.o)

.bss%z152       0x00000000        0x0
 .bss           0x00000000        0x0 /opt/microchip/xc32/v1.21/bin/../lib/gcc/pic32mx/4.5.2/../../../../pic32mx/lib/libpic32.a(vector27.o)

.data%z153      0x00000000        0x0
 .data          0x00000000        0x0 /opt/microchip/xc32/v1.21/bin/../lib/gcc/pic32mx/4.5.2/../../../../pic32mx/lib/libpic32.a(vector27.o)

.bss%z154       0x00000000        0x0
 .bss           0x00000000        0x0 /opt/microchip/xc32/v1.21/bin/../lib/gcc/pic32mx/4.5.2/../../../../pic32mx/lib/libpic32.a(vector26.o)

.data%z155      0x00000000        0x0
 .data          0x00000000        0x0 /opt/microchip/xc32/v1.21/bin/../lib/gcc/pic32mx/4.5.2/../../../../pic32mx/lib/libpic32.a(vector26.o)

.bss%z156       0x00000000        0x0
 .bss           0x00000000        0x0 /opt/microchip/xc32/v1.21/bin/../lib/gcc/pic32mx/4.5.2/../../../../pic32mx/lib/libpic32.a(vector25.o)

.data%z157      0x00000000        0x0
 .data          0x00000000        0x0 /opt/microchip/xc32/v1.21/bin/../lib/gcc/pic32mx/4.5.2/../../../../pic32mx/lib/libpic32.a(vector25.o)

.bss%z158       0x00000000        0x0
 .bss           0x00000000        0x0 /opt/microchip/xc32/v1.21/bin/../lib/gcc/pic32mx/4.5.2/../../../../pic32mx/lib/libpic32.a(vector24.o)

.data%z159      0x00000000        0x0
 .data          0x00000000        0x0 /opt/microchip/xc32/v1.21/bin/../lib/gcc/pic32mx/4.5.2/../../../../pic32mx/lib/libpic32.a(vector24.o)

.bss%z160       0x00000000        0x0
 .bss           0x00000000        0x0 /opt/microchip/xc32/v1.21/bin/../lib/gcc/pic32mx/4.5.2/../../../../pic32mx/lib/libpic32.a(vector23.o)

.data%z161      0x00000000        0x0
 .data          0x00000000        0x0 /opt/microchip/xc32/v1.21/bin/../lib/gcc/pic32mx/4.5.2/../../../../pic32mx/lib/libpic32.a(vector23.o)

.bss%z162       0x00000000        0x0
 .bss           0x00000000        0x0 /opt/microchip/xc32/v1.21/bin/../lib/gcc/pic32mx/4.5.2/../../../../pic32mx/lib/libpic32.a(vector21.o)

.data%z163      0x00000000        0x0
 .data          0x00000000        0x0 /opt/microchip/xc32/v1.21/bin/../lib/gcc/pic32mx/4.5.2/../../../../pic32mx/lib/libpic32.a(vector21.o)

.bss%z164       0x00000000        0x0
 .bss           0x00000000        0x0 /opt/microchip/xc32/v1.21/bin/../lib/gcc/pic32mx/4.5.2/../../../../pic32mx/lib/libpic32.a(vector20.o)

.data%z165      0x00000000        0x0
 .data          0x00000000        0x0 /opt/microchip/xc32/v1.21/bin/../lib/gcc/pic32mx/4.5.2/../../../../pic32mx/lib/libpic32.a(vector20.o)

.bss%z166       0x00000000        0x0
 .bss           0x00000000        0x0 /opt/microchip/xc32/v1.21/bin/../lib/gcc/pic32mx/4.5.2/../../../../pic32mx/lib/libpic32.a(vector19.o)

.data%z167      0x00000000        0x0
 .data          0x00000000        0x0 /opt/microchip/xc32/v1.21/bin/../lib/gcc/pic32mx/4.5.2/../../../../pic32mx/lib/libpic32.a(vector19.o)

.bss%z168       0x00000000        0x0
 .bss           0x00000000        0x0 /opt/microchip/xc32/v1.21/bin/../lib/gcc/pic32mx/4.5.2/../../../../pic32mx/lib/libpic32.a(vector18.o)

.data%z169      0x00000000        0x0
 .data          0x00000000        0x0 /opt/microchip/xc32/v1.21/bin/../lib/gcc/pic32mx/4.5.2/../../../../pic32mx/lib/libpic32.a(vector18.o)

.bss%z170       0x00000000        0x0
 .bss           0x00000000        0x0 /opt/microchip/xc32/v1.21/bin/../lib/gcc/pic32mx/4.5.2/../../../../pic32mx/lib/libpic32.a(vector17.o)

.data%z171      0x00000000        0x0
 .data          0x00000000        0x0 /opt/microchip/xc32/v1.21/bin/../lib/gcc/pic32mx/4.5.2/../../../../pic32mx/lib/libpic32.a(vector17.o)

.bss%z172       0x00000000        0x0
 .bss           0x00000000        0x0 /opt/microchip/xc32/v1.21/bin/../lib/gcc/pic32mx/4.5.2/../../../../pic32mx/lib/libpic32.a(vector15.o)

.data%z173      0x00000000        0x0
 .data          0x00000000        0x0 /opt/microchip/xc32/v1.21/bin/../lib/gcc/pic32mx/4.5.2/../../../../pic32mx/lib/libpic32.a(vector15.o)

.bss%z174       0x00000000        0x0
 .bss           0x00000000        0x0 /opt/microchip/xc32/v1.21/bin/../lib/gcc/pic32mx/4.5.2/../../../../pic32mx/lib/libpic32.a(vector14.o)

.data%z175      0x00000000        0x0
 .data          0x00000000        0x0 /opt/microchip/xc32/v1.21/bin/../lib/gcc/pic32mx/4.5.2/../../../../pic32mx/lib/libpic32.a(vector14.o)

.bss%z176       0x00000000        0x0
 .bss           0x00000000        0x0 /opt/microchip/xc32/v1.21/bin/../lib/gcc/pic32mx/4.5.2/../../../../pic32mx/lib/libpic32.a(vector13.o)

.data%z177      0x00000000        0x0
 .data          0x00000000        0x0 /opt/microchip/xc32/v1.21/bin/../lib/gcc/pic32mx/4.5.2/../../../../pic32mx/lib/libpic32.a(vector13.o)

.bss%z178       0x00000000        0x0
 .bss           0x00000000        0x0 /opt/microchip/xc32/v1.21/bin/../lib/gcc/pic32mx/4.5.2/../../../../pic32mx/lib/libpic32.a(vector11.o)

.data%z179      0x00000000        0x0
 .data          0x00000000        0x0 /opt/microchip/xc32/v1.21/bin/../lib/gcc/pic32mx/4.5.2/../../../../pic32mx/lib/libpic32.a(vector11.o)

.bss%z180       0x00000000        0x0
 .bss           0x00000000        0x0 /opt/microchip/xc32/v1.21/bin/../lib/gcc/pic32mx/4.5.2/../../../../pic32mx/lib/libpic32.a(vector10.o)

.data%z181      0x00000000        0x0
 .data          0x00000000        0x0 /opt/microchip/xc32/v1.21/bin/../lib/gcc/pic32mx/4.5.2/../../../../pic32mx/lib/libpic32.a(vector10.o)

.bss%z182       0x00000000        0x0
 .bss           0x00000000        0x0 /opt/microchip/xc32/v1.21/bin/../lib/gcc/pic32mx/4.5.2/../../../../pic32mx/lib/libpic32.a(vector9.o)

.data%z183      0x00000000        0x0
 .data          0x00000000        0x0 /opt/microchip/xc32/v1.21/bin/../lib/gcc/pic32mx/4.5.2/../../../../pic32mx/lib/libpic32.a(vector9.o)

.bss%z184       0x00000000        0x0
 .bss           0x00000000        0x0 /opt/microchip/xc32/v1.21/bin/../lib/gcc/pic32mx/4.5.2/../../../../pic32mx/lib/libpic32.a(vector8.o)

.data%z185      0x00000000        0x0
 .data          0x00000000        0x0 /opt/microchip/xc32/v1.21/bin/../lib/gcc/pic32mx/4.5.2/../../../../pic32mx/lib/libpic32.a(vector8.o)

.bss%z186       0x00000000        0x0
 .bss           0x00000000        0x0 /opt/microchip/xc32/v1.21/bin/../lib/gcc/pic32mx/4.5.2/../../../../pic32mx/lib/libpic32.a(vector7.o)

.data%z187      0x00000000        0x0
 .data          0x00000000        0x0 /opt/microchip/xc32/v1.21/bin/../lib/gcc/pic32mx/4.5.2/../../../../pic32mx/lib/libpic32.a(vector7.o)

.bss%z188       0x00000000        0x0
 .bss           0x00000000        0x0 /opt/microchip/xc32/v1.21/bin/../lib/gcc/pic32mx/4.5.2/../../../../pic32mx/lib/libpic32.a(vector6.o)

.data%z189      0x00000000        0x0
 .data          0x00000000        0x0 /opt/microchip/xc32/v1.21/bin/../lib/gcc/pic32mx/4.5.2/../../../../pic32mx/lib/libpic32.a(vector6.o)

.bss%z190       0x00000000        0x0
 .bss           0x00000000        0x0 /opt/microchip/xc32/v1.21/bin/../lib/gcc/pic32mx/4.5.2/../../../../pic32mx/lib/libpic32.a(vector5.o)

.data%z191      0x00000000        0x0
 .data          0x00000000        0x0 /opt/microchip/xc32/v1.21/bin/../lib/gcc/pic32mx/4.5.2/../../../../pic32mx/lib/libpic32.a(vector5.o)

.bss%z192       0x00000000        0x0
 .bss           0x00000000        0x0 /opt/microchip/xc32/v1.21/bin/../lib/gcc/pic32mx/4.5.2/../../../../pic32mx/lib/libpic32.a(vector3.o)

.data%z193      0x00000000        0x0
 .data          0x00000000        0x0 /opt/microchip/xc32/v1.21/bin/../lib/gcc/pic32mx/4.5.2/../../../../pic32mx/lib/libpic32.a(vector3.o)

.bss%z194       0x00000000        0x0
 .bss           0x00000000        0x0 /opt/microchip/xc32/v1.21/bin/../lib/gcc/pic32mx/4.5.2/../../../../pic32mx/lib/libpic32.a(vector2.o)

.data%z195      0x00000000        0x0
 .data          0x00000000        0x0 /opt/microchip/xc32/v1.21/bin/../lib/gcc/pic32mx/4.5.2/../../../../pic32mx/lib/libpic32.a(vector2.o)

.bss%z196       0x00000000        0x0
 .bss           0x00000000        0x0 /opt/microchip/xc32/v1.21/bin/../lib/gcc/pic32mx/4.5.2/../../../../pic32mx/lib/libpic32.a(vector1.o)

.data%z197      0x00000000        0x0
 .data          0x00000000        0x0 /opt/microchip/xc32/v1.21/bin/../lib/gcc/pic32mx/4.5.2/../../../../pic32mx/lib/libpic32.a(vector1.o)

.bss%z198       0x00000000        0x0
 .bss           0x00000000        0x0 /opt/microchip/xc32/v1.21/bin/../lib/gcc/pic32mx/4.5.2/../../../../pic32mx/lib/libpic32.a(vector0.o)

.data%z199      0x00000000        0x0
 .data          0x00000000        0x0 /opt/microchip/xc32/v1.21/bin/../lib/gcc/pic32mx/4.5.2/../../../../pic32mx/lib/libpic32.a(vector0.o)

.bss%z200       0x00000000        0x0
 .bss           0x00000000        0x0 /opt/microchip/xc32/v1.21/bin/../lib/gcc/pic32mx/4.5.2/../../../../pic32mx/lib/libpic32.a(general-exception.o)

.data%z201      0x00000000        0x0
 .data          0x00000000        0x0 /opt/microchip/xc32/v1.21/bin/../lib/gcc/pic32mx/4.5.2/../../../../pic32mx/lib/libpic32.a(general-exception.o)

.bss%z202       0x00000000        0x0
 .bss           0x00000000        0x0 /opt/microchip/xc32/v1.21/bin/../lib/gcc/pic32mx/4.5.2/../../../../pic32mx/lib/libpic32.a(default-nmi-handler.o)

.data%z203      0x00000000        0x0
 .data          0x00000000        0x0 /opt/microchip/xc32/v1.21/bin/../lib/gcc/pic32mx/4.5.2/../../../../pic32mx/lib/libpic32.a(default-nmi-handler.o)

.bss%z204       0x00000000        0x0
 .bss           0x00000000        0x0 /opt/microchip/xc32/v1.21/bin/../lib/gcc/pic32mx/4.5.2/../../../../pic32mx/lib/libpic32.a(default-on-bootstrap.o)

.data%z205      0x00000000        0x0
 .data          0x00000000        0x0 /opt/microchip/xc32/v1.21/bin/../lib/gcc/pic32mx/4.5.2/../../../../pic32mx/lib/libpic32.a(default-on-bootstrap.o)

.bss%z206       0x00000000        0x0
 .bss           0x00000000        0x0 /opt/microchip/xc32/v1.21/bin/../lib/gcc/pic32mx/4.5.2/../../../../pic32mx/lib/libpic32.a(default-on-reset.o)

.data%z207      0x00000000        0x0
 .data          0x00000000        0x0 /opt/microchip/xc32/v1.21/bin/../lib/gcc/pic32mx/4.5.2/../../../../pic32mx/lib/libpic32.a(default-on-reset.o)

.bss%z208       0x00000000        0x0
 .bss           0x00000000        0x0 /opt/microchip/xc32/v1.21/bin/../lib/gcc/pic32mx/4.5.2/../../../../pic32mx/lib/libpic32.a(default-bootstrap-exception-handler.o)

.data%z209      0x00000000        0x0
 .data          0x00000000        0x0 /opt/microchip/xc32/v1.21/bin/../lib/gcc/pic32mx/4.5.2/../../../../pic32mx/lib/libpic32.a(default-bootstrap-exception-handler.o)

.bss%z210       0x00000000        0x0
 .bss           0x00000000        0x0 /opt/microchip/xc32/v1.21/bin/../lib/gcc/pic32mx/4.5.2/../../../../pic32mx/lib/libpic32.a(strlen.o)

.data%z211      0x00000000        0x0
 .data          0x00000000        0x0 /opt/microchip/xc32/v1.21/bin/../lib/gcc/pic32mx/4.5.2/../../../../pic32mx/lib/libpic32.a(strlen.o)

.bss%z212       0x00000000        0x0
 .bss           0x00000000        0x0 /opt/microchip/xc32/v1.21/bin/../lib/gcc/pic32mx/4.5.2/../../../../pic32mx/lib/libpic32.a(strcpy.o)

.data%z213      0x00000000        0x0
 .data          0x00000000        0x0 /opt/microchip/xc32/v1.21/bin/../lib/gcc/pic32mx/4.5.2/../../../../pic32mx/lib/libpic32.a(strcpy.o)

.bss%z214       0x00000000        0x0
 .bss           0x00000000        0x0 /opt/microchip/xc32/v1.21/bin/../lib/gcc/pic32mx/4.5.2/../../../../pic32mx/lib/libpic32.a(strcmp.o)

.data%z215      0x00000000        0x0
 .data          0x00000000        0x0 /opt/microchip/xc32/v1.21/bin/../lib/gcc/pic32mx/4.5.2/../../../../pic32mx/lib/libpic32.a(strcmp.o)

.bss%z216       0x00000000        0x0
 .bss           0x00000000        0x0 /opt/microchip/xc32/v1.21/bin/../lib/gcc/pic32mx/4.5.2/../../../../pic32mx/lib/libpic32.a(memset.o)

.data%z217      0x00000000        0x0
 .data          0x00000000        0x0 /opt/microchip/xc32/v1.21/bin/../lib/gcc/pic32mx/4.5.2/../../../../pic32mx/lib/libpic32.a(memset.o)

.bss%z218       0x00000000        0x0
 .bss           0x00000000        0x0 /opt/microchip/xc32/v1.21/bin/../lib/gcc/pic32mx/4.5.2/../../../../pic32mx/lib/libpic32.a(memcpy.o)

.data%z219      0x00000000        0x0
 .data          0x00000000        0x0 /opt/microchip/xc32/v1.21/bin/../lib/gcc/pic32mx/4.5.2/../../../../pic32mx/lib/libpic32.a(memcpy.o)

.bss%z220       0x00000000        0x0
 .bss           0x00000000        0x0 /opt/microchip/xc32/v1.21/bin/../lib/gcc/pic32mx/4.5.2/../../../../pic32mx/lib/libpic32.a(memcmp.o)

.data%z221      0x00000000        0x0
 .data          0x00000000        0x0 /opt/microchip/xc32/v1.21/bin/../lib/gcc/pic32mx/4.5.2/../../../../pic32mx/lib/libpic32.a(memcmp.o)

.bss%z222       0x00000000        0x0
 .bss           0x00000000        0x0 /opt/microchip/xc32/v1.21/bin/../lib/gcc/pic32mx/4.5.2/libgcc.a(_udivdi3.o)

.data%z223      0x00000000        0x0
 .data          0x00000000        0x0 /opt/microchip/xc32/v1.21/bin/../lib/gcc/pic32mx/4.5.2/libgcc.a(_udivdi3.o)

.bss%z224       0x00000000        0x0
 .bss           0x00000000        0x0 /opt/microchip/xc32/v1.21/bin/../lib/gcc/pic32mx/4.5.2/../../../../pic32mx/lib/./proc/32MX795F512L/processor.o

.data%z225      0x00000000        0x0
 .data          0x00000000        0x0 /opt/microchip/xc32/v1.21/bin/../lib/gcc/pic32mx/4.5.2/../../../../pic32mx/lib/./proc/32MX795F512L/processor.o

.bss%z226       0x00000000        0x0
 .bss           0x00000000        0x0 /opt/microchip/xc32/v1.21/bin/../lib/gcc/pic32mx/4.5.2/../../../../pic32mx/lib/./proc/32MX795F512L/default_isr_vectors.o

.data%z227      0x00000000        0x0
 .data          0x00000000        0x0 /opt/microchip/xc32/v1.21/bin/../lib/gcc/pic32mx/4.5.2/../../../../pic32mx/lib/./proc/32MX795F512L/default_isr_vectors.o

.bss%z228       0x00000000        0x0
 .bss           0x00000000        0x0 /opt/microchip/xc32/v1.21/pic32mx/lib/libmchp_peripheral_32MX795F512L.a(_ports_tbl_libp.o)

.data%z229      0x00000000        0x0
 .data          0x00000000        0x0 /opt/microchip/xc32/v1.21/pic32mx/lib/libmchp_peripheral_32MX795F512L.a(_ports_tbl_libp.o)

.bss%z230       0x00000000        0x0
 .bss           0x00000000        0x0 /opt/microchip/xc32/v1.21/pic32mx/lib/libmchp_peripheral_32MX795F512L.a(port_set_pins_digital_out_lib.o)

.data%z231      0x00000000        0x0
 .data          0x00000000        0x0 /opt/microchip/xc32/v1.21/pic32mx/lib/libmchp_peripheral_32MX795F512L.a(port_set_pins_digital_out_lib.o)

.bss%z232       0x00000000        0x0
 .bss           0x00000000        0x0 /opt/microchip/xc32/v1.21/pic32mx/lib/libmchp_peripheral_32MX795F512L.a(port_set_pins_digital_in_lib.o)

.data%z233      0x00000000        0x0
 .data          0x00000000        0x0 /opt/microchip/xc32/v1.21/pic32mx/lib/libmchp_peripheral_32MX795F512L.a(port_set_pins_digital_in_lib.o)

.bss%z234       0x00000000        0x0
 .bss           0x00000000        0x0 /opt/microchip/xc32/v1.21/pic32mx/lib/libmchp_peripheral_32MX795F512L.a(port_reset_pins_lib.o)

.data%z235      0x00000000        0x0
 .data          0x00000000        0x0 /opt/microchip/xc32/v1.21/pic32mx/lib/libmchp_peripheral_32MX795F512L.a(port_reset_pins_lib.o)

.bss%z236       0x00000000        0x0
 .bss           0x00000000        0x0 /opt/microchip/xc32/v1.21/pic32mx/lib/libmchp_peripheral_32MX795F512L.a(nvm_write_row_lib.o)

.data%z237      0x00000000        0x0
 .data          0x00000000        0x0 /opt/microchip/xc32/v1.21/pic32mx/lib/libmchp_peripheral_32MX795F512L.a(nvm_write_row_lib.o)

.bss%z238       0x00000000        0x0
 .bss           0x00000000        0x0 /opt/microchip/xc32/v1.21/pic32mx/lib/libmchp_peripheral_32MX795F512L.a(nvm_program_lib.o)

.data%z239      0x00000000        0x0
 .data          0x00000000        0x0 /opt/microchip/xc32/v1.21/pic32mx/lib/libmchp_peripheral_32MX795F512L.a(nvm_program_lib.o)

.bss%z240       0x00000000        0x0
 .bss           0x00000000        0x0 /opt/microchip/xc32/v1.21/pic32mx/lib/libmchp_peripheral_32MX795F512L.a(nvm_operation_lib.o)

.data%z241      0x00000000        0x0
 .data          0x00000000        0x0 /opt/microchip/xc32/v1.21/pic32mx/lib/libmchp_peripheral_32MX795F512L.a(nvm_operation_lib.o)

.bss%z242       0x00000000        0x0
 .bss           0x00000000        0x0 /opt/microchip/xc32/v1.21/pic32mx/lib/libmchp_peripheral_32MX795F512L.a(nvm_erase_page_lib.o)

.data%z243      0x00000000        0x0
 .data          0x00000000        0x0 /opt/microchip/xc32/v1.21/pic32mx/lib/libmchp_peripheral_32MX795F512L.a(nvm_erase_page_lib.o)

.bss%z244       0x00000000        0x0
 .bss           0x00000000        0x0 /opt/microchip/xc32/v1.21/pic32mx/lib/libmchp_peripheral_32MX795F512L.a(spi_brg_tbl_lib_legacy.o)

.data%z245      0x00000000        0x0
 .data          0x00000000        0x0 /opt/microchip/xc32/v1.21/pic32mx/lib/libmchp_peripheral_32MX795F512L.a(spi_brg_tbl_lib_legacy.o)

.bss%z246       0x00000000        0x0
 .bss           0x00000000        0x0 /opt/microchip/xc32/v1.21/pic32mx/lib/libmchp_peripheral_32MX795F512L.a(spi_open_spi1_lib_legacy.o)

.data%z247      0x00000000        0x0
 .data          0x00000000        0x0 /opt/microchip/xc32/v1.21/pic32mx/lib/libmchp_peripheral_32MX795F512L.a(spi_open_spi1_lib_legacy.o)

.bss%z248       0x00000000        0x0
 .bss           0x00000000        0x0 /opt/microchip/xc32/v1.21/pic32mx/lib/libmchp_peripheral_32MX795F512L.a(spi_getc_spi1_lib_legacy.o)

.data%z249      0x00000000        0x0
 .data          0x00000000        0x0 /opt/microchip/xc32/v1.21/pic32mx/lib/libmchp_peripheral_32MX795F512L.a(spi_getc_spi1_lib_legacy.o)

.bss%z250       0x00000000        0x0
 .bss           0x00000000        0x0 /opt/microchip/xc32/v1.21/pic32mx/lib/libmchp_peripheral_32MX795F512L.a(spi_map_tbl_libp.o)

.data%z251      0x00000000        0x0
 .data          0x00000000        0x0 /opt/microchip/xc32/v1.21/pic32mx/lib/libmchp_peripheral_32MX795F512L.a(spi_map_tbl_libp.o)

.bss%z252       0x00000000        0x0
 .bss           0x00000000        0x0 /opt/microchip/xc32/v1.21/pic32mx/lib/libmchp_peripheral_32MX795F512L.a(spi_io_tbl_libp.o)

.data%z253      0x00000000        0x0
 .data          0x00000000        0x0 /opt/microchip/xc32/v1.21/pic32mx/lib/libmchp_peripheral_32MX795F512L.a(spi_io_tbl_libp.o)

.bss%z254       0x00000000        0x0
 .bss           0x00000000        0x0 /opt/microchip/xc32/v1.21/pic32mx/lib/libmchp_peripheral_32MX795F512L.a(spi_chn_open_lib.o)

.data%z255      0x00000000        0x0
 .data          0x00000000        0x0 /opt/microchip/xc32/v1.21/pic32mx/lib/libmchp_peripheral_32MX795F512L.a(spi_chn_open_lib.o)

.bss%z256       0x00000000        0x0
 .bss           0x00000000        0x0 /opt/microchip/xc32/v1.21/pic32mx/lib/libmchp_peripheral_32MX795F512L.a(spi_chn_close_lib.o)

.data%z257      0x00000000        0x0
 .data          0x00000000        0x0 /opt/microchip/xc32/v1.21/pic32mx/lib/libmchp_peripheral_32MX795F512L.a(spi_chn_close_lib.o)

.bss%z258       0x00000000        0x0
 .bss           0x00000000        0x0 /opt/microchip/xc32/v1.21/pic32mx/lib/libmchp_peripheral_32MX795F512L.a(int_tbl_lib.o)

.data%z259      0x00000000        0x0
 .data          0x00000000        0x0 /opt/microchip/xc32/v1.21/pic32mx/lib/libmchp_peripheral_32MX795F512L.a(int_tbl_lib.o)

.bss%z260       0x00000000        0x0
 .bss           0x00000000        0x0 /opt/microchip/xc32/v1.21/pic32mx/lib/libmchp_peripheral_32MX795F512L.a(int_enable_mv_int_lib.o)

.data%z261      0x00000000        0x0
 .data          0x00000000        0x0 /opt/microchip/xc32/v1.21/pic32mx/lib/libmchp_peripheral_32MX795F512L.a(int_enable_mv_int_lib.o)

.bss%z262       0x00000000        0x0
 .bss           0x00000000        0x0 /opt/microchip/xc32/v1.21/pic32mx/lib/libmchp_peripheral_32MX795F512L.a(int_restore_interrupts_lib.o)

.data%z263      0x00000000        0x0
 .data          0x00000000        0x0 /opt/microchip/xc32/v1.21/pic32mx/lib/libmchp_peripheral_32MX795F512L.a(int_restore_interrupts_lib.o)

.bss%z264       0x00000000        0x0
 .bss           0x00000000        0x0 /opt/microchip/xc32/v1.21/pic32mx/lib/libmchp_peripheral_32MX795F512L.a(int_disable_interrupts_lib.o)

.data%z265      0x00000000        0x0
 .data          0x00000000        0x0 /opt/microchip/xc32/v1.21/pic32mx/lib/libmchp_peripheral_32MX795F512L.a(int_disable_interrupts_lib.o)

.bss%z266       0x00000000        0x0
 .bss           0x00000000        0x0 /opt/microchip/xc32/v1.21/pic32mx/lib/libmchp_peripheral_32MX795F512L.a(int_enable_interrupts_lib.o)

.data%z267      0x00000000        0x0
 .data          0x00000000        0x0 /opt/microchip/xc32/v1.21/pic32mx/lib/libmchp_peripheral_32MX795F512L.a(int_enable_interrupts_lib.o)

.bss%z268       0x00000000        0x0
 .bss           0x00000000        0x0 /opt/microchip/xc32/v1.21/pic32mx/lib/libmchp_peripheral_32MX795F512L.a(int_configure_system_lib.o)

.data%z269      0x00000000        0x0
 .data          0x00000000        0x0 /opt/microchip/xc32/v1.21/pic32mx/lib/libmchp_peripheral_32MX795F512L.a(int_configure_system_lib.o)

.bss%z270       0x00000000        0x0
 .bss           0x00000000        0x0 /opt/microchip/xc32/v1.21/pic32mx/lib/libmchp_peripheral_32MX795F512L.a(pcache.o)

.data%z271      0x00000000        0x0
 .data          0x00000000        0x0 /opt/microchip/xc32/v1.21/pic32mx/lib/libmchp_peripheral_32MX795F512L.a(pcache.o)

.bss%z272       0x00000000        0x0
 .bss           0x00000000        0x0 /opt/microchip/xc32/v1.21/pic32mx/lib/libmchp_peripheral_32MX795F512L.a(soft_reset_lib.o)

.data%z273      0x00000000        0x0
 .data          0x00000000        0x0 /opt/microchip/xc32/v1.21/pic32mx/lib/libmchp_peripheral_32MX795F512L.a(soft_reset_lib.o)

.bss%z274       0x00000000        0x0
 .bss           0x00000000        0x0 build/debug/production/src/analogue.o

.data%z275      0x00000000        0x0
 .data          0x00000000        0x0 build/debug/production/src/analogue.o

.bss%z276       0x00000000        0x0
 .bss           0x00000000        0x0 build/debug/production/src/awid.o

.data%z277      0x00000000        0x0
 .data          0x00000000        0x0 build/debug/production/src/awid.o

.bss%z278       0x00000000        0x0
 .bss           0x00000000        0x0 build/debug/production/src/debug_pins.o

.data%z279      0x00000000        0x0
 .data          0x00000000        0x0 build/debug/production/src/debug_pins.o

.bss%z280       0x00000000        0x0
 .bss           0x00000000        0x0 build/debug/production/src/sdcard.o

.data%z281      0x00000000        0x0
 .data          0x00000000        0x0 build/debug/production/src/sdcard.o

.bss%z282       0x00000000        0x0
 .bss           0x00000000        0x0 build/debug/production/src/select.o

.data%z283      0x00000000        0x0
 .data          0x00000000        0x0 build/debug/production/src/select.o

.bss%z284       0x00000000        0x0
 .bss           0x00000000        0x0 build/debug/production/src/config.o

.data%z285      0x00000000        0x0
 .data          0x00000000        0x0 build/debug/production/src/config.o

.bss%z286       0x00000000        0x0
 .bss           0x00000000        0x0 build/debug/production/src/vtag.o

.data%z287      0x00000000        0x0
 .data          0x00000000        0x0 build/debug/production/src/vtag.o

.data%z288      0x00000000        0x0
 .data          0x00000000        0x0 build/debug/production/src/q5.o

.bss%z289       0x00000000        0x0
 .bss           0x00000000        0x0 build/debug/production/src/auth.o

.data%z290      0x00000000        0x0
 .data          0x00000000        0x0 build/debug/production/src/auth.o

.bss%z291       0x00000000        0x0
 .bss           0x00000000        0x0 build/debug/production/src/write.o

.data%z292      0x00000000        0x0
 .data          0x00000000        0x0 build/debug/production/src/write.o

.bss%z293       0x00000000        0x0
 .bss           0x00000000        0x0 build/debug/production/src/login.o

.data%z294      0x00000000        0x0
 .data          0x00000000        0x0 build/debug/production/src/login.o

.bss%z295       0x00000000        0x0
 .bss           0x00000000        0x0 build/debug/production/src/uid.o

.data%z296      0x00000000        0x0
 .data          0x00000000        0x0 build/debug/production/src/uid.o

.bss%z297       0x00000000        0x0
 .bss           0x00000000        0x0 build/debug/production/src/hitag.o

.data%z298      0x00000000        0x0
 .data          0x00000000        0x0 build/debug/production/src/hitag.o

.bss%z299       0x00000000        0x0
 .bss           0x00000000        0x0 build/debug/production/src/fdxb.o

.data%z300      0x00000000        0x0
 .data          0x00000000        0x0 build/debug/production/src/fdxb.o

.bss%z301       0x00000000        0x0
 .bss           0x00000000        0x0 build/debug/production/src/auto.o

.data%z302      0x00000000        0x0
 .data          0x00000000        0x0 build/debug/production/src/auto.o

.bss%z303       0x00000000        0x0
 .bss           0x00000000        0x0 build/debug/production/src/isr.o

.data%z304      0x00000000        0x0
 .data          0x00000000        0x0 build/debug/production/src/isr.o

.bss%z305       0x00000000        0x0
 .bss           0x00000000        0x0 build/debug/production/src/read.o

.data%z306      0x00000000        0x0
 .data          0x00000000        0x0 build/debug/production/src/read.o

.bss%z307       0x00000000        0x0
 .bss           0x00000000        0x0 build/debug/production/src/hid.o

.data%z308      0x00000000        0x0
 .data          0x00000000        0x0 build/debug/production/src/hid.o

.bss%z309       0x00000000        0x0
 .bss           0x00000000        0x0 build/debug/production/src/em.o

.data%z310      0x00000000        0x0
 .data          0x00000000        0x0 build/debug/production/src/em.o

.bss%z311       0x00000000        0x0
 .bss           0x00000000        0x0 build/debug/production/src/led.o

.data%z312      0x00000000        0x0
 .data          0x00000000        0x0 build/debug/production/src/led.o

.bss%z313       0x00000000        0x0
 .bss           0x00000000        0x0 build/debug/production/src/unique.o

.data%z314      0x00000000        0x0
 .data          0x00000000        0x0 build/debug/production/src/unique.o

.bss%z315       0x00000000        0x0
 .bss           0x00000000        0x0 build/debug/production/src/tags.o

.bss%z316       0x00000000        0x0
 .bss           0x00000000        0x0 build/debug/production/src/uart3.o

.data%z317      0x00000000        0x0
 .data          0x00000000        0x0 build/debug/production/src/uart3.o

.bss%z318       0x00000000        0x0
 .bss           0x00000000        0x0 build/debug/production/src/spi.o

.data%z319      0x00000000        0x0
 .data          0x00000000        0x0 build/debug/production/src/spi.o

.bss%z320       0x00000000        0x0
 .bss           0x00000000        0x0 build/debug/production/src/mcp414x.o

.data%z321      0x00000000        0x0
 .data          0x00000000        0x0 build/debug/production/src/mcp414x.o

.bss%z322       0x00000000        0x0
 .bss           0x00000000        0x0 build/debug/production/src/nvm.o

.data%z323      0x00000000        0x0
 .data          0x00000000        0x0 build/debug/production/src/nvm.o

.bss%z324       0x00000000        0x0
 .bss           0x00000000        0x0 build/debug/production/src/comms.o

.data%z325      0x00000000        0x0
 .data          0x00000000        0x0 build/debug/production/src/comms.o

.bss%z326       0x00000000        0x0
 .bss           0x00000000        0x0 build/debug/production/src/wiegand.o

.data%z327      0x00000000        0x0
 .data          0x00000000        0x0 build/debug/production/src/wiegand.o

.bss%z328       0x00000000        0x0
 .bss           0x00000000        0x0 build/debug/production/src/hitagcrypto.o

.data%z329      0x00000000        0x0
 .data          0x00000000        0x0 build/debug/production/src/hitagcrypto.o

.bss%z330       0x00000000        0x0
 .bss           0x00000000        0x0 build/debug/production/src/detect.o

.data%z331      0x00000000        0x0
 .data          0x00000000        0x0 build/debug/production/src/detect.o

.bss%z332       0x00000000        0x0
 .bss           0x00000000        0x0 build/debug/production/src/rwd.o

.data%z333      0x00000000        0x0
 .data          0x00000000        0x0 build/debug/production/src/rwd.o

.bss%z334       0x00000000        0x0
 .bss           0x00000000        0x0 build/debug/production/src/clock.o

.data%z335      0x00000000        0x0
 .data          0x00000000        0x0 build/debug/production/src/clock.o

.bss%z336       0x00000000        0x0
 .bss           0x00000000        0x0 build/debug/production/src/fsk.o

.data%z337      0x00000000        0x0
 .data          0x00000000        0x0 build/debug/production/src/fsk.o

.bss%z338       0x00000000        0x0
 .bss           0x00000000        0x0 build/debug/production/src/ask.o

.data%z339      0x00000000        0x0
 .data          0x00000000        0x0 build/debug/production/src/ask.o

.bss%z340       0x00000000        0x0
 .bss           0x00000000        0x0 build/debug/production/src/emulate.o

.data%z341      0x00000000        0x0
 .data          0x00000000        0x0 build/debug/production/src/emulate.o

.bss%z342       0x00000000        0x0
 .bss           0x00000000        0x0 build/debug/production/src/util.o

.data%z343      0x00000000        0x0
 .data          0x00000000        0x0 build/debug/production/src/util.o

.bss%z344       0x00000000        0x0
 .bss           0x00000000        0x0 build/debug/production/src/usb_descriptors.o

.data%z345      0x00000000        0x0
 .data          0x00000000        0x0 build/debug/production/src/usb_descriptors.o

.bss%z346       0x00000000        0x0
 .bss           0x00000000        0x0 build/debug/production/src/psk.o

.data%z347      0x00000000        0x0
 .data          0x00000000        0x0 build/debug/production/src/psk.o

.data%z348      0x00000000        0x0
 .data          0x00000000        0x0 build/debug/production/src/indala.o

.bss%z349       0x00000000        0x0
 .bss           0x00000000        0x0 build/debug/production/_ext/1379786196/usb_function_cdc.o

.data%z350      0x00000000        0x0
 .data          0x00000000        0x0 build/debug/production/_ext/1379786196/usb_function_cdc.o

.bss%z351       0x00000000        0x0
 .bss           0x00000000        0x0 build/debug/production/_ext/870548313/usb_device.o

.data%z352      0x00000000        0x0
 .data          0x00000000        0x0 build/debug/production/_ext/870548313/usb_device.o

.bss%z353       0x00000000        0x0
 .bss           0x00000000        0x0 build/debug/production/_ext/2096855388/SCpic32.o

.data%z354      0x00000000        0x0
 .data          0x00000000        0x0 build/debug/production/_ext/2096855388/SCpic32.o

.bss%z355       0x00000000        0x0
 .bss           0x00000000        0x0 build/debug/production/_ext/2096855388/SClib.o

.data%z356      0x00000000        0x0
 .data          0x00000000        0x0 build/debug/production/_ext/2096855388/SClib.o

.bss%z357       0x00000000        0x0
 .bss           0x00000000        0x0 build/debug/production/_ext/71113213/FSIO.o

.data%z358      0x00000000        0x0
 .data          0x00000000        0x0 build/debug/production/_ext/71113213/FSIO.o

.data%z359      0x00000000        0x0
 .data          0x00000000        0x0 build/debug/production/_ext/71113213/SD-SPI.o

.bss%z360       0x00000000        0x0
 .bss           0x00000000        0x0 /opt/microchip/xc32/v1.21/bin/../lib/gcc/pic32mx/4.5.2/../../../../pic32mx/lib/crt0.o

.data%z361      0x00000000        0x0
 .data          0x00000000        0x0 /opt/microchip/xc32/v1.21/bin/../lib/gcc/pic32mx/4.5.2/../../../../pic32mx/lib/crt0.o

.text           0x9d006a20    0x17f40
 .text          0x9d006a20    0x114e8 build/debug/production/_ext/71113213/FSIO.o
                0x9d006a20                FSInit
                0x9d006b8c                FILEfind
                0x9d0086e0                FILEopen
                0x9d008964                FILEget_next_cluster
                0x9d008ad0                DISKmount
                0x9d008bf8                LoadMBR
                0x9d009058                LoadBootSector
                0x9d009844                GetFullClusterNumber
                0x9d00989c                FSCreateMBR
                0x9d009c18                FSformat
                0x9d00b7c4                Write_File_Entry
                0x9d00b934                FAT_erase_cluster_chain
                0x9d00baf8                Cache_File_Entry
                0x9d00bf04                CreateFileEntry
                0x9d00c5a4                CreateFirstCluster
                0x9d00c684                FindEmptyEntries
                0x9d00c970                PopulateEntries
                0x9d00cb2c                Alias_LFN_Object
                0x9d00d480                CacheTime
                0x9d00d774                FILEallocate_new_cluster
                0x9d00d8c8                FATfindEmptyCluster
                0x9d00da74                FSfclose
                0x9d00dcb8                Fill_File_Object
                0x9d00dfa0                Fill_LFN_Object
                0x9d00e10c                LoadDirAttrib
                0x9d00e23c                FILEerase
                0x9d00e4a4                FSrename
                0x9d00e6f8                wFSrename
                0x9d00e750                wFSfopen
                0x9d00e7a8                FSfopen
                0x9d00f0b8                FSftell
                0x9d00f0e8                FSremove
                0x9d00f378                wFSremove
                0x9d00f3c8                FSrewind
                0x9d00f434                FSerror
                0x9d00f458                FileObjectCopy
                0x9d00f4e4                FILECreateHeadCluster
                0x9d00f670                EraseCluster
                0x9d00f7bc                ReadByte
                0x9d00f7f8                ReadWord
                0x9d00f87c                ReadDWord
                0x9d00f910                Cluster2Sector
                0x9d00f9fc                FSattrib
                0x9d00fb50                FSfwrite
                0x9d01001c                flushData
                0x9d0100cc                FSfeof
                0x9d01010c                FSfread
                0x9d010480                FormatFileName
                0x9d010d2c                FormatDirName
                0x9d01175c                ValidateChars
                0x9d011de8                FSfseek
                0x9d0121b4                ReadFAT
                0x9d01268c                WriteFAT
                0x9d012c74                FSchdir
                0x9d012cb4                wFSchdir
                0x9d012d0c                chdirhelper
                0x9d01371c                FSgetcwd
                0x9d014570                wFSgetcwd
                0x9d0145c8                GetPreviousEntry
                0x9d014cb0                FSmkdir
                0x9d014cf0                wFSmkdir
                0x9d014d48                mkdirhelper
                0x9d0159e8                CreateDIR
                0x9d015bc8                writeDotEntries
                0x9d015e60                FSrmdir
                0x9d015eb0                wFSrmdir
                0x9d015f18                rmdirhelper
                0x9d0173c4                eraseDir
                0x9d017524                FindFirst
                0x9d017a38                FindNext
                0x9d017ea8                wFindFirst
 .text          0x9d017f08     0x6a58 build/debug/production/src/main.o
                0x9d017f08                main
                0x9d018304                UserInit
                0x9d018860                ProcessIO
                0x9d018f1c                USBCBCheckOtherReq
                0x9d018f4c                USBCBInitEP
                0x9d018f7c                USBCBSendResume
                0x9d019054                USER_USB_CALLBACK_EVENT_HANDLER
                0x9d0190ec                read_adc
                0x9d019178                ProcessSerialCommand
                0x9d01e864                parse_BL_packet

.rodata         0x9d01e960     0x4380
 .rodata        0x9d01e960     0x4380 build/debug/production/src/main.o

.text           0x9d022ce0     0x78f8
 .text          0x9d022ce0     0x36f4 build/debug/production/_ext/870548313/usb_device.o
                0x9d022ce0                USBDeviceInit
                0x9d022fdc                _USB1Interrupt
                0x9d0234c4                USBEnableEndpoint
                0x9d023568                USBTransferOnePacket
                0x9d0237e8                USBStallEndpoint
                0x9d0239f8                USBCancelIO
                0x9d023e2c                USBDeviceDetach
                0x9d023e60                USBDeviceAttach
                0x9d023f54                USBCtrlEPAllowStatusStage
                0x9d024188                USBCtrlEPAllowDataStage
 .text          0x9d0263d4     0x2618 build/debug/production/src/util.o
                0x9d0263d4                approx
                0x9d0264a0                bcdtouint
                0x9d026550                bcdtoulonglong
                0x9d026694                binarraytoint
                0x9d026718                inttobinarray
                0x9d026798                ulongtobinarray
                0x9d026818                ulonglongtobinarray
                0x9d0268c8                ulongtohex
                0x9d026934                inttobinstring
                0x9d026990                ulongtobinstring
                0x9d0269ec                binarraytoulonglong
                0x9d026aa4                binarraytoulong
                0x9d026b28                hextoulong
                0x9d026b98                hexreversetoulong
                0x9d026c84                hextoulonglong
                0x9d026cf8                hexreversetoulonglong
                0x9d026e08                hextolonglong
                0x9d026ff0                hextobinarray
                0x9d027184                hextobinstring
                0x9d0271f8                binarraytohex
                0x9d027308                hexprintbinarray
                0x9d02738c                binstringtohex
                0x9d0274ac                getbit
                0x9d0274f4                bytestohex
                0x9d027588                binstringtobinarray
                0x9d027660                binarraytobinstring
                0x9d0276f0                invertbinstring
                0x9d0277a8                printhexasbin
                0x9d027800                printbinstringashex
                0x9d027864                printbinarray
                0x9d027944                manchester_encode
                0x9d027a64                manchester_decode
                0x9d027b18                strip_newline
                0x9d027bc4                GetTimer_us
                0x9d027c28                GetTimer_ticks
                0x9d027c78                command_ack
                0x9d027d64                command_nack
                0x9d027dd8                command_unknown
                0x9d027e30                ToUpper
                0x9d027f4c                TimerWait
                0x9d027f94                Delay_us
                0x9d027ff0                string_reverse
                0x9d0280a0                string_byteswap
                0x9d028140                parity
                0x9d0281d4                get_reader_pulse
                0x9d0282cc                get_reader_gap
                0x9d0283c4                crc_ccitt
                0x9d02840c                crc16
                0x9d02850c                space_indent
                0x9d02857c                xml_version
                0x9d0285c4                xml_header
                0x9d028658                xml_footer
                0x9d028710                xml_indented_text
                0x9d02878c                xml_item_text
                0x9d0287f8                xml_item_decimal
                0x9d02888c                xml_indented_array
                0x9d02896c                xml_item_array
 .text          0x9d0289ec     0x1bec build/debug/production/src/hitag.o
                0x9d0289ec                hitag1_get_uid
                0x9d028b40                hitag1_hex_to_uid
                0x9d028b60                hitag1_select
                0x9d028bf4                hitag1_read_page
                0x9d028cc0                hitag1_send_command
                0x9d028e44                hitag1_binarray_crc
                0x9d028f1c                hitag1_crc
                0x9d028f68                hitag1_blocksize
                0x9d028f70                hitag1_datablocks
                0x9d028f78                hitag1_config_block_number
                0x9d028f80                hitag1_user_block_number
                0x9d028f88                hitag2_get_uid
                0x9d02909c                hitag2_hex_to_uid
                0x9d0290bc                hitag2_pwd_auth
                0x9d029204                hitag2_crypto_auth
                0x9d029b90                hitag2_read_page
                0x9d029cfc                hitag2_write_page
                0x9d029f9c                hitag2_test_rwd
                0x9d02a22c                hitag2_hex_crypt
                0x9d02a2f8                hitag2_binstring_crypt
                0x9d02a388                hitag2_binarray_crypt
                0x9d02a3e4                hitag2_crypt
                0x9d02a418                hitag_ac_to_bin
                0x9d02a4d8                hitag2_blocksize
                0x9d02a4e0                hitag2_datablocks
                0x9d02a4e8                hitag2_config_block_number
                0x9d02a4f0                hitag2_user_block_number
                0x9d02a4f8                hitag2_emulate_config_block

.text.vfprintf  0x9d02a5d8     0x1b30
 .text.vfprintf
                0x9d02a5d8     0x1b30 /opt/microchip/xc32/v1.21/bin/../lib/gcc/pic32mx/4.5.2/../../../../pic32mx/lib/libc.a(doprnt.o)
                0x9d02a5d8                vfprintf

.text           0x9d02c108     0xa3fc
 .text          0x9d02c108     0x19e8 build/debug/production/_ext/71113213/SD-SPI.o
                0x9d02c108                MDD_SDSPI_MediaDetect
                0x9d02c13c                MDD_SDSPI_ReadSectorSize
                0x9d02c160                MDD_SDSPI_ReadCapacity
                0x9d02c184                MDD_SDSPI_InitIO
                0x9d02c1f0                MDD_SDSPI_ShutdownMedia
                0x9d02c238                SendMMCCmd
                0x9d02c4f4                MDD_SDSPI_SectorRead
                0x9d02c598                MDD_SDSPI_AsyncReadTasks
                0x9d02ca40                MDD_SDSPI_AsyncWriteTasks
                0x9d02cfc0                MDD_SDSPI_SectorWrite
                0x9d02d0b4                MDD_SDSPI_WriteProtectState
                0x9d02d0e4                Delayms
                0x9d02d15c                CloseSPIM
                0x9d02d190                WriteSPIM
                0x9d02d1f0                MDD_SDSPI_ReadMedia
                0x9d02d244                OpenSPIM
                0x9d02d384                InitSPISlowMode
                0x9d02d464                MDD_SDSPI_MediaInitialize
 .text          0x9d02daf0     0x1820 build/debug/production/src/tags.o
                0x9d02daf0                tag_list
                0x9d02dbc4                tag_get_type
                0x9d02dc6c                tag_get_blocksize
                0x9d02dd20                tag_get_datablocks
                0x9d02ddd4                tag_get_databits
                0x9d02df20                auto_detect_tag_type
                0x9d02e068                tag_set
                0x9d02f130                tag_uid_to_hex
 .text          0x9d02f310     0x127c build/debug/production/_ext/2096855388/SClib.o
                0x9d02f310                SC_Initialize
                0x9d02f340                SC_CardPresent
                0x9d02f364                SC_PowerOnATR
                0x9d02f8ac                SC_DoPPS
                0x9d02fcec                SC_GetCardState
                0x9d02fd2c                SC_Shutdown
                0x9d030178                SC_TransactT0
 .text          0x9d03058c     0x11f8 build/debug/production/src/isr.o
                0x9d03058c                reader_clock_tick
                0x9d030a7c                emulation_send_bit
                0x9d030f84                HW_read_bit
 .text          0x9d031784     0x1158 build/debug/production/src/vtag.o
                0x9d031784                vtag_wipe
                0x9d0317c4                vtag_dump
                0x9d031a68                vtag_set_tag_type
                0x9d031ad0                vtag_set_tag_from_type
                0x9d031b54                vtag_create_from_uid
                0x9d031dac                vtag_copy_from_tag
                0x9d032108                vtag_convert
                0x9d0321d8                vtag_write_to_tag
                0x9d032690                vtag_write_blocks
 .text          0x9d0328dc     0x1128 /opt/microchip/xc32/v1.21/bin/../lib/gcc/pic32mx/4.5.2/../../../../pic32mx/lib/libm.a(dp32.o)
                0x9d0328dc                dpsub
                0x9d0328dc                __subdf3
                0x9d0328e4                __adddf3
                0x9d0328e4                dpadd
                0x9d032d08                __muldf3
                0x9d032d08                dpmul
                0x9d033030                __divdf3
                0x9d033030                dpdiv
                0x9d0334e4                __floatsidf
                0x9d0334e4                litodp
                0x9d033558                ultodp
                0x9d0335a8                fptodp
                0x9d0335a8                __extendsfdf2
                0x9d03364c                dptofp
                0x9d03364c                __truncdfsf2
                0x9d033744                dptoli
                0x9d033744                __fixdfsi
                0x9d0337cc                __fixunsdfsi
                0x9d0337cc                dptoul
                0x9d033850                __gtdf2
                0x9d033850                __ltdf2
                0x9d033850                __gedf2
                0x9d033850                __ledf2
                0x9d033850                dpcmp
                0x9d033850                __nedf2
                0x9d033850                __eqdf2
                0x9d033974                __negdf2
                0x9d03398c                dpfabs
                0x9d03398c                fabs
                0x9d0339a8                nan
                0x9d0339a8                dpnan
 .text          0x9d033a04      0xf50 build/debug/production/src/wiegand.o
                0x9d033a04                learn_wiegand
                0x9d033f84                read_wiegand
                0x9d03429c                read_wiegand_bit
                0x9d03441c                write_wiegand
                0x9d034498                write_wiegand_uid
                0x9d0344d8                write_wiegand_bit
                0x9d034660                wiegand_test
                0x9d034744                wiegand_add_parity
                0x9d03481c                wiegand_out_disable
                0x9d034868                wiegand_out_enable
                0x9d0348f0                wiegand_set_pullups
 .text          0x9d034954      0xe28 build/debug/production/src/q5.o
                0x9d034954                q5_send_command
                0x9d034b98                q5_get_uid
                0x9d034c70                q5_hex_to_uid
                0x9d034cb0                q5_read_block
                0x9d034e50                q5_write_block
                0x9d0350a4                q5_login
                0x9d0351f8                q5_rwd_test
                0x9d0355ac                q5_blocksize
                0x9d0355d0                q5_datablocks
                0x9d0355f4                q5_config_block_number
                0x9d035618                q5_user_block_number
                0x9d03563c                q5_emulate_config_block
 .text          0x9d03577c      0xd88 build/debug/production/src/fsk.o
                0x9d03577c                send_fsk_hex
                0x9d03584c                send_fsk_bin
                0x9d0358f4                write_FSK_HW_clock
                0x9d035a70                fsk_raw_get_uid
                0x9d035c18                read_fsk_data
                0x9d035f28                fsk_raw_hex_to_uid
                0x9d035f74                read_FSK_HW_clock
                0x9d036308                fskbinarraytobinarray

.text._vfprintf_cdnopuxX
                0x9d036504      0xab0
 .text._vfprintf_cdnopuxX
                0x9d036504      0xab0 /opt/microchip/xc32/v1.21/bin/../lib/gcc/pic32mx/4.5.2/../../../../pic32mx/lib/libc.a(doprnt_cdnopuxX.eo)
                0x9d036504                _vfprintf_cdnopuxX

.text._vfscanf_cdfFnopsuxX
                0x9d036fb4      0xa7c
 .text._vfscanf_cdfFnopsuxX
                0x9d036fb4      0xa7c /opt/microchip/xc32/v1.21/bin/../lib/gcc/pic32mx/4.5.2/../../../../pic32mx/lib/libc.a(doscan_cdfFnopsuxX.eo)
                0x9d036fb4                _vfscanf_cdfFnopsuxX

.text           0x9d037a30     0x39c4
 .text          0x9d037a30      0xa70 build/debug/production/src/ask.o
                0x9d037a30                send_ask_hex
                0x9d037abc                send_ask_bin
                0x9d037b44                ask_raw_get_uid
                0x9d037cbc                ask_raw_hex_to_uid
                0x9d037d08                read_ask_data
                0x9d037fec                write_ASK_HW_clock
                0x9d0381b8                read_ASK_HW_clock
 .text          0x9d0384a0      0xa38 build/debug/production/_ext/1379786196/usb_function_cdc.o
                0x9d0384a0                USBCheckCDCRequest
                0x9d038810                CDCInitEP
                0x9d03889c                USBCDCEventHandler
                0x9d03893c                getsUSBUSART
                0x9d038a80                putUSBUSART
                0x9d038af0                putsUSBUSART
                0x9d038bc4                putrsUSBUSART
                0x9d038c94                CDCTxService
 .text          0x9d038ed8      0xa00 build/debug/production/src/psk.o
                0x9d038ed8                read_psk1_data
                0x9d039228                send_psk1_hex
                0x9d0392bc                send_psk1_bin
                0x9d039380                write_PSK1_HW_clock
                0x9d039500                read_PSK1_HW_clock
                0x9d0396e8                psk1_raw_get_uid
                0x9d039870                psk1_raw_hex_to_uid
 .text          0x9d0398d8      0x9a0 build/debug/production/src/comms.o
                0x9d0398d8                UserMessage
                0x9d039994                UserBinary
                0x9d039a08                UserBinaryByte
                0x9d039a7c                UserMessageNum
                0x9d039af4                GetUserMessage
                0x9d039b70                SendUART3Message
                0x9d039bec                GetUART3Message
                0x9d039d80                SendUSBMessage
                0x9d039e48                get_prompt
                0x9d039ee4                BlinkCommsStatus
                0x9d03a1a4                get_user_abort
                0x9d03a1fc                eod
 .text          0x9d03a278      0x8ec /opt/microchip/xc32/v1.21/bin/../lib/gcc/pic32mx/4.5.2/../../../../pic32mx/lib/libm.a(fp32.o)
                0x9d03a278                __subsf3
                0x9d03a278                fpsub
                0x9d03a280                fpadd
                0x9d03a280                __addsf3
                0x9d03a4ec                fpmul
                0x9d03a4ec                __mulsf3
                0x9d03a6a4                __divsf3
                0x9d03a6a4                fpdiv
                0x9d03a8d0                litofp
                0x9d03a8d0                sitofp
                0x9d03a8d0                __floatsisf
                0x9d03a92c                ultofp
                0x9d03a92c                uitofp
                0x9d03a978                fptosi
                0x9d03a978                fptoli
                0x9d03a978                __fixsfsi
                0x9d03a9f0                __fixunssfsi
                0x9d03a9f0                fptoul
                0x9d03a9f0                fptoui
                0x9d03aa64                __gesf2
                0x9d03aa64                fpcmp
                0x9d03aa64                __lesf2
                0x9d03aa64                __ltsf2
                0x9d03aa64                __gtsf2
                0x9d03aa64                __eqsf2
                0x9d03aa64                __nesf2
                0x9d03aaf8                fabsf
                0x9d03aaf8                fpfabs
                0x9d03ab08                __negsf2
                0x9d03ab18                fpnan
                0x9d03ab18                nanf
 .text          0x9d03ab64      0x890 build/debug/production/src/hitagcrypto.o
                0x9d03ac54                hitag2_init
                0x9d03b030                hitag2_nstep
                0x9d03b14c                hitag2_benchtest_gen32
                0x9d03b1f4                hitag2_benchtest
                0x9d03b2d4                hitag2_verifytest

.text._vfscanf_cdnopuxX
                0x9d03b3f4      0x884
 .text._vfscanf_cdnopuxX
                0x9d03b3f4      0x884 /opt/microchip/xc32/v1.21/bin/../lib/gcc/pic32mx/4.5.2/../../../../pic32mx/lib/libc.a(doscan_cdnopuxX.eo)
                0x9d03b3f4                _vfscanf_cdnopuxX

.text           0x9d03bc78     0x107c
 .text          0x9d03bc78      0x854 build/debug/production/src/clock.o
                0x9d03bc78                InitHWReaderClock
                0x9d03bf18                InitHWReaderISR
                0x9d03bfdc                stop_HW_clock
                0x9d03c0b0                stop_HW_reader_ISR
                0x9d03c114                clock_test
 .text          0x9d03c4cc      0x828 build/debug/production/_ext/2096855388/SCpic32.o
                0x9d03c4cc                WaitMicroSec
                0x9d03c544                WaitMilliSec
                0x9d03c5a4                SCdrv_SendTxData
                0x9d03c6fc                SCdrv_GetRxData
                0x9d03c8ec                SCdrv_SetBRG
                0x9d03c97c                SCdrv_CloseUART
                0x9d03c9bc                SCdrv_InitUART
                0x9d03cc64                T1Interrupt

.rodata         0x9d03ccf4      0x7d4
 .rodata        0x9d03ccf4      0x7d4 /opt/microchip/xc32/v1.21/pic32mx/lib/libmchp_peripheral_32MX795F512L.a(int_tbl_lib.o)
                0x9d03ccf4                __IntSrcTbl
                0x9d03d210                __IntVectorTbl

.text           0x9d03d4c8     0x4518
 .text          0x9d03d4c8      0x7d0 build/debug/production/src/fdxb.o
                0x9d03d4c8                fdxb_get_uid
                0x9d03d500                uid_to_fdxb_hex
                0x9d03d574                uid_to_fdxb_bin
                0x9d03d884                fdxb_hex_to_uid
                0x9d03d9d8                fdxb_hex_to_bin
 .text          0x9d03dc98      0x790 build/debug/production/src/nvm.o
                0x9d03dc98                saveconfig
                0x9d03dd14                checkconfigchanged
                0x9d03dda0                loadconfig
                0x9d03de70                wipeconfig
                0x9d03dee0                showconfig
 .text          0x9d03e428      0x728 build/debug/production/src/analogue.o
                0x9d03e428                init_adc
                0x9d03e540                analogue_sample
                0x9d03e604                analogue_xml_out
                0x9d03e94c                analogue_frequency
 .text          0x9d03eb50      0x614 build/debug/production/src/awid.o
                0x9d03eb50                bcd_to_awid26_hex
                0x9d03ebb8                awid26_hex_to_uid
                0x9d03eeb4                bcd_to_awid26_bin
                0x9d03f12c                awid26_get_uid
 .text          0x9d03f164      0x598 build/debug/production/src/mcp414x.o
                0x9d03f164                send_mcp414_command
                0x9d03f280                get_mcp414_status
                0x9d03f2d4                increment_mcp414
                0x9d03f354                decrement_mcp414
                0x9d03f3d4                get_mcp414_wiper
                0x9d03f494                set_mcp414_wiper
                0x9d03f554                show_mcp414_wipers
 .text          0x9d03f6fc      0x4c0 build/debug/production/src/em.o
                0x9d03f6fc                em4x02_get_uid
                0x9d03f734                em4x02_hex_to_uid
                0x9d03f7a4                hex_to_em4x02_hex
                0x9d03f80c                hex_to_em4x02_bin
                0x9d03f8f8                em4x02_hex_to_bin
                0x9d03fa10                bin_to_em4x02_bin
 .text          0x9d03fbbc      0x4b8 build/debug/production/src/led.o
                0x9d03fbbc                led_get
                0x9d03fd04                led_set
                0x9d03ff8c                led_toggle
                0x9d03ffec                led_on
                0x9d040030                led_off
 .text          0x9d040074      0x460 build/debug/production/src/indala.o
                0x9d040074                send_indala_raw
                0x9d040394                indala64_get_uid
                0x9d0403cc                indala64_hex_to_uid
                0x9d040434                indala224_get_uid
                0x9d04046c                indala224_hex_to_uid
 .text          0x9d0404d4      0x460 /opt/microchip/xc32/v1.21/bin/../lib/gcc/pic32mx/4.5.2/libgcc.a(_umoddi3.o)
                0x9d0404d4                __umoddi3
 .text          0x9d040934      0x444 build/debug/production/src/uid.o
                0x9d040934                get_tag_uid
                0x9d040ae4                interpret_uid
                0x9d040cf0                get_interpreted_tag_uid
 .text          0x9d040d78      0x440 /opt/microchip/xc32/v1.21/bin/../lib/gcc/pic32mx/4.5.2/libgcc.a(_udivdi3.o)
                0x9d040d78                __udivdi3
 .text          0x9d0411b8      0x434 build/debug/production/src/debug_pins.o
                0x9d0411b8                debug_get
                0x9d0412b0                debug_set
                0x9d041454                debug_toggle
                0x9d0414b4                debug_on
                0x9d0414f8                debug_off
                0x9d04153c                debug_show
 .text          0x9d0415ec      0x3f4 build/debug/production/src/auto.o
                0x9d0415ec                autopot
                0x9d04177c                autorate

.text.__strtod  0x9d0419e0      0x3e8
 .text.__strtod
                0x9d0419e0      0x3e8 /opt/microchip/xc32/v1.21/bin/../lib/gcc/pic32mx/4.5.2/../../../../pic32mx/lib/libe.a(_strtod.o)
                0x9d0419e0                __strtod

.text           0x9d041dc8      0xb70
 .text          0x9d041dc8      0x3dc /opt/microchip/xc32/v1.21/bin/../lib/gcc/pic32mx/4.5.2/../../../../pic32mx/lib/libm.a(fpmod32.o)
                0x9d041dc8                fmodf
                0x9d041dc8                fpfmod
                0x9d041f0c                fpfrexp
                0x9d041f0c                frexpf
                0x9d041f90                fpldexp
                0x9d041f90                __mchp_ldexpf
                0x9d0420d4                modff
                0x9d0420d4                fpmodf
 .text          0x9d0421a4      0x3d8 build/debug/production/src/uart3.o
                0x9d0421a4                UART3GetBaudError
                0x9d0421d4                UART3GetChar
                0x9d04222c                UART3Init
                0x9d0422c8                UART3IsPressed
                0x9d04230c                UART3PrintString
                0x9d04237c                UART3PutChar
                0x9d0423c8                UART3PutDec
                0x9d042538                UART3ClrError
 .text          0x9d04257c      0x3bc build/debug/production/src/rwd.o
                0x9d04257c                rwd_set_pwm
                0x9d04262c                rwd_send
                0x9d042894                rwd_test

.rodata         0x9d042938      0x3b8
 .rodata        0x9d042938      0x3b8 build/debug/production/src/nvm.o

.text           0x9d042cf0      0x358
 .text          0x9d042cf0      0x358 build/debug/production/src/hid.o
                0x9d042cf0                bcd_to_hid26_hex
                0x9d042d58                hid26_hex_to_uid
                0x9d042e80                bcd_to_hid26_bin
                0x9d043010                hid26_get_uid

.text.__strtof  0x9d043048      0x358
 .text.__strtof
                0x9d043048      0x358 /opt/microchip/xc32/v1.21/bin/../lib/gcc/pic32mx/4.5.2/../../../../pic32mx/lib/libe.a(_strtof.o)
                0x9d043048                __strtof

.text           0x9d0433a0      0x34c
 .text          0x9d0433a0      0x34c build/debug/production/src/emulate.o
                0x9d0433a0                emulate_tag

.dinit          0x9d0436ec      0x348
 .dinit         0x9d0436ec      0x348 data_init

.text           0x9d043a34      0x870
 .text          0x9d043a34      0x31c build/debug/production/src/spi.o
                0x9d043a34                initSpiTransfer
                0x9d043a98                initSpiTransfer16
                0x9d043af4                sendSpiCommand
                0x9d043c04                sendSpiCommand16
                0x9d043d14                pauseSpi
 .text          0x9d043d50      0x2b0 build/debug/production/src/unique.o
                0x9d043d50                unique_get_uid
                0x9d043d88                unique_hex_to_uid
                0x9d043dc8                hex_to_unique_hex
                0x9d043e30                unique_hex_to_hex
                0x9d043ed8                hex_to_unique_bin
 .text          0x9d044000      0x2a4 build/debug/production/src/sdcard.o
                0x9d044000                sdcard_test

.text.__floatdisf
                0x9d0442a4      0x220
 .text.__floatdisf
                0x9d0442a4      0x220 /opt/microchip/xc32/v1.21/bin/../lib/gcc/pic32mx/4.5.2/../../../../pic32mx/lib/libe.a(_floatdisf.o)
                0x9d0442a4                __floatdisf

.text           0x9d0444c4      0x5c4
 .text          0x9d0444c4      0x210 build/debug/production/src/detect.o
                0x9d0444c4                detect_external_clock
 .text          0x9d0446d4      0x1e0 build/debug/production/src/config.o
                0x9d0446d4                config_block_number
                0x9d044774                config_user_block
                0x9d044814                config_block
 .text          0x9d0448b4      0x1d4 build/debug/production/src/read.o
                0x9d0448b4                read_tag

.text.__ldexp   0x9d044a88      0x1d0
 .text.__ldexp  0x9d044a88      0x1d0 /opt/microchip/xc32/v1.21/bin/../lib/gcc/pic32mx/4.5.2/../../../../pic32mx/lib/libe.a(_ldexp.o)
                0x9d044a88                __ldexp

.text           0x9d044c58      0x1a0
 .text          0x9d044c58      0x1a0 /opt/microchip/xc32/v1.21/bin/../lib/gcc/pic32mx/4.5.2/../../../../pic32mx/lib/libpic32.a(strcpy.o)
                0x9d044c58                strcpy

.text.scale     0x9d044df8      0x194
 .text.scale    0x9d044df8      0x194 /opt/microchip/xc32/v1.21/bin/../lib/gcc/pic32mx/4.5.2/../../../../pic32mx/lib/libc.a(doprnt.o)

.text.fround    0x9d044f8c      0x17c
 .text.fround   0x9d044f8c      0x17c /opt/microchip/xc32/v1.21/bin/../lib/gcc/pic32mx/4.5.2/../../../../pic32mx/lib/libc.a(doprnt.o)

.rodata         0x9d045108      0x16c
 .rodata        0x9d045108      0x16c build/debug/production/src/analogue.o

.text.NVMProgram
                0x9d045274      0x16c
 .text.NVMProgram
                0x9d045274      0x16c /opt/microchip/xc32/v1.21/pic32mx/lib/libmchp_peripheral_32MX795F512L.a(nvm_program_lib.o)
                0x9d045274                NVMProgram

.text           0x9d0453e0      0x2d0
 .text          0x9d0453e0      0x168 /opt/microchip/xc32/v1.21/bin/../lib/gcc/pic32mx/4.5.2/../../../../pic32mx/lib/libpic32.a(memcpy.o)
                0x9d0453e0                memcpy
 .text          0x9d045548      0x168 /opt/microchip/xc32/v1.21/bin/../lib/gcc/pic32mx/4.5.2/../../../../pic32mx/lib/libpic32.a(strlen.o)
                0x9d045548                strlen

.text._filbuf   0x9d0456b0      0x168
 .text._filbuf  0x9d0456b0      0x168 /opt/microchip/xc32/v1.21/bin/../lib/gcc/pic32mx/4.5.2/../../../../pic32mx/lib/libc.a(filbuf.o)
                0x9d0456b0                _filbuf

.text.SpiChnOpen
                0x9d045818      0x150
 .text.SpiChnOpen
                0x9d045818      0x150 /opt/microchip/xc32/v1.21/pic32mx/lib/libmchp_peripheral_32MX795F512L.a(spi_chn_open_lib.o)
                0x9d045818                SpiChnOpen

.text.fputc     0x9d045968      0x140
 .text.fputc    0x9d045968      0x140 /opt/microchip/xc32/v1.21/bin/../lib/gcc/pic32mx/4.5.2/../../../../pic32mx/lib/libc.a(_fputc_simple.o)
                0x9d045968                fputc

.text.read      0x9d045aa8      0x140
 .text.read     0x9d045aa8      0x140 /opt/microchip/xc32/v1.21/bin/../lib/gcc/pic32mx/4.5.2/../../../../pic32mx/lib/libpic32.a(read.o)
                0x9d045aa8                read

.rodata         0x9d045be8      0x12c
 .rodata        0x9d045be8      0x12c build/debug/production/src/mcp414x.o

.text._flsbuf   0x9d045d14      0x12c
 .text._flsbuf  0x9d045d14      0x12c /opt/microchip/xc32/v1.21/bin/../lib/gcc/pic32mx/4.5.2/../../../../pic32mx/lib/libc.a(_flsbuf_simple.o)
                0x9d045d14                _flsbuf

.text           0x9d045e40      0x120
 .text          0x9d045e40      0x120 /opt/microchip/xc32/v1.21/bin/../lib/gcc/pic32mx/4.5.2/../../../../pic32mx/lib/libpic32.a(strcmp.o)
                0x9d045e40                strcmp

.text._NVMOperation
                0x9d045f60      0x114
 .text._NVMOperation
                0x9d045f60      0x114 /opt/microchip/xc32/v1.21/pic32mx/lib/libmchp_peripheral_32MX795F512L.a(nvm_operation_lib.o)
                0x9d045f60                _NVMOperation

.text.fgetc     0x9d046074      0x108
 .text.fgetc    0x9d046074      0x108 /opt/microchip/xc32/v1.21/bin/../lib/gcc/pic32mx/4.5.2/../../../../pic32mx/lib/libc.a(fgetc.o)
                0x9d046074                fgetc

.rodata         0x9d04617c      0x104
 .rodata        0x9d04617c      0x104 /opt/microchip/xc32/v1.21/bin/../lib/gcc/pic32mx/4.5.2/../../../../pic32mx/lib/libc.a(ctype.o)
                0x9d04617c                _ctype

.text.__ldexpf  0x9d046280      0x104
 .text.__ldexpf
                0x9d046280      0x104 /opt/microchip/xc32/v1.21/bin/../lib/gcc/pic32mx/4.5.2/../../../../pic32mx/lib/libe.a(_ldexpf.o)
                0x9d046280                __ldexpf

.rodata         0x9d046384      0x398
 .rodata        0x9d046384       0xf0 build/debug/production/_ext/71113213/SD-SPI.o
                0x9d046384                sdmmc_cmdtable
 .rodata        0x9d046474       0xec build/debug/production/src/hitag.o
 .rodata        0x9d046560       0xe8 /opt/microchip/xc32/v1.21/bin/../lib/gcc/pic32mx/4.5.2/../../../../pic32mx/lib/libc.a(doprnt.o)
 .rodata        0x9d046648       0xd4 build/debug/production/src/usb_descriptors.o
                0x9d046648                device_dsc
                0x9d04665c                configDescriptor1
                0x9d0466a0                sd000
                0x9d0466a4                sd001
                0x9d0466d8                sd002
                0x9d04670c                USB_CD_Ptr
                0x9d046710                USB_SD_Ptr

.text           0x9d04671c       0xd4
 .text          0x9d04671c       0xd4 /opt/microchip/xc32/v1.21/bin/../lib/gcc/pic32mx/4.5.2/libgcc.a(_floatundisf.o)
                0x9d04671c                __floatundisf

.text.general_exception
                0x9d0467f0       0xd0
 .text.general_exception
                0x9d0467f0       0xd0 /opt/microchip/xc32/v1.21/bin/../lib/gcc/pic32mx/4.5.2/../../../../pic32mx/lib/libpic32.a(general-exception.o)
                0x9d0467f0                _general_exception_context

.rodata         0x9d0468c0      0x260
 .rodata        0x9d0468c0       0xd0 /opt/microchip/xc32/v1.21/bin/../lib/gcc/pic32mx/4.5.2/../../../../pic32mx/lib/libc.a(doprnt_cdnopuxX.eo)
 .rodata        0x9d046990       0xc8 build/debug/production/src/tags.o
 .rodata        0x9d046a58       0xc8 build/debug/production/src/vtag.o

.text.SpiChnClose
                0x9d046b20       0xbc
 .text.SpiChnClose
                0x9d046b20       0xbc /opt/microchip/xc32/v1.21/pic32mx/lib/libmchp_peripheral_32MX795F512L.a(spi_chn_close_lib.o)
                0x9d046b20                SpiChnClose

.text           0x9d046bdc       0xb8
 .text          0x9d046bdc       0xb8 build/debug/production/src/write.o
                0x9d046bdc                write_tag

.text._mon_putc
                0x9d046c94       0xb4
 .text._mon_putc
                0x9d046c94       0xb4 /opt/microchip/xc32/v1.21/bin/../lib/gcc/pic32mx/4.5.2/../../../../pic32mx/lib/libpic32.a(_mon_putc.o)
                0x9d046c94                _mon_putc

.text           0x9d046d48       0xa8
 .text          0x9d046d48       0xa8 /opt/microchip/xc32/v1.21/bin/../lib/gcc/pic32mx/4.5.2/../../../../pic32mx/lib/libpic32.a(memset.o)
                0x9d046d48                memset

.rodata         0x9d046df0       0xa4
 .rodata        0x9d046df0       0xa4 build/debug/production/src/util.o
                0x9d046df0                TimeScaler
                0x9d046df4                TimeScaler2

.text           0x9d046e94      0x144
 .text          0x9d046e94       0xa4 build/debug/production/src/select.o
                0x9d046e94                select_tag
 .text          0x9d046f38       0xa0 build/debug/production/src/login.o
                0x9d046f38                tag_login

.rodata         0x9d046fd8       0xa0
 .rodata        0x9d046fd8       0xa0 /opt/microchip/xc32/v1.21/pic32mx/lib/libmchp_peripheral_32MX795F512L.a(spi_io_tbl_libp.o)
                0x9d046fd8                _SpiIoTbl

.text.atoi      0x9d047078       0xa0
 .text.atoi     0x9d047078       0xa0 /opt/microchip/xc32/v1.21/bin/../lib/gcc/pic32mx/4.5.2/../../../../pic32mx/lib/libc.a(atoi.o)
                0x9d047078                atoi

.rodata         0x9d047118       0x9c
 .rodata        0x9d047118       0x9c build/debug/production/src/q5.o

.text           0x9d0471b4       0x98
 .text          0x9d0471b4       0x98 /opt/microchip/xc32/v1.21/bin/../lib/gcc/pic32mx/4.5.2/../../../../pic32mx/lib/libpic32.a(memcmp.o)
                0x9d0471b4                memcmp

.text.rand      0x9d04724c       0x98
 .text.rand     0x9d04724c       0x98 /opt/microchip/xc32/v1.21/bin/../lib/gcc/pic32mx/4.5.2/../../../../pic32mx/lib/libc.a(rand.o)
                0x9d04724c                rand

.rodata         0x9d0472e4       0x94
 .rodata        0x9d0472e4       0x94 build/debug/production/src/sdcard.o

.text.range     0x9d047378      0x120
 .text.range    0x9d047378       0x90 /opt/microchip/xc32/v1.21/bin/../lib/gcc/pic32mx/4.5.2/../../../../pic32mx/lib/libc.a(doscan_cdfFnopsuxX.eo)
 .text.range    0x9d047408       0x90 /opt/microchip/xc32/v1.21/bin/../lib/gcc/pic32mx/4.5.2/../../../../pic32mx/lib/libc.a(doscan_cdnopuxX.eo)

.text.fflush    0x9d047498       0x90
 .text.fflush   0x9d047498       0x90 /opt/microchip/xc32/v1.21/bin/../lib/gcc/pic32mx/4.5.2/../../../../pic32mx/lib/libc.a(fflush.o)
                0x9d047498                fflush

.rodata         0x9d047528       0x84
 .rodata        0x9d047528       0x84 build/debug/production/src/clock.o

.text.write     0x9d0475ac       0x84
 .text.write    0x9d0475ac       0x84 /opt/microchip/xc32/v1.21/bin/../lib/gcc/pic32mx/4.5.2/../../../../pic32mx/lib/libpic32.a(write.o)
                0x9d0475ac                write

.rodata         0x9d047630       0x80
 .rodata        0x9d047630       0x80 /opt/microchip/xc32/v1.21/pic32mx/lib/libmchp_peripheral_32MX795F512L.a(spi_brg_tbl_lib_legacy.o)
                0x9d047630                _SpiBrgConvTbl

.text.SoftReset
                0x9d0476b0       0x78
 .text.SoftReset
                0x9d0476b0       0x78 /opt/microchip/xc32/v1.21/pic32mx/lib/libmchp_peripheral_32MX795F512L.a(soft_reset_lib.o)
                0x9d0476b0                SoftReset

.text.strncmp   0x9d047728       0x74
 .text.strncmp  0x9d047728       0x74 /opt/microchip/xc32/v1.21/bin/../lib/gcc/pic32mx/4.5.2/../../../../pic32mx/lib/libc.a(strncmp.o)
                0x9d047728                strncmp

.text.ungetc    0x9d04779c       0x74
 .text.ungetc   0x9d04779c       0x74 /opt/microchip/xc32/v1.21/bin/../lib/gcc/pic32mx/4.5.2/../../../../pic32mx/lib/libc.a(ungetc.o)
                0x9d04779c                ungetc

.text           0x9d047810       0x6c
 .text          0x9d047810       0x6c build/debug/production/src/auth.o
                0x9d047810                tag_auth

.rodata         0x9d04787c       0x68
 .rodata        0x9d04787c       0x68 build/debug/production/src/wiegand.o

.text._sprintf_cdnopuxX
                0x9d0478e4       0x68
 .text._sprintf_cdnopuxX
                0x9d0478e4       0x68 /opt/microchip/xc32/v1.21/bin/../lib/gcc/pic32mx/4.5.2/../../../../pic32mx/lib/libc.a(sprintf_cdnopuxX.eo)
                0x9d0478e4                _sprintf_cdnopuxX

.text.sprintf   0x9d04794c       0x68
 .text.sprintf  0x9d04794c       0x68 /opt/microchip/xc32/v1.21/bin/../lib/gcc/pic32mx/4.5.2/../../../../pic32mx/lib/libc.a(sprintf.o)
                0x9d04794c                sprintf

.rodata         0x9d0479b4       0xcc
 .rodata        0x9d0479b4       0x68 /opt/microchip/xc32/v1.21/bin/../lib/gcc/pic32mx/4.5.2/../../../../pic32mx/lib/libc.a(powersf.o)
                0x9d0479b4                _powers_f
                0x9d0479e8                _npowers_f
 .rodata        0x9d047a1c       0x64 build/debug/production/src/auto.o

.text.OpenSPI1  0x9d047a80       0x60
 .text.OpenSPI1
                0x9d047a80       0x60 /opt/microchip/xc32/v1.21/pic32mx/lib/libmchp_peripheral_32MX795F512L.a(spi_open_spi1_lib_legacy.o)
                0x9d047a80                OpenSPI1

.text.wspace    0x9d047ae0       0xc0
 .text.wspace   0x9d047ae0       0x60 /opt/microchip/xc32/v1.21/bin/../lib/gcc/pic32mx/4.5.2/../../../../pic32mx/lib/libc.a(doscan_cdfFnopsuxX.eo)
 .text.wspace   0x9d047b40       0x60 /opt/microchip/xc32/v1.21/bin/../lib/gcc/pic32mx/4.5.2/../../../../pic32mx/lib/libc.a(doscan_cdnopuxX.eo)

.text.strncpy   0x9d047ba0       0x5c
 .text.strncpy  0x9d047ba0       0x5c /opt/microchip/xc32/v1.21/bin/../lib/gcc/pic32mx/4.5.2/../../../../pic32mx/lib/libc.a(strncpy.o)
                0x9d047ba0                strncpy

.rodata         0x9d047bfc       0x54
 .rodata        0x9d047bfc       0x54 /opt/microchip/xc32/v1.21/pic32mx/lib/libmchp_peripheral_32MX795F512L.a(_ports_tbl_libp.o)
                0x9d047bfc                PortRegTbl

.text._sscanf_cdfFnopsuxX
                0x9d047c50       0x54
 .text._sscanf_cdfFnopsuxX
                0x9d047c50       0x54 /opt/microchip/xc32/v1.21/bin/../lib/gcc/pic32mx/4.5.2/../../../../pic32mx/lib/libc.a(sscanf_cdfFnopsuxX.eo)
                0x9d047c50                _sscanf_cdfFnopsuxX
                0x9d047c50                _sscanf_cdnopuxX

.text.INTEnable
                0x9d047ca4       0x50
 .text.INTEnable
                0x9d047ca4       0x50 /opt/microchip/xc32/v1.21/pic32mx/lib/libmchp_peripheral_32MX795F512L.a(int_tbl_lib.o)
                0x9d047ca4                INTEnable

.rodata         0x9d047cf4       0x4c
 .rodata        0x9d047cf4       0x4c build/debug/production/src/comms.o

.text           0x9d047d40       0x4c
 .text          0x9d047d40       0x4c /opt/microchip/xc32/v1.21/bin/../lib/gcc/pic32mx/4.5.2/libgcc.a(floatunsisf.o)
                0x9d047d40                __floatunsisf

.text._DefaultInterrupt
                0x9d047d8c       0x48
 .text._DefaultInterrupt
                0x9d047d8c       0x48 /opt/microchip/xc32/v1.21/bin/../lib/gcc/pic32mx/4.5.2/../../../../pic32mx/lib/libpic32.a(defaultinterrupt.o)
                0x9d047d8c                _DefaultInterrupt

.rodata.f5pow.f5pow
                0x9d047dd4       0x48
 .rodata.f5pow.f5pow
                0x9d047dd4       0x48 /opt/microchip/xc32/v1.21/bin/../lib/gcc/pic32mx/4.5.2/../../../../pic32mx/lib/libe.a(_strtod.o)

.text           0x9d047e1c       0x88
 .text          0x9d047e1c       0x44 /opt/microchip/xc32/v1.21/bin/../lib/gcc/pic32mx/4.5.2/libgcc.a(_lshrdi3.o)
                0x9d047e1c                __lshrdi3
 .text          0x9d047e60       0x44 /opt/microchip/xc32/v1.21/bin/../lib/gcc/pic32mx/4.5.2/libgcc.a(_ashldi3.o)
                0x9d047e60                __ashldi3

.rodata         0x9d047ea4       0x80
 .rodata        0x9d047ea4       0x40 build/debug/production/src/hid.o
 .rodata        0x9d047ee4       0x40 build/debug/production/src/awid.o

.text.PORTSetPinsDigitalIn
                0x9d047f24       0x3c
 .text.PORTSetPinsDigitalIn
                0x9d047f24       0x3c /opt/microchip/xc32/v1.21/pic32mx/lib/libmchp_peripheral_32MX795F512L.a(port_set_pins_digital_in_lib.o)
                0x9d047f24                PORTSetPinsDigitalIn

.text.PORTSetPinsDigitalOut
                0x9d047f60       0x3c
 .text.PORTSetPinsDigitalOut
                0x9d047f60       0x3c /opt/microchip/xc32/v1.21/pic32mx/lib/libmchp_peripheral_32MX795F512L.a(port_set_pins_digital_out_lib.o)
                0x9d047f60                PORTSetPinsDigitalOut

.text           0x9d047f9c       0x38
 .text          0x9d047f9c       0x38 /opt/microchip/xc32/v1.21/bin/../lib/gcc/pic32mx/4.5.2/../../../../pic32mx/lib/crt0.o
                0x9d047fc8                __crt0_exit

.text.INTSetVectorPriority
                0x9d047fd4       0x38
 .text.INTSetVectorPriority
                0x9d047fd4       0x38 /opt/microchip/xc32/v1.21/pic32mx/lib/libmchp_peripheral_32MX795F512L.a(int_tbl_lib.o)
                0x9d047fd4                INTSetVectorPriority

.text.INTSetVectorSubPriority
                0x9d04800c       0x38
 .text.INTSetVectorSubPriority
                0x9d04800c       0x38 /opt/microchip/xc32/v1.21/pic32mx/lib/libmchp_peripheral_32MX795F512L.a(int_tbl_lib.o)
                0x9d04800c                INTSetVectorSubPriority

.text.NVMWriteRow
                0x9d048044       0x38
 .text.NVMWriteRow
                0x9d048044       0x38 /opt/microchip/xc32/v1.21/pic32mx/lib/libmchp_peripheral_32MX795F512L.a(nvm_write_row_lib.o)
                0x9d048044                NVMWriteRow

.text.INTEnableSystemMultiVectoredInt
                0x9d04807c       0x34
 .text.INTEnableSystemMultiVectoredInt
                0x9d04807c       0x34 /opt/microchip/xc32/v1.21/pic32mx/lib/libmchp_peripheral_32MX795F512L.a(int_enable_mv_int_lib.o)
                0x9d04807c                INTEnableSystemMultiVectoredInt

.text.INTConfigureSystem
                0x9d0480b0       0x30
 .text.INTConfigureSystem
                0x9d0480b0       0x30 /opt/microchip/xc32/v1.21/pic32mx/lib/libmchp_peripheral_32MX795F512L.a(int_configure_system_lib.o)
                0x9d0480b0                INTConfigureSystem

.text.INTGetVectorPriority
                0x9d0480e0       0x2c
 .text.INTGetVectorPriority
                0x9d0480e0       0x2c /opt/microchip/xc32/v1.21/pic32mx/lib/libmchp_peripheral_32MX795F512L.a(int_tbl_lib.o)
                0x9d0480e0                INTGetVectorPriority

.text.INTGetVectorSubPriority
                0x9d04810c       0x2c
 .text.INTGetVectorSubPriority
                0x9d04810c       0x2c /opt/microchip/xc32/v1.21/pic32mx/lib/libmchp_peripheral_32MX795F512L.a(int_tbl_lib.o)
                0x9d04810c                INTGetVectorSubPriority

.text.NVMErasePage
                0x9d048138       0x2c
 .text.NVMErasePage
                0x9d048138       0x2c /opt/microchip/xc32/v1.21/pic32mx/lib/libmchp_peripheral_32MX795F512L.a(nvm_erase_page_lib.o)
                0x9d048138                NVMErasePage

.text.INTClearFlag
                0x9d048164       0x28
 .text.INTClearFlag
                0x9d048164       0x28 /opt/microchip/xc32/v1.21/pic32mx/lib/libmchp_peripheral_32MX795F512L.a(int_tbl_lib.o)
                0x9d048164                INTClearFlag

.text.INTSetFlag
                0x9d04818c       0x28
 .text.INTSetFlag
                0x9d04818c       0x28 /opt/microchip/xc32/v1.21/pic32mx/lib/libmchp_peripheral_32MX795F512L.a(int_tbl_lib.o)
                0x9d04818c                INTSetFlag

.text.INTGetFlag
                0x9d0481b4       0x28
 .text.INTGetFlag
                0x9d0481b4       0x28 /opt/microchip/xc32/v1.21/pic32mx/lib/libmchp_peripheral_32MX795F512L.a(int_tbl_lib.o)
                0x9d0481b4                INTGetFlag

.text.INTGetEnable
                0x9d0481dc       0x28
 .text.INTGetEnable
                0x9d0481dc       0x28 /opt/microchip/xc32/v1.21/pic32mx/lib/libmchp_peripheral_32MX795F512L.a(int_tbl_lib.o)
                0x9d0481dc                INTGetEnable

.text.PORTResetPins
                0x9d048204       0x28
 .text.PORTResetPins
                0x9d048204       0x28 /opt/microchip/xc32/v1.21/pic32mx/lib/libmchp_peripheral_32MX795F512L.a(port_reset_pins_lib.o)
                0x9d048204                PORTResetPins

.text.strtod    0x9d04822c       0x28
 .text.strtod   0x9d04822c       0x28 /opt/microchip/xc32/v1.21/bin/../lib/gcc/pic32mx/4.5.2/../../../../pic32mx/lib/libc.a(strtod.o)
                0x9d04822c                strtod

.text.tolower   0x9d048254       0x24
 .text.tolower  0x9d048254       0x24 /opt/microchip/xc32/v1.21/bin/../lib/gcc/pic32mx/4.5.2/../../../../pic32mx/lib/libc.a(ctypef.o)
                0x9d048254                tolower

.text.toupper   0x9d048278       0x24
 .text.toupper  0x9d048278       0x24 /opt/microchip/xc32/v1.21/bin/../lib/gcc/pic32mx/4.5.2/../../../../pic32mx/lib/libc.a(ctypef.o)
                0x9d048278                toupper

.rodata         0x9d04829c       0x20
 .rodata        0x9d04829c       0x20 build/debug/production/src/debug_pins.o

.text.getcSPI1  0x9d0482bc       0x20
 .text.getcSPI1
                0x9d0482bc       0x20 /opt/microchip/xc32/v1.21/pic32mx/lib/libmchp_peripheral_32MX795F512L.a(spi_getc_spi1_lib_legacy.o)
                0x9d0482bc                getcSPI1

.rodata         0x9d0482dc       0x1c
 .rodata        0x9d0482dc       0x1c build/debug/production/src/detect.o

.text.INTRestoreInterrupts
                0x9d0482f8       0x1c
 .text.INTRestoreInterrupts
                0x9d0482f8       0x1c /opt/microchip/xc32/v1.21/pic32mx/lib/libmchp_peripheral_32MX795F512L.a(int_restore_interrupts_lib.o)
                0x9d0482f8                INTRestoreInterrupts

.text.srand     0x9d048314       0x1c
 .text.srand    0x9d048314       0x1c /opt/microchip/xc32/v1.21/bin/../lib/gcc/pic32mx/4.5.2/../../../../pic32mx/lib/libc.a(rand.o)
                0x9d048314                srand

.text._dstrtod  0x9d048330       0x1c
 .text._dstrtod
                0x9d048330       0x1c /opt/microchip/xc32/v1.21/bin/../lib/gcc/pic32mx/4.5.2/../../../../pic32mx/lib/libc.a(strtod.o)
                0x9d048330                _dstrtod

.text.strtof    0x9d04834c       0x1c
 .text.strtof   0x9d04834c       0x1c /opt/microchip/xc32/v1.21/bin/../lib/gcc/pic32mx/4.5.2/../../../../pic32mx/lib/libc.a(strtof.o)
                0x9d04834c                strtof

.text.strtodf   0x9d048368       0x1c
 .text.strtodf  0x9d048368       0x1c /opt/microchip/xc32/v1.21/bin/../lib/gcc/pic32mx/4.5.2/../../../../pic32mx/lib/libc.a(strtof.o)
                0x9d048368                strtodf

.text.CheKseg0CacheOff
                0x9d048384       0x18
 .text.CheKseg0CacheOff
                0x9d048384       0x18 /opt/microchip/xc32/v1.21/pic32mx/lib/libmchp_peripheral_32MX795F512L.a(pcache.o)
                0x9d048384                CheKseg0CacheOff

.text.CheKseg0CacheOn
                0x9d04839c       0x18
 .text.CheKseg0CacheOn
                0x9d04839c       0x18 /opt/microchip/xc32/v1.21/pic32mx/lib/libmchp_peripheral_32MX795F512L.a(pcache.o)
                0x9d04839c                CheKseg0CacheOn

.text           0x9d0483b4       0x18
 .text          0x9d0483b4       0x18 /opt/microchip/xc32/v1.21/bin/../lib/gcc/pic32mx/4.5.2/../../../../pic32mx/lib/libpic32.a(default-nmi-handler.o)
                0x9d0483b4                _nmi_handler

.text.isalnum   0x9d0483cc       0x18
 .text.isalnum  0x9d0483cc       0x18 /opt/microchip/xc32/v1.21/bin/../lib/gcc/pic32mx/4.5.2/../../../../pic32mx/lib/libc.a(ctypef.o)
                0x9d0483cc                isalnum

.text.isalpha   0x9d0483e4       0x18
 .text.isalpha  0x9d0483e4       0x18 /opt/microchip/xc32/v1.21/bin/../lib/gcc/pic32mx/4.5.2/../../../../pic32mx/lib/libc.a(ctypef.o)
                0x9d0483e4                isalpha

.text.iscntrl   0x9d0483fc       0x18
 .text.iscntrl  0x9d0483fc       0x18 /opt/microchip/xc32/v1.21/bin/../lib/gcc/pic32mx/4.5.2/../../../../pic32mx/lib/libc.a(ctypef.o)
                0x9d0483fc                iscntrl

.text.isdigit   0x9d048414       0x18
 .text.isdigit  0x9d048414       0x18 /opt/microchip/xc32/v1.21/bin/../lib/gcc/pic32mx/4.5.2/../../../../pic32mx/lib/libc.a(ctypef.o)
                0x9d048414                isdigit

.text.isgraph   0x9d04842c       0x18
 .text.isgraph  0x9d04842c       0x18 /opt/microchip/xc32/v1.21/bin/../lib/gcc/pic32mx/4.5.2/../../../../pic32mx/lib/libc.a(ctypef.o)
                0x9d04842c                isgraph

.text.islower   0x9d048444       0x18
 .text.islower  0x9d048444       0x18 /opt/microchip/xc32/v1.21/bin/../lib/gcc/pic32mx/4.5.2/../../../../pic32mx/lib/libc.a(ctypef.o)
                0x9d048444                islower

.text.isprint   0x9d04845c       0x18
 .text.isprint  0x9d04845c       0x18 /opt/microchip/xc32/v1.21/bin/../lib/gcc/pic32mx/4.5.2/../../../../pic32mx/lib/libc.a(ctypef.o)
                0x9d04845c                isprint

.text.ispunct   0x9d048474       0x18
 .text.ispunct  0x9d048474       0x18 /opt/microchip/xc32/v1.21/bin/../lib/gcc/pic32mx/4.5.2/../../../../pic32mx/lib/libc.a(ctypef.o)
                0x9d048474                ispunct

.text.isspace   0x9d04848c       0x18
 .text.isspace  0x9d04848c       0x18 /opt/microchip/xc32/v1.21/bin/../lib/gcc/pic32mx/4.5.2/../../../../pic32mx/lib/libc.a(ctypef.o)
                0x9d04848c                isspace

.text.isupper   0x9d0484a4       0x18
 .text.isupper  0x9d0484a4       0x18 /opt/microchip/xc32/v1.21/bin/../lib/gcc/pic32mx/4.5.2/../../../../pic32mx/lib/libc.a(ctypef.o)
                0x9d0484a4                isupper

.text.isxdigit  0x9d0484bc       0x18
 .text.isxdigit
                0x9d0484bc       0x18 /opt/microchip/xc32/v1.21/bin/../lib/gcc/pic32mx/4.5.2/../../../../pic32mx/lib/libc.a(ctypef.o)
                0x9d0484bc                isxdigit

.rodata.f5pow.f5pow
                0x9d0484d4       0x18
 .rodata.f5pow.f5pow
                0x9d0484d4       0x18 /opt/microchip/xc32/v1.21/bin/../lib/gcc/pic32mx/4.5.2/../../../../pic32mx/lib/libe.a(_strtof.o)

.rodata         0x9d0484ec       0x40
 .rodata        0x9d0484ec       0x14 /opt/microchip/xc32/v1.21/pic32mx/lib/libmchp_peripheral_32MX795F512L.a(spi_map_tbl_libp.o)
                0x9d0484ec                _SpiMapTbl
 .rodata        0x9d048500       0x10 build/debug/production/src/hitagcrypto.o
 .rodata        0x9d048510       0x10 build/debug/production/src/fdxb.o
 .rodata        0x9d048520        0xc build/debug/production/_ext/71113213/FSIO.o

.text._bootstrap_exception_handler
                0x9d04852c        0xc
 .text._bootstrap_exception_handler
                0x9d04852c        0xc /opt/microchip/xc32/v1.21/bin/../lib/gcc/pic32mx/4.5.2/../../../../pic32mx/lib/libpic32.a(default-bootstrap-exception-handler.o)
                0x9d04852c                _bootstrap_exception_handler

.text._general_exception_handler
                0x9d048538        0xc
 .text._general_exception_handler
                0x9d048538        0xc /opt/microchip/xc32/v1.21/bin/../lib/gcc/pic32mx/4.5.2/../../../../pic32mx/lib/libpic32.a(default-general-exception-handler.o)
                0x9d048538                _general_exception_handler

.text.INTEnableInterrupts
                0x9d048544        0x8
 .text.INTEnableInterrupts
                0x9d048544        0x8 /opt/microchip/xc32/v1.21/pic32mx/lib/libmchp_peripheral_32MX795F512L.a(int_enable_interrupts_lib.o)
                0x9d048544                INTEnableInterrupts

.text.INTDisableInterrupts
                0x9d04854c        0x8
 .text.INTDisableInterrupts
                0x9d04854c        0x8 /opt/microchip/xc32/v1.21/pic32mx/lib/libmchp_peripheral_32MX795F512L.a(int_disable_interrupts_lib.o)
                0x9d04854c                INTDisableInterrupts

.text._on_reset
                0x9d048554        0x8
 .text._on_reset
                0x9d048554        0x8 /opt/microchip/xc32/v1.21/bin/../lib/gcc/pic32mx/4.5.2/../../../../pic32mx/lib/libpic32.a(default-on-reset.o)
                0x9d048554                _on_reset

.text._on_bootstrap
                0x9d04855c        0x8
 .text._on_bootstrap
                0x9d04855c        0x8 /opt/microchip/xc32/v1.21/bin/../lib/gcc/pic32mx/4.5.2/../../../../pic32mx/lib/libpic32.a(default-on-bootstrap.o)
                0x9d04855c                _on_bootstrap

.text.isascii   0x9d048564        0x8
 .text.isascii  0x9d048564        0x8 /opt/microchip/xc32/v1.21/bin/../lib/gcc/pic32mx/4.5.2/../../../../pic32mx/lib/libc.a(ctypef.o)
                0x9d048564                isascii

.text.toascii   0x9d04856c        0x8
 .text.toascii  0x9d04856c        0x8 /opt/microchip/xc32/v1.21/bin/../lib/gcc/pic32mx/4.5.2/../../../../pic32mx/lib/libc.a(ctypef.o)
                0x9d04856c                toascii

.text._tolower  0x9d048574        0x8
 .text._tolower
                0x9d048574        0x8 /opt/microchip/xc32/v1.21/bin/../lib/gcc/pic32mx/4.5.2/../../../../pic32mx/lib/libc.a(ctypef.o)
                0x9d048574                _tolower

.text._toupper  0x9d04857c        0x8
 .text._toupper
                0x9d04857c        0x8 /opt/microchip/xc32/v1.21/bin/../lib/gcc/pic32mx/4.5.2/../../../../pic32mx/lib/libc.a(ctypef.o)
                0x9d04857c                _toupper

.rodata         0x9d048584        0x8
 .rodata        0x9d048584        0x8 /opt/microchip/xc32/v1.21/bin/../lib/gcc/pic32mx/4.5.2/libgcc.a(_floatundisf.o)

.text%z362      0x00000000        0x0
 .text          0x00000000        0x0 /opt/microchip/xc32/v1.21/bin/../lib/gcc/pic32mx/4.5.2/../../../../pic32mx/lib/libpic32.a(errno.o)

.text%z363      0x00000000        0x0
 .text          0x00000000        0x0 /opt/microchip/xc32/v1.21/bin/../lib/gcc/pic32mx/4.5.2/../../../../pic32mx/lib/libe.a(_ldexpf.o)

.text%z364      0x00000000        0x0
 .text          0x00000000        0x0 /opt/microchip/xc32/v1.21/bin/../lib/gcc/pic32mx/4.5.2/../../../../pic32mx/lib/libe.a(_ldexp.o)

.text%z365      0x00000000        0x0
 .text          0x00000000        0x0 /opt/microchip/xc32/v1.21/bin/../lib/gcc/pic32mx/4.5.2/../../../../pic32mx/lib/libe.a(_strtof.o)

.text%z366      0x00000000        0x0
 .text          0x00000000        0x0 /opt/microchip/xc32/v1.21/bin/../lib/gcc/pic32mx/4.5.2/../../../../pic32mx/lib/libe.a(_strtod.o)

.text%z367      0x00000000        0x0
 .text          0x00000000        0x0 /opt/microchip/xc32/v1.21/bin/../lib/gcc/pic32mx/4.5.2/../../../../pic32mx/lib/libe.a(_floatdisf.o)

.text%z368      0x00000000        0x0
 .text          0x00000000        0x0 /opt/microchip/xc32/v1.21/bin/../lib/gcc/pic32mx/4.5.2/../../../../pic32mx/lib/libpic32.a(_mon_putc.o)

.text%z369      0x00000000        0x0
 .text          0x00000000        0x0 /opt/microchip/xc32/v1.21/bin/../lib/gcc/pic32mx/4.5.2/../../../../pic32mx/lib/libpic32.a(xc32_uart.o)

.text%z370      0x00000000        0x0
 .text          0x00000000        0x0 /opt/microchip/xc32/v1.21/bin/../lib/gcc/pic32mx/4.5.2/../../../../pic32mx/lib/libpic32.a(write.o)

.text%z371      0x00000000        0x0
 .text          0x00000000        0x0 /opt/microchip/xc32/v1.21/bin/../lib/gcc/pic32mx/4.5.2/../../../../pic32mx/lib/libpic32.a(read.o)

.text%z372      0x00000000        0x0
 .text          0x00000000        0x0 /opt/microchip/xc32/v1.21/bin/../lib/gcc/pic32mx/4.5.2/../../../../pic32mx/lib/libc.a(fflush.o)

.text%z373      0x00000000        0x0
 .text          0x00000000        0x0 /opt/microchip/xc32/v1.21/bin/../lib/gcc/pic32mx/4.5.2/../../../../pic32mx/lib/libc.a(_flsbuf_simple.o)

.text%z374      0x00000000        0x0
 .text          0x00000000        0x0 /opt/microchip/xc32/v1.21/bin/../lib/gcc/pic32mx/4.5.2/../../../../pic32mx/lib/libc.a(filbuf.o)

.text%z375      0x00000000        0x0
 .text          0x00000000        0x0 /opt/microchip/xc32/v1.21/bin/../lib/gcc/pic32mx/4.5.2/../../../../pic32mx/lib/libc.a(_iob.o)

.text%z376      0x00000000        0x0
 .text          0x00000000        0x0 /opt/microchip/xc32/v1.21/bin/../lib/gcc/pic32mx/4.5.2/../../../../pic32mx/lib/libc.a(ungetc.o)

.text%z377      0x00000000        0x0
 .text          0x00000000        0x0 /opt/microchip/xc32/v1.21/bin/../lib/gcc/pic32mx/4.5.2/../../../../pic32mx/lib/libc.a(strtof.o)

.text%z378      0x00000000        0x0
 .text          0x00000000        0x0 /opt/microchip/xc32/v1.21/bin/../lib/gcc/pic32mx/4.5.2/../../../../pic32mx/lib/libc.a(strtod.o)

.text%z379      0x00000000        0x0
 .text          0x00000000        0x0 /opt/microchip/xc32/v1.21/bin/../lib/gcc/pic32mx/4.5.2/../../../../pic32mx/lib/libc.a(powersf.o)

.text%z380      0x00000000        0x0
 .text          0x00000000        0x0 /opt/microchip/xc32/v1.21/bin/../lib/gcc/pic32mx/4.5.2/../../../../pic32mx/lib/libc.a(atoi.o)

.text%z381      0x00000000        0x0
 .text          0x00000000        0x0 /opt/microchip/xc32/v1.21/bin/../lib/gcc/pic32mx/4.5.2/../../../../pic32mx/lib/libc.a(_fputc_simple.o)

.text%z382      0x00000000        0x0
 .text          0x00000000        0x0 /opt/microchip/xc32/v1.21/bin/../lib/gcc/pic32mx/4.5.2/../../../../pic32mx/lib/libc.a(fgetc.o)

.text%z383      0x00000000        0x0
 .text          0x00000000        0x0 /opt/microchip/xc32/v1.21/bin/../lib/gcc/pic32mx/4.5.2/../../../../pic32mx/lib/libc.a(doscan_cdnopuxX.eo)

.text%z384      0x00000000        0x0
 .text          0x00000000        0x0 /opt/microchip/xc32/v1.21/bin/../lib/gcc/pic32mx/4.5.2/../../../../pic32mx/lib/libc.a(doscan_cdfFnopsuxX.eo)

.text%z385      0x00000000        0x0
 .text          0x00000000        0x0 /opt/microchip/xc32/v1.21/bin/../lib/gcc/pic32mx/4.5.2/../../../../pic32mx/lib/libc.a(doprnt.o)

.text%z386      0x00000000        0x0
 .text          0x00000000        0x0 /opt/microchip/xc32/v1.21/bin/../lib/gcc/pic32mx/4.5.2/../../../../pic32mx/lib/libc.a(doprnt_cdnopuxX.eo)

.text%z387      0x00000000        0x0
 .text          0x00000000        0x0 /opt/microchip/xc32/v1.21/bin/../lib/gcc/pic32mx/4.5.2/../../../../pic32mx/lib/libc.a(ctype.o)

.text%z388      0x00000000        0x0
 .text          0x00000000        0x0 /opt/microchip/xc32/v1.21/bin/../lib/gcc/pic32mx/4.5.2/../../../../pic32mx/lib/libc.a(sscanf_cdfFnopsuxX.eo)

.text%z389      0x00000000        0x0
 .text          0x00000000        0x0 /opt/microchip/xc32/v1.21/bin/../lib/gcc/pic32mx/4.5.2/../../../../pic32mx/lib/libc.a(sprintf.o)

.text%z390      0x00000000        0x0
 .text          0x00000000        0x0 /opt/microchip/xc32/v1.21/bin/../lib/gcc/pic32mx/4.5.2/../../../../pic32mx/lib/libc.a(sprintf_cdnopuxX.eo)

.text%z391      0x00000000        0x0
 .text          0x00000000        0x0 /opt/microchip/xc32/v1.21/bin/../lib/gcc/pic32mx/4.5.2/../../../../pic32mx/lib/libc.a(strncpy.o)

.text%z392      0x00000000        0x0
 .text          0x00000000        0x0 /opt/microchip/xc32/v1.21/bin/../lib/gcc/pic32mx/4.5.2/../../../../pic32mx/lib/libc.a(strncmp.o)

.text%z393      0x00000000        0x0
 .text          0x00000000        0x0 /opt/microchip/xc32/v1.21/bin/../lib/gcc/pic32mx/4.5.2/../../../../pic32mx/lib/libc.a(rand.o)

.text%z394      0x00000000        0x0
 .text          0x00000000        0x0 /opt/microchip/xc32/v1.21/bin/../lib/gcc/pic32mx/4.5.2/../../../../pic32mx/lib/libc.a(ctypef.o)

.text%z395      0x00000000        0x0
 .text          0x00000000        0x0 /opt/microchip/xc32/v1.21/bin/../lib/gcc/pic32mx/4.5.2/../../../../pic32mx/lib/libpic32.a(defaultinterrupt.o)

.text%z396      0x00000000        0x0
 .text          0x00000000        0x0 /opt/microchip/xc32/v1.21/bin/../lib/gcc/pic32mx/4.5.2/../../../../pic32mx/lib/libpic32.a(default-general-exception-handler.o)

.text%z397      0x00000000        0x0
 .text          0x00000000        0x0 /opt/microchip/xc32/v1.21/bin/../lib/gcc/pic32mx/4.5.2/../../../../pic32mx/lib/libpic32.a(vector63.o)

.text%z398      0x00000000        0x0
 .text          0x00000000        0x0 /opt/microchip/xc32/v1.21/bin/../lib/gcc/pic32mx/4.5.2/../../../../pic32mx/lib/libpic32.a(vector62.o)

.text%z399      0x00000000        0x0
 .text          0x00000000        0x0 /opt/microchip/xc32/v1.21/bin/../lib/gcc/pic32mx/4.5.2/../../../../pic32mx/lib/libpic32.a(vector61.o)

.text%z400      0x00000000        0x0
 .text          0x00000000        0x0 /opt/microchip/xc32/v1.21/bin/../lib/gcc/pic32mx/4.5.2/../../../../pic32mx/lib/libpic32.a(vector60.o)

.text%z401      0x00000000        0x0
 .text          0x00000000        0x0 /opt/microchip/xc32/v1.21/bin/../lib/gcc/pic32mx/4.5.2/../../../../pic32mx/lib/libpic32.a(vector59.o)

.text%z402      0x00000000        0x0
 .text          0x00000000        0x0 /opt/microchip/xc32/v1.21/bin/../lib/gcc/pic32mx/4.5.2/../../../../pic32mx/lib/libpic32.a(vector58.o)

.text%z403      0x00000000        0x0
 .text          0x00000000        0x0 /opt/microchip/xc32/v1.21/bin/../lib/gcc/pic32mx/4.5.2/../../../../pic32mx/lib/libpic32.a(vector57.o)

.text%z404      0x00000000        0x0
 .text          0x00000000        0x0 /opt/microchip/xc32/v1.21/bin/../lib/gcc/pic32mx/4.5.2/../../../../pic32mx/lib/libpic32.a(vector56.o)

.text%z405      0x00000000        0x0
 .text          0x00000000        0x0 /opt/microchip/xc32/v1.21/bin/../lib/gcc/pic32mx/4.5.2/../../../../pic32mx/lib/libpic32.a(vector55.o)

.text%z406      0x00000000        0x0
 .text          0x00000000        0x0 /opt/microchip/xc32/v1.21/bin/../lib/gcc/pic32mx/4.5.2/../../../../pic32mx/lib/libpic32.a(vector54.o)

.text%z407      0x00000000        0x0
 .text          0x00000000        0x0 /opt/microchip/xc32/v1.21/bin/../lib/gcc/pic32mx/4.5.2/../../../../pic32mx/lib/libpic32.a(vector53.o)

.text%z408      0x00000000        0x0
 .text          0x00000000        0x0 /opt/microchip/xc32/v1.21/bin/../lib/gcc/pic32mx/4.5.2/../../../../pic32mx/lib/libpic32.a(vector52.o)

.text%z409      0x00000000        0x0
 .text          0x00000000        0x0 /opt/microchip/xc32/v1.21/bin/../lib/gcc/pic32mx/4.5.2/../../../../pic32mx/lib/libpic32.a(vector51.o)

.text%z410      0x00000000        0x0
 .text          0x00000000        0x0 /opt/microchip/xc32/v1.21/bin/../lib/gcc/pic32mx/4.5.2/../../../../pic32mx/lib/libpic32.a(vector50.o)

.text%z411      0x00000000        0x0
 .text          0x00000000        0x0 /opt/microchip/xc32/v1.21/bin/../lib/gcc/pic32mx/4.5.2/../../../../pic32mx/lib/libpic32.a(vector49.o)

.text%z412      0x00000000        0x0
 .text          0x00000000        0x0 /opt/microchip/xc32/v1.21/bin/../lib/gcc/pic32mx/4.5.2/../../../../pic32mx/lib/libpic32.a(vector48.o)

.text%z413      0x00000000        0x0
 .text          0x00000000        0x0 /opt/microchip/xc32/v1.21/bin/../lib/gcc/pic32mx/4.5.2/../../../../pic32mx/lib/libpic32.a(vector47.o)

.text%z414      0x00000000        0x0
 .text          0x00000000        0x0 /opt/microchip/xc32/v1.21/bin/../lib/gcc/pic32mx/4.5.2/../../../../pic32mx/lib/libpic32.a(vector46.o)

.text%z415      0x00000000        0x0
 .text          0x00000000        0x0 /opt/microchip/xc32/v1.21/bin/../lib/gcc/pic32mx/4.5.2/../../../../pic32mx/lib/libpic32.a(vector44.o)

.text%z416      0x00000000        0x0
 .text          0x00000000        0x0 /opt/microchip/xc32/v1.21/bin/../lib/gcc/pic32mx/4.5.2/../../../../pic32mx/lib/libpic32.a(vector43.o)

.text%z417      0x00000000        0x0
 .text          0x00000000        0x0 /opt/microchip/xc32/v1.21/bin/../lib/gcc/pic32mx/4.5.2/../../../../pic32mx/lib/libpic32.a(vector42.o)

.text%z418      0x00000000        0x0
 .text          0x00000000        0x0 /opt/microchip/xc32/v1.21/bin/../lib/gcc/pic32mx/4.5.2/../../../../pic32mx/lib/libpic32.a(vector41.o)

.text%z419      0x00000000        0x0
 .text          0x00000000        0x0 /opt/microchip/xc32/v1.21/bin/../lib/gcc/pic32mx/4.5.2/../../../../pic32mx/lib/libpic32.a(vector40.o)

.text%z420      0x00000000        0x0
 .text          0x00000000        0x0 /opt/microchip/xc32/v1.21/bin/../lib/gcc/pic32mx/4.5.2/../../../../pic32mx/lib/libpic32.a(vector39.o)

.text%z421      0x00000000        0x0
 .text          0x00000000        0x0 /opt/microchip/xc32/v1.21/bin/../lib/gcc/pic32mx/4.5.2/../../../../pic32mx/lib/libpic32.a(vector38.o)

.text%z422      0x00000000        0x0
 .text          0x00000000        0x0 /opt/microchip/xc32/v1.21/bin/../lib/gcc/pic32mx/4.5.2/../../../../pic32mx/lib/libpic32.a(vector37.o)

.text%z423      0x00000000        0x0
 .text          0x00000000        0x0 /opt/microchip/xc32/v1.21/bin/../lib/gcc/pic32mx/4.5.2/../../../../pic32mx/lib/libpic32.a(vector36.o)

.text%z424      0x00000000        0x0
 .text          0x00000000        0x0 /opt/microchip/xc32/v1.21/bin/../lib/gcc/pic32mx/4.5.2/../../../../pic32mx/lib/libpic32.a(vector35.o)

.text%z425      0x00000000        0x0
 .text          0x00000000        0x0 /opt/microchip/xc32/v1.21/bin/../lib/gcc/pic32mx/4.5.2/../../../../pic32mx/lib/libpic32.a(vector34.o)

.text%z426      0x00000000        0x0
 .text          0x00000000        0x0 /opt/microchip/xc32/v1.21/bin/../lib/gcc/pic32mx/4.5.2/../../../../pic32mx/lib/libpic32.a(vector33.o)

.text%z427      0x00000000        0x0
 .text          0x00000000        0x0 /opt/microchip/xc32/v1.21/bin/../lib/gcc/pic32mx/4.5.2/../../../../pic32mx/lib/libpic32.a(vector32.o)

.text%z428      0x00000000        0x0
 .text          0x00000000        0x0 /opt/microchip/xc32/v1.21/bin/../lib/gcc/pic32mx/4.5.2/../../../../pic32mx/lib/libpic32.a(vector31.o)

.text%z429      0x00000000        0x0
 .text          0x00000000        0x0 /opt/microchip/xc32/v1.21/bin/../lib/gcc/pic32mx/4.5.2/../../../../pic32mx/lib/libpic32.a(vector30.o)

.text%z430      0x00000000        0x0
 .text          0x00000000        0x0 /opt/microchip/xc32/v1.21/bin/../lib/gcc/pic32mx/4.5.2/../../../../pic32mx/lib/libpic32.a(vector29.o)

.text%z431      0x00000000        0x0
 .text          0x00000000        0x0 /opt/microchip/xc32/v1.21/bin/../lib/gcc/pic32mx/4.5.2/../../../../pic32mx/lib/libpic32.a(vector28.o)

.text%z432      0x00000000        0x0
 .text          0x00000000        0x0 /opt/microchip/xc32/v1.21/bin/../lib/gcc/pic32mx/4.5.2/../../../../pic32mx/lib/libpic32.a(vector27.o)

.text%z433      0x00000000        0x0
 .text          0x00000000        0x0 /opt/microchip/xc32/v1.21/bin/../lib/gcc/pic32mx/4.5.2/../../../../pic32mx/lib/libpic32.a(vector26.o)

.text%z434      0x00000000        0x0
 .text          0x00000000        0x0 /opt/microchip/xc32/v1.21/bin/../lib/gcc/pic32mx/4.5.2/../../../../pic32mx/lib/libpic32.a(vector25.o)

.text%z435      0x00000000        0x0
 .text          0x00000000        0x0 /opt/microchip/xc32/v1.21/bin/../lib/gcc/pic32mx/4.5.2/../../../../pic32mx/lib/libpic32.a(vector24.o)

.text%z436      0x00000000        0x0
 .text          0x00000000        0x0 /opt/microchip/xc32/v1.21/bin/../lib/gcc/pic32mx/4.5.2/../../../../pic32mx/lib/libpic32.a(vector23.o)

.text%z437      0x00000000        0x0
 .text          0x00000000        0x0 /opt/microchip/xc32/v1.21/bin/../lib/gcc/pic32mx/4.5.2/../../../../pic32mx/lib/libpic32.a(vector21.o)

.text%z438      0x00000000        0x0
 .text          0x00000000        0x0 /opt/microchip/xc32/v1.21/bin/../lib/gcc/pic32mx/4.5.2/../../../../pic32mx/lib/libpic32.a(vector20.o)

.text%z439      0x00000000        0x0
 .text          0x00000000        0x0 /opt/microchip/xc32/v1.21/bin/../lib/gcc/pic32mx/4.5.2/../../../../pic32mx/lib/libpic32.a(vector19.o)

.text%z440      0x00000000        0x0
 .text          0x00000000        0x0 /opt/microchip/xc32/v1.21/bin/../lib/gcc/pic32mx/4.5.2/../../../../pic32mx/lib/libpic32.a(vector18.o)

.text%z441      0x00000000        0x0
 .text          0x00000000        0x0 /opt/microchip/xc32/v1.21/bin/../lib/gcc/pic32mx/4.5.2/../../../../pic32mx/lib/libpic32.a(vector17.o)

.text%z442      0x00000000        0x0
 .text          0x00000000        0x0 /opt/microchip/xc32/v1.21/bin/../lib/gcc/pic32mx/4.5.2/../../../../pic32mx/lib/libpic32.a(vector15.o)

.text%z443      0x00000000        0x0
 .text          0x00000000        0x0 /opt/microchip/xc32/v1.21/bin/../lib/gcc/pic32mx/4.5.2/../../../../pic32mx/lib/libpic32.a(vector14.o)

.text%z444      0x00000000        0x0
 .text          0x00000000        0x0 /opt/microchip/xc32/v1.21/bin/../lib/gcc/pic32mx/4.5.2/../../../../pic32mx/lib/libpic32.a(vector13.o)

.text%z445      0x00000000        0x0
 .text          0x00000000        0x0 /opt/microchip/xc32/v1.21/bin/../lib/gcc/pic32mx/4.5.2/../../../../pic32mx/lib/libpic32.a(vector11.o)

.text%z446      0x00000000        0x0
 .text          0x00000000        0x0 /opt/microchip/xc32/v1.21/bin/../lib/gcc/pic32mx/4.5.2/../../../../pic32mx/lib/libpic32.a(vector10.o)

.text%z447      0x00000000        0x0
 .text          0x00000000        0x0 /opt/microchip/xc32/v1.21/bin/../lib/gcc/pic32mx/4.5.2/../../../../pic32mx/lib/libpic32.a(vector9.o)

.text%z448      0x00000000        0x0
 .text          0x00000000        0x0 /opt/microchip/xc32/v1.21/bin/../lib/gcc/pic32mx/4.5.2/../../../../pic32mx/lib/libpic32.a(vector8.o)

.text%z449      0x00000000        0x0
 .text          0x00000000        0x0 /opt/microchip/xc32/v1.21/bin/../lib/gcc/pic32mx/4.5.2/../../../../pic32mx/lib/libpic32.a(vector7.o)

.text%z450      0x00000000        0x0
 .text          0x00000000        0x0 /opt/microchip/xc32/v1.21/bin/../lib/gcc/pic32mx/4.5.2/../../../../pic32mx/lib/libpic32.a(vector6.o)

.text%z451      0x00000000        0x0
 .text          0x00000000        0x0 /opt/microchip/xc32/v1.21/bin/../lib/gcc/pic32mx/4.5.2/../../../../pic32mx/lib/libpic32.a(vector5.o)

.text%z452      0x00000000        0x0
 .text          0x00000000        0x0 /opt/microchip/xc32/v1.21/bin/../lib/gcc/pic32mx/4.5.2/../../../../pic32mx/lib/libpic32.a(vector3.o)

.text%z453      0x00000000        0x0
 .text          0x00000000        0x0 /opt/microchip/xc32/v1.21/bin/../lib/gcc/pic32mx/4.5.2/../../../../pic32mx/lib/libpic32.a(vector2.o)

.text%z454      0x00000000        0x0
 .text          0x00000000        0x0 /opt/microchip/xc32/v1.21/bin/../lib/gcc/pic32mx/4.5.2/../../../../pic32mx/lib/libpic32.a(vector1.o)

.text%z455      0x00000000        0x0
 .text          0x00000000        0x0 /opt/microchip/xc32/v1.21/bin/../lib/gcc/pic32mx/4.5.2/../../../../pic32mx/lib/libpic32.a(vector0.o)

.text%z456      0x00000000        0x0
 .text          0x00000000        0x0 /opt/microchip/xc32/v1.21/bin/../lib/gcc/pic32mx/4.5.2/../../../../pic32mx/lib/libpic32.a(general-exception.o)

.text%z457      0x00000000        0x0
 .text          0x00000000        0x0 /opt/microchip/xc32/v1.21/bin/../lib/gcc/pic32mx/4.5.2/../../../../pic32mx/lib/libpic32.a(default-on-bootstrap.o)

.text%z458      0x00000000        0x0
 .text          0x00000000        0x0 /opt/microchip/xc32/v1.21/bin/../lib/gcc/pic32mx/4.5.2/../../../../pic32mx/lib/libpic32.a(default-on-reset.o)

.text%z459      0x00000000        0x0
 .text          0x00000000        0x0 /opt/microchip/xc32/v1.21/bin/../lib/gcc/pic32mx/4.5.2/../../../../pic32mx/lib/libpic32.a(default-bootstrap-exception-handler.o)

.text%z460      0x00000000        0x0
 .text          0x00000000        0x0 /opt/microchip/xc32/v1.21/bin/../lib/gcc/pic32mx/4.5.2/../../../../pic32mx/lib/./proc/32MX795F512L/processor.o

.text%z461      0x00000000        0x0
 .text          0x00000000        0x0 /opt/microchip/xc32/v1.21/bin/../lib/gcc/pic32mx/4.5.2/../../../../pic32mx/lib/./proc/32MX795F512L/default_isr_vectors.o

.text%z462      0x00000000        0x0
 .text          0x00000000        0x0 /opt/microchip/xc32/v1.21/pic32mx/lib/libmchp_peripheral_32MX795F512L.a(_ports_tbl_libp.o)

.text%z463      0x00000000        0x0
 .text          0x00000000        0x0 /opt/microchip/xc32/v1.21/pic32mx/lib/libmchp_peripheral_32MX795F512L.a(port_set_pins_digital_out_lib.o)

.text%z464      0x00000000        0x0
 .text          0x00000000        0x0 /opt/microchip/xc32/v1.21/pic32mx/lib/libmchp_peripheral_32MX795F512L.a(port_set_pins_digital_in_lib.o)

.text%z465      0x00000000        0x0
 .text          0x00000000        0x0 /opt/microchip/xc32/v1.21/pic32mx/lib/libmchp_peripheral_32MX795F512L.a(port_reset_pins_lib.o)

.text%z466      0x00000000        0x0
 .text          0x00000000        0x0 /opt/microchip/xc32/v1.21/pic32mx/lib/libmchp_peripheral_32MX795F512L.a(nvm_write_row_lib.o)

.text%z467      0x00000000        0x0
 .text          0x00000000        0x0 /opt/microchip/xc32/v1.21/pic32mx/lib/libmchp_peripheral_32MX795F512L.a(nvm_program_lib.o)

.text%z468      0x00000000        0x0
 .text          0x00000000        0x0 /opt/microchip/xc32/v1.21/pic32mx/lib/libmchp_peripheral_32MX795F512L.a(nvm_operation_lib.o)

.text%z469      0x00000000        0x0
 .text          0x00000000        0x0 /opt/microchip/xc32/v1.21/pic32mx/lib/libmchp_peripheral_32MX795F512L.a(nvm_erase_page_lib.o)

.text%z470      0x00000000        0x0
 .text          0x00000000        0x0 /opt/microchip/xc32/v1.21/pic32mx/lib/libmchp_peripheral_32MX795F512L.a(spi_brg_tbl_lib_legacy.o)

.text%z471      0x00000000        0x0
 .text          0x00000000        0x0 /opt/microchip/xc32/v1.21/pic32mx/lib/libmchp_peripheral_32MX795F512L.a(spi_open_spi1_lib_legacy.o)

.text%z472      0x00000000        0x0
 .text          0x00000000        0x0 /opt/microchip/xc32/v1.21/pic32mx/lib/libmchp_peripheral_32MX795F512L.a(spi_getc_spi1_lib_legacy.o)

.text%z473      0x00000000        0x0
 .text          0x00000000        0x0 /opt/microchip/xc32/v1.21/pic32mx/lib/libmchp_peripheral_32MX795F512L.a(spi_map_tbl_libp.o)

.text%z474      0x00000000        0x0
 .text          0x00000000        0x0 /opt/microchip/xc32/v1.21/pic32mx/lib/libmchp_peripheral_32MX795F512L.a(spi_io_tbl_libp.o)

.text%z475      0x00000000        0x0
 .text          0x00000000        0x0 /opt/microchip/xc32/v1.21/pic32mx/lib/libmchp_peripheral_32MX795F512L.a(spi_chn_open_lib.o)

.text%z476      0x00000000        0x0
 .text          0x00000000        0x0 /opt/microchip/xc32/v1.21/pic32mx/lib/libmchp_peripheral_32MX795F512L.a(spi_chn_close_lib.o)

.text%z477      0x00000000        0x0
 .text          0x00000000        0x0 /opt/microchip/xc32/v1.21/pic32mx/lib/libmchp_peripheral_32MX795F512L.a(int_tbl_lib.o)

.text%z478      0x00000000        0x0
 .text          0x00000000        0x0 /opt/microchip/xc32/v1.21/pic32mx/lib/libmchp_peripheral_32MX795F512L.a(int_enable_mv_int_lib.o)

.text%z479      0x00000000        0x0
 .text          0x00000000        0x0 /opt/microchip/xc32/v1.21/pic32mx/lib/libmchp_peripheral_32MX795F512L.a(int_restore_interrupts_lib.o)

.text%z480      0x00000000        0x0
 .text          0x00000000        0x0 /opt/microchip/xc32/v1.21/pic32mx/lib/libmchp_peripheral_32MX795F512L.a(int_disable_interrupts_lib.o)

.text%z481      0x00000000        0x0
 .text          0x00000000        0x0 /opt/microchip/xc32/v1.21/pic32mx/lib/libmchp_peripheral_32MX795F512L.a(int_enable_interrupts_lib.o)

.text%z482      0x00000000        0x0
 .text          0x00000000        0x0 /opt/microchip/xc32/v1.21/pic32mx/lib/libmchp_peripheral_32MX795F512L.a(int_configure_system_lib.o)

.text%z483      0x00000000        0x0
 .text          0x00000000        0x0 /opt/microchip/xc32/v1.21/pic32mx/lib/libmchp_peripheral_32MX795F512L.a(pcache.o)

.text%z484      0x00000000        0x0
 .text          0x00000000        0x0 /opt/microchip/xc32/v1.21/pic32mx/lib/libmchp_peripheral_32MX795F512L.a(soft_reset_lib.o)

.text%z485      0x00000000        0x0
 .text          0x00000000        0x0 build/debug/production/src/usb_descriptors.o
