Archive member included because of file (symbol)

/opt/microchip/xc32/v1.33/pic32mx/lib/libmchp_peripheral_32MX795F512L.a(soft_reset_lib.o)
                              build/debug/production/src/main.o (SoftReset)
/opt/microchip/xc32/v1.33/pic32mx/lib/libmchp_peripheral_32MX795F512L.a(pcache.o)
                              build/debug/production/src/main.o (CheKseg0CacheOn)
/opt/microchip/xc32/v1.33/pic32mx/lib/libmchp_peripheral_32MX795F512L.a(int_configure_system_lib.o)
                              build/debug/production/_ext/1019771169/SCpic32.o (INTConfigureSystem)
/opt/microchip/xc32/v1.33/pic32mx/lib/libmchp_peripheral_32MX795F512L.a(int_enable_interrupts_lib.o)
                              build/debug/production/_ext/1019771169/SCpic32.o (INTEnableInterrupts)
/opt/microchip/xc32/v1.33/pic32mx/lib/libmchp_peripheral_32MX795F512L.a(int_disable_interrupts_lib.o)
                              build/debug/production/src/main.o (INTDisableInterrupts)
/opt/microchip/xc32/v1.33/pic32mx/lib/libmchp_peripheral_32MX795F512L.a(int_restore_interrupts_lib.o)
                              build/debug/production/src/main.o (INTRestoreInterrupts)
/opt/microchip/xc32/v1.33/pic32mx/lib/libmchp_peripheral_32MX795F512L.a(int_enable_mv_int_lib.o)
                              build/debug/production/_ext/186742988/usb_device.o (INTEnableSystemMultiVectoredInt)
/opt/microchip/xc32/v1.33/pic32mx/lib/libmchp_peripheral_32MX795F512L.a(int_tbl_lib.o)
                              build/debug/production/_ext/186742988/usb_device.o (INTClearFlag)
/opt/microchip/xc32/v1.33/pic32mx/lib/libmchp_peripheral_32MX795F512L.a(spi_chn_close_lib.o)
                              build/debug/production/src/spi.o (SpiChnClose)
/opt/microchip/xc32/v1.33/pic32mx/lib/libmchp_peripheral_32MX795F512L.a(spi_chn_open_lib.o)
                              build/debug/production/src/spi.o (SpiChnOpen)
/opt/microchip/xc32/v1.33/pic32mx/lib/libmchp_peripheral_32MX795F512L.a(spi_io_tbl_libp.o)
                              /opt/microchip/xc32/v1.33/pic32mx/lib/libmchp_peripheral_32MX795F512L.a(spi_chn_close_lib.o) (_SpiIoTbl)
/opt/microchip/xc32/v1.33/pic32mx/lib/libmchp_peripheral_32MX795F512L.a(spi_map_tbl_libp.o)
                              /opt/microchip/xc32/v1.33/pic32mx/lib/libmchp_peripheral_32MX795F512L.a(spi_chn_close_lib.o) (_SpiMapTbl)
/opt/microchip/xc32/v1.33/pic32mx/lib/libmchp_peripheral_32MX795F512L.a(spi_getc_spi1_lib_legacy.o)
                              build/debug/production/_ext/1209914024/SD-SPI.o (getcSPI1)
/opt/microchip/xc32/v1.33/pic32mx/lib/libmchp_peripheral_32MX795F512L.a(spi_open_spi1_lib_legacy.o)
                              build/debug/production/_ext/1209914024/SD-SPI.o (OpenSPI1)
/opt/microchip/xc32/v1.33/pic32mx/lib/libmchp_peripheral_32MX795F512L.a(spi_brg_tbl_lib_legacy.o)
                              /opt/microchip/xc32/v1.33/pic32mx/lib/libmchp_peripheral_32MX795F512L.a(spi_open_spi1_lib_legacy.o) (_SpiBrgConvTbl)
/opt/microchip/xc32/v1.33/pic32mx/lib/libmchp_peripheral_32MX795F512L.a(nvm_erase_page_lib.o)
                              build/debug/production/src/nvm.o (NVMErasePage)
/opt/microchip/xc32/v1.33/pic32mx/lib/libmchp_peripheral_32MX795F512L.a(nvm_operation_lib.o)
                              /opt/microchip/xc32/v1.33/pic32mx/lib/libmchp_peripheral_32MX795F512L.a(nvm_erase_page_lib.o) (_NVMOperation)
/opt/microchip/xc32/v1.33/pic32mx/lib/libmchp_peripheral_32MX795F512L.a(nvm_program_lib.o)
                              build/debug/production/src/nvm.o (NVMProgram)
/opt/microchip/xc32/v1.33/pic32mx/lib/libmchp_peripheral_32MX795F512L.a(nvm_write_row_lib.o)
                              /opt/microchip/xc32/v1.33/pic32mx/lib/libmchp_peripheral_32MX795F512L.a(nvm_program_lib.o) (NVMWriteRow)
/opt/microchip/xc32/v1.33/pic32mx/lib/libmchp_peripheral_32MX795F512L.a(port_reset_pins_lib.o)
                              /opt/microchip/xc32/v1.33/pic32mx/lib/libmchp_peripheral_32MX795F512L.a(spi_chn_close_lib.o) (PORTResetPins)
/opt/microchip/xc32/v1.33/pic32mx/lib/libmchp_peripheral_32MX795F512L.a(port_set_pins_digital_in_lib.o)
                              /opt/microchip/xc32/v1.33/pic32mx/lib/libmchp_peripheral_32MX795F512L.a(spi_chn_open_lib.o) (PORTSetPinsDigitalIn)
/opt/microchip/xc32/v1.33/pic32mx/lib/libmchp_peripheral_32MX795F512L.a(port_set_pins_digital_out_lib.o)
                              /opt/microchip/xc32/v1.33/pic32mx/lib/libmchp_peripheral_32MX795F512L.a(spi_chn_open_lib.o) (PORTSetPinsDigitalOut)
/opt/microchip/xc32/v1.33/pic32mx/lib/libmchp_peripheral_32MX795F512L.a(_ports_tbl_libp.o)
                              /opt/microchip/xc32/v1.33/pic32mx/lib/libmchp_peripheral_32MX795F512L.a(port_reset_pins_lib.o) (PortRegTbl)
/opt/microchip/xc32/v1.33/bin/bin/../../lib/gcc/pic32mx/4.5.2/libgcc.a(_udivdi3.o)
                              build/debug/production/_ext/1019771169/SClib.o (__udivdi3)
/opt/microchip/xc32/v1.33/bin/bin/../../lib/gcc/pic32mx/4.5.2/../../../../pic32mx/lib/libpic32.a(memcmp.o)
                              build/debug/production/src/nvm.o (memcmp)
/opt/microchip/xc32/v1.33/bin/bin/../../lib/gcc/pic32mx/4.5.2/../../../../pic32mx/lib/libpic32.a(memcpy.o)
                              build/debug/production/src/main.o (memcpy)
/opt/microchip/xc32/v1.33/bin/bin/../../lib/gcc/pic32mx/4.5.2/../../../../pic32mx/lib/libpic32.a(memset.o)
                              build/debug/production/_ext/1209914024/FSIO.o (memset)
/opt/microchip/xc32/v1.33/bin/bin/../../lib/gcc/pic32mx/4.5.2/../../../../pic32mx/lib/libpic32.a(strcmp.o)
                              build/debug/production/src/main.o (strcmp)
/opt/microchip/xc32/v1.33/bin/bin/../../lib/gcc/pic32mx/4.5.2/../../../../pic32mx/lib/libpic32.a(strcpy.o)
                              build/debug/production/_ext/1209914024/FSIO.o (strcpy)
/opt/microchip/xc32/v1.33/bin/bin/../../lib/gcc/pic32mx/4.5.2/../../../../pic32mx/lib/libpic32.a(strlen.o)
                              build/debug/production/_ext/1209914024/FSIO.o (strlen)
/opt/microchip/xc32/v1.33/bin/bin/../../lib/gcc/pic32mx/4.5.2/../../../../pic32mx/lib/libpic32.a(default-bootstrap-exception-handler.o)
                              /opt/microchip/xc32/v1.33/bin/bin/../../lib/gcc/pic32mx/4.5.2/../../../../pic32mx/lib/./proc/32MX795F512L/crt0_mips32r2.o (_bootstrap_exception_handler)
/opt/microchip/xc32/v1.33/bin/bin/../../lib/gcc/pic32mx/4.5.2/../../../../pic32mx/lib/libpic32.a(default-on-reset.o)
                              /opt/microchip/xc32/v1.33/bin/bin/../../lib/gcc/pic32mx/4.5.2/../../../../pic32mx/lib/./proc/32MX795F512L/crt0_mips32r2.o (_on_reset)
/opt/microchip/xc32/v1.33/bin/bin/../../lib/gcc/pic32mx/4.5.2/../../../../pic32mx/lib/libpic32.a(default-on-bootstrap.o)
                              /opt/microchip/xc32/v1.33/bin/bin/../../lib/gcc/pic32mx/4.5.2/../../../../pic32mx/lib/./proc/32MX795F512L/crt0_mips32r2.o (_on_bootstrap)
/opt/microchip/xc32/v1.33/bin/bin/../../lib/gcc/pic32mx/4.5.2/../../../../pic32mx/lib/libpic32.a(default-nmi-handler.o)
                              /opt/microchip/xc32/v1.33/bin/bin/../../lib/gcc/pic32mx/4.5.2/../../../../pic32mx/lib/./proc/32MX795F512L/crt0_mips32r2.o (_nmi_handler)
/opt/microchip/xc32/v1.33/bin/bin/../../lib/gcc/pic32mx/4.5.2/../../../../pic32mx/lib/libpic32.a(general-exception.o)
                              /opt/microchip/xc32/v1.33/bin/bin/../../lib/gcc/pic32mx/4.5.2/../../../../pic32mx/lib/./proc/32MX795F512L/crt0_mips32r2.o (_general_exception_context)
/opt/microchip/xc32/v1.33/bin/bin/../../lib/gcc/pic32mx/4.5.2/../../../../pic32mx/lib/libpic32.a(vector0.o)
                              /opt/microchip/xc32/v1.33/bin/bin/../../lib/gcc/pic32mx/4.5.2/../../../../pic32mx/lib/./proc/32MX795F512L/default_isr_vectors.o (__vector_dispatch_0)
/opt/microchip/xc32/v1.33/bin/bin/../../lib/gcc/pic32mx/4.5.2/../../../../pic32mx/lib/libpic32.a(vector1.o)
                              /opt/microchip/xc32/v1.33/bin/bin/../../lib/gcc/pic32mx/4.5.2/../../../../pic32mx/lib/./proc/32MX795F512L/default_isr_vectors.o (__vector_dispatch_1)
/opt/microchip/xc32/v1.33/bin/bin/../../lib/gcc/pic32mx/4.5.2/../../../../pic32mx/lib/libpic32.a(vector2.o)
                              /opt/microchip/xc32/v1.33/bin/bin/../../lib/gcc/pic32mx/4.5.2/../../../../pic32mx/lib/./proc/32MX795F512L/default_isr_vectors.o (__vector_dispatch_2)
/opt/microchip/xc32/v1.33/bin/bin/../../lib/gcc/pic32mx/4.5.2/../../../../pic32mx/lib/libpic32.a(vector3.o)
                              /opt/microchip/xc32/v1.33/bin/bin/../../lib/gcc/pic32mx/4.5.2/../../../../pic32mx/lib/./proc/32MX795F512L/default_isr_vectors.o (__vector_dispatch_3)
/opt/microchip/xc32/v1.33/bin/bin/../../lib/gcc/pic32mx/4.5.2/../../../../pic32mx/lib/libpic32.a(vector5.o)
                              /opt/microchip/xc32/v1.33/bin/bin/../../lib/gcc/pic32mx/4.5.2/../../../../pic32mx/lib/./proc/32MX795F512L/default_isr_vectors.o (__vector_dispatch_5)
/opt/microchip/xc32/v1.33/bin/bin/../../lib/gcc/pic32mx/4.5.2/../../../../pic32mx/lib/libpic32.a(vector6.o)
                              /opt/microchip/xc32/v1.33/bin/bin/../../lib/gcc/pic32mx/4.5.2/../../../../pic32mx/lib/./proc/32MX795F512L/default_isr_vectors.o (__vector_dispatch_6)
/opt/microchip/xc32/v1.33/bin/bin/../../lib/gcc/pic32mx/4.5.2/../../../../pic32mx/lib/libpic32.a(vector7.o)
                              /opt/microchip/xc32/v1.33/bin/bin/../../lib/gcc/pic32mx/4.5.2/../../../../pic32mx/lib/./proc/32MX795F512L/default_isr_vectors.o (__vector_dispatch_7)
/opt/microchip/xc32/v1.33/bin/bin/../../lib/gcc/pic32mx/4.5.2/../../../../pic32mx/lib/libpic32.a(vector8.o)
                              /opt/microchip/xc32/v1.33/bin/bin/../../lib/gcc/pic32mx/4.5.2/../../../../pic32mx/lib/./proc/32MX795F512L/default_isr_vectors.o (__vector_dispatch_8)
/opt/microchip/xc32/v1.33/bin/bin/../../lib/gcc/pic32mx/4.5.2/../../../../pic32mx/lib/libpic32.a(vector9.o)
                              /opt/microchip/xc32/v1.33/bin/bin/../../lib/gcc/pic32mx/4.5.2/../../../../pic32mx/lib/./proc/32MX795F512L/default_isr_vectors.o (__vector_dispatch_9)
/opt/microchip/xc32/v1.33/bin/bin/../../lib/gcc/pic32mx/4.5.2/../../../../pic32mx/lib/libpic32.a(vector10.o)
                              /opt/microchip/xc32/v1.33/bin/bin/../../lib/gcc/pic32mx/4.5.2/../../../../pic32mx/lib/./proc/32MX795F512L/default_isr_vectors.o (__vector_dispatch_10)
/opt/microchip/xc32/v1.33/bin/bin/../../lib/gcc/pic32mx/4.5.2/../../../../pic32mx/lib/libpic32.a(vector11.o)
                              /opt/microchip/xc32/v1.33/bin/bin/../../lib/gcc/pic32mx/4.5.2/../../../../pic32mx/lib/./proc/32MX795F512L/default_isr_vectors.o (__vector_dispatch_11)
/opt/microchip/xc32/v1.33/bin/bin/../../lib/gcc/pic32mx/4.5.2/../../../../pic32mx/lib/libpic32.a(vector13.o)
                              /opt/microchip/xc32/v1.33/bin/bin/../../lib/gcc/pic32mx/4.5.2/../../../../pic32mx/lib/./proc/32MX795F512L/default_isr_vectors.o (__vector_dispatch_13)
/opt/microchip/xc32/v1.33/bin/bin/../../lib/gcc/pic32mx/4.5.2/../../../../pic32mx/lib/libpic32.a(vector14.o)
                              /opt/microchip/xc32/v1.33/bin/bin/../../lib/gcc/pic32mx/4.5.2/../../../../pic32mx/lib/./proc/32MX795F512L/default_isr_vectors.o (__vector_dispatch_14)
/opt/microchip/xc32/v1.33/bin/bin/../../lib/gcc/pic32mx/4.5.2/../../../../pic32mx/lib/libpic32.a(vector15.o)
                              /opt/microchip/xc32/v1.33/bin/bin/../../lib/gcc/pic32mx/4.5.2/../../../../pic32mx/lib/./proc/32MX795F512L/default_isr_vectors.o (__vector_dispatch_15)
/opt/microchip/xc32/v1.33/bin/bin/../../lib/gcc/pic32mx/4.5.2/../../../../pic32mx/lib/libpic32.a(vector17.o)
                              /opt/microchip/xc32/v1.33/bin/bin/../../lib/gcc/pic32mx/4.5.2/../../../../pic32mx/lib/./proc/32MX795F512L/default_isr_vectors.o (__vector_dispatch_17)
/opt/microchip/xc32/v1.33/bin/bin/../../lib/gcc/pic32mx/4.5.2/../../../../pic32mx/lib/libpic32.a(vector18.o)
                              /opt/microchip/xc32/v1.33/bin/bin/../../lib/gcc/pic32mx/4.5.2/../../../../pic32mx/lib/./proc/32MX795F512L/default_isr_vectors.o (__vector_dispatch_18)
/opt/microchip/xc32/v1.33/bin/bin/../../lib/gcc/pic32mx/4.5.2/../../../../pic32mx/lib/libpic32.a(vector19.o)
                              /opt/microchip/xc32/v1.33/bin/bin/../../lib/gcc/pic32mx/4.5.2/../../../../pic32mx/lib/./proc/32MX795F512L/default_isr_vectors.o (__vector_dispatch_19)
/opt/microchip/xc32/v1.33/bin/bin/../../lib/gcc/pic32mx/4.5.2/../../../../pic32mx/lib/libpic32.a(vector20.o)
                              /opt/microchip/xc32/v1.33/bin/bin/../../lib/gcc/pic32mx/4.5.2/../../../../pic32mx/lib/./proc/32MX795F512L/default_isr_vectors.o (__vector_dispatch_20)
/opt/microchip/xc32/v1.33/bin/bin/../../lib/gcc/pic32mx/4.5.2/../../../../pic32mx/lib/libpic32.a(vector21.o)
                              /opt/microchip/xc32/v1.33/bin/bin/../../lib/gcc/pic32mx/4.5.2/../../../../pic32mx/lib/./proc/32MX795F512L/default_isr_vectors.o (__vector_dispatch_21)
/opt/microchip/xc32/v1.33/bin/bin/../../lib/gcc/pic32mx/4.5.2/../../../../pic32mx/lib/libpic32.a(vector23.o)
                              /opt/microchip/xc32/v1.33/bin/bin/../../lib/gcc/pic32mx/4.5.2/../../../../pic32mx/lib/./proc/32MX795F512L/default_isr_vectors.o (__vector_dispatch_23)
/opt/microchip/xc32/v1.33/bin/bin/../../lib/gcc/pic32mx/4.5.2/../../../../pic32mx/lib/libpic32.a(vector24.o)
                              /opt/microchip/xc32/v1.33/bin/bin/../../lib/gcc/pic32mx/4.5.2/../../../../pic32mx/lib/./proc/32MX795F512L/default_isr_vectors.o (__vector_dispatch_24)
/opt/microchip/xc32/v1.33/bin/bin/../../lib/gcc/pic32mx/4.5.2/../../../../pic32mx/lib/libpic32.a(vector25.o)
                              /opt/microchip/xc32/v1.33/bin/bin/../../lib/gcc/pic32mx/4.5.2/../../../../pic32mx/lib/./proc/32MX795F512L/default_isr_vectors.o (__vector_dispatch_25)
/opt/microchip/xc32/v1.33/bin/bin/../../lib/gcc/pic32mx/4.5.2/../../../../pic32mx/lib/libpic32.a(vector26.o)
                              /opt/microchip/xc32/v1.33/bin/bin/../../lib/gcc/pic32mx/4.5.2/../../../../pic32mx/lib/./proc/32MX795F512L/default_isr_vectors.o (__vector_dispatch_26)
/opt/microchip/xc32/v1.33/bin/bin/../../lib/gcc/pic32mx/4.5.2/../../../../pic32mx/lib/libpic32.a(vector27.o)
                              /opt/microchip/xc32/v1.33/bin/bin/../../lib/gcc/pic32mx/4.5.2/../../../../pic32mx/lib/./proc/32MX795F512L/default_isr_vectors.o (__vector_dispatch_27)
/opt/microchip/xc32/v1.33/bin/bin/../../lib/gcc/pic32mx/4.5.2/../../../../pic32mx/lib/libpic32.a(vector28.o)
                              /opt/microchip/xc32/v1.33/bin/bin/../../lib/gcc/pic32mx/4.5.2/../../../../pic32mx/lib/./proc/32MX795F512L/default_isr_vectors.o (__vector_dispatch_28)
/opt/microchip/xc32/v1.33/bin/bin/../../lib/gcc/pic32mx/4.5.2/../../../../pic32mx/lib/libpic32.a(vector29.o)
                              /opt/microchip/xc32/v1.33/bin/bin/../../lib/gcc/pic32mx/4.5.2/../../../../pic32mx/lib/./proc/32MX795F512L/default_isr_vectors.o (__vector_dispatch_29)
/opt/microchip/xc32/v1.33/bin/bin/../../lib/gcc/pic32mx/4.5.2/../../../../pic32mx/lib/libpic32.a(vector30.o)
                              /opt/microchip/xc32/v1.33/bin/bin/../../lib/gcc/pic32mx/4.5.2/../../../../pic32mx/lib/./proc/32MX795F512L/default_isr_vectors.o (__vector_dispatch_30)
/opt/microchip/xc32/v1.33/bin/bin/../../lib/gcc/pic32mx/4.5.2/../../../../pic32mx/lib/libpic32.a(vector31.o)
                              /opt/microchip/xc32/v1.33/bin/bin/../../lib/gcc/pic32mx/4.5.2/../../../../pic32mx/lib/./proc/32MX795F512L/default_isr_vectors.o (__vector_dispatch_31)
/opt/microchip/xc32/v1.33/bin/bin/../../lib/gcc/pic32mx/4.5.2/../../../../pic32mx/lib/libpic32.a(vector32.o)
                              /opt/microchip/xc32/v1.33/bin/bin/../../lib/gcc/pic32mx/4.5.2/../../../../pic32mx/lib/./proc/32MX795F512L/default_isr_vectors.o (__vector_dispatch_32)
/opt/microchip/xc32/v1.33/bin/bin/../../lib/gcc/pic32mx/4.5.2/../../../../pic32mx/lib/libpic32.a(vector33.o)
                              /opt/microchip/xc32/v1.33/bin/bin/../../lib/gcc/pic32mx/4.5.2/../../../../pic32mx/lib/./proc/32MX795F512L/default_isr_vectors.o (__vector_dispatch_33)
/opt/microchip/xc32/v1.33/bin/bin/../../lib/gcc/pic32mx/4.5.2/../../../../pic32mx/lib/libpic32.a(vector34.o)
                              /opt/microchip/xc32/v1.33/bin/bin/../../lib/gcc/pic32mx/4.5.2/../../../../pic32mx/lib/./proc/32MX795F512L/default_isr_vectors.o (__vector_dispatch_34)
/opt/microchip/xc32/v1.33/bin/bin/../../lib/gcc/pic32mx/4.5.2/../../../../pic32mx/lib/libpic32.a(vector35.o)
                              /opt/microchip/xc32/v1.33/bin/bin/../../lib/gcc/pic32mx/4.5.2/../../../../pic32mx/lib/./proc/32MX795F512L/default_isr_vectors.o (__vector_dispatch_35)
/opt/microchip/xc32/v1.33/bin/bin/../../lib/gcc/pic32mx/4.5.2/../../../../pic32mx/lib/libpic32.a(vector36.o)
                              /opt/microchip/xc32/v1.33/bin/bin/../../lib/gcc/pic32mx/4.5.2/../../../../pic32mx/lib/./proc/32MX795F512L/default_isr_vectors.o (__vector_dispatch_36)
/opt/microchip/xc32/v1.33/bin/bin/../../lib/gcc/pic32mx/4.5.2/../../../../pic32mx/lib/libpic32.a(vector37.o)
                              /opt/microchip/xc32/v1.33/bin/bin/../../lib/gcc/pic32mx/4.5.2/../../../../pic32mx/lib/./proc/32MX795F512L/default_isr_vectors.o (__vector_dispatch_37)
/opt/microchip/xc32/v1.33/bin/bin/../../lib/gcc/pic32mx/4.5.2/../../../../pic32mx/lib/libpic32.a(vector38.o)
                              /opt/microchip/xc32/v1.33/bin/bin/../../lib/gcc/pic32mx/4.5.2/../../../../pic32mx/lib/./proc/32MX795F512L/default_isr_vectors.o (__vector_dispatch_38)
/opt/microchip/xc32/v1.33/bin/bin/../../lib/gcc/pic32mx/4.5.2/../../../../pic32mx/lib/libpic32.a(vector39.o)
                              /opt/microchip/xc32/v1.33/bin/bin/../../lib/gcc/pic32mx/4.5.2/../../../../pic32mx/lib/./proc/32MX795F512L/default_isr_vectors.o (__vector_dispatch_39)
/opt/microchip/xc32/v1.33/bin/bin/../../lib/gcc/pic32mx/4.5.2/../../../../pic32mx/lib/libpic32.a(vector40.o)
                              /opt/microchip/xc32/v1.33/bin/bin/../../lib/gcc/pic32mx/4.5.2/../../../../pic32mx/lib/./proc/32MX795F512L/default_isr_vectors.o (__vector_dispatch_40)
/opt/microchip/xc32/v1.33/bin/bin/../../lib/gcc/pic32mx/4.5.2/../../../../pic32mx/lib/libpic32.a(vector41.o)
                              /opt/microchip/xc32/v1.33/bin/bin/../../lib/gcc/pic32mx/4.5.2/../../../../pic32mx/lib/./proc/32MX795F512L/default_isr_vectors.o (__vector_dispatch_41)
/opt/microchip/xc32/v1.33/bin/bin/../../lib/gcc/pic32mx/4.5.2/../../../../pic32mx/lib/libpic32.a(vector42.o)
                              /opt/microchip/xc32/v1.33/bin/bin/../../lib/gcc/pic32mx/4.5.2/../../../../pic32mx/lib/./proc/32MX795F512L/default_isr_vectors.o (__vector_dispatch_42)
/opt/microchip/xc32/v1.33/bin/bin/../../lib/gcc/pic32mx/4.5.2/../../../../pic32mx/lib/libpic32.a(vector43.o)
                              /opt/microchip/xc32/v1.33/bin/bin/../../lib/gcc/pic32mx/4.5.2/../../../../pic32mx/lib/./proc/32MX795F512L/default_isr_vectors.o (__vector_dispatch_43)
/opt/microchip/xc32/v1.33/bin/bin/../../lib/gcc/pic32mx/4.5.2/../../../../pic32mx/lib/libpic32.a(vector44.o)
                              /opt/microchip/xc32/v1.33/bin/bin/../../lib/gcc/pic32mx/4.5.2/../../../../pic32mx/lib/./proc/32MX795F512L/default_isr_vectors.o (__vector_dispatch_44)
/opt/microchip/xc32/v1.33/bin/bin/../../lib/gcc/pic32mx/4.5.2/../../../../pic32mx/lib/libpic32.a(vector46.o)
                              /opt/microchip/xc32/v1.33/bin/bin/../../lib/gcc/pic32mx/4.5.2/../../../../pic32mx/lib/./proc/32MX795F512L/default_isr_vectors.o (__vector_dispatch_46)
/opt/microchip/xc32/v1.33/bin/bin/../../lib/gcc/pic32mx/4.5.2/../../../../pic32mx/lib/libpic32.a(vector47.o)
                              /opt/microchip/xc32/v1.33/bin/bin/../../lib/gcc/pic32mx/4.5.2/../../../../pic32mx/lib/./proc/32MX795F512L/default_isr_vectors.o (__vector_dispatch_47)
/opt/microchip/xc32/v1.33/bin/bin/../../lib/gcc/pic32mx/4.5.2/../../../../pic32mx/lib/libpic32.a(vector48.o)
                              /opt/microchip/xc32/v1.33/bin/bin/../../lib/gcc/pic32mx/4.5.2/../../../../pic32mx/lib/./proc/32MX795F512L/default_isr_vectors.o (__vector_dispatch_48)
/opt/microchip/xc32/v1.33/bin/bin/../../lib/gcc/pic32mx/4.5.2/../../../../pic32mx/lib/libpic32.a(vector49.o)
                              /opt/microchip/xc32/v1.33/bin/bin/../../lib/gcc/pic32mx/4.5.2/../../../../pic32mx/lib/./proc/32MX795F512L/default_isr_vectors.o (__vector_dispatch_49)
/opt/microchip/xc32/v1.33/bin/bin/../../lib/gcc/pic32mx/4.5.2/../../../../pic32mx/lib/libpic32.a(vector50.o)
                              /opt/microchip/xc32/v1.33/bin/bin/../../lib/gcc/pic32mx/4.5.2/../../../../pic32mx/lib/./proc/32MX795F512L/default_isr_vectors.o (__vector_dispatch_50)
/opt/microchip/xc32/v1.33/bin/bin/../../lib/gcc/pic32mx/4.5.2/../../../../pic32mx/lib/libpic32.a(vector51.o)
                              /opt/microchip/xc32/v1.33/bin/bin/../../lib/gcc/pic32mx/4.5.2/../../../../pic32mx/lib/./proc/32MX795F512L/default_isr_vectors.o (__vector_dispatch_51)
/opt/microchip/xc32/v1.33/bin/bin/../../lib/gcc/pic32mx/4.5.2/../../../../pic32mx/lib/libpic32.a(vector52.o)
                              /opt/microchip/xc32/v1.33/bin/bin/../../lib/gcc/pic32mx/4.5.2/../../../../pic32mx/lib/./proc/32MX795F512L/default_isr_vectors.o (__vector_dispatch_52)
/opt/microchip/xc32/v1.33/bin/bin/../../lib/gcc/pic32mx/4.5.2/../../../../pic32mx/lib/libpic32.a(vector53.o)
                              /opt/microchip/xc32/v1.33/bin/bin/../../lib/gcc/pic32mx/4.5.2/../../../../pic32mx/lib/./proc/32MX795F512L/default_isr_vectors.o (__vector_dispatch_53)
/opt/microchip/xc32/v1.33/bin/bin/../../lib/gcc/pic32mx/4.5.2/../../../../pic32mx/lib/libpic32.a(vector54.o)
                              /opt/microchip/xc32/v1.33/bin/bin/../../lib/gcc/pic32mx/4.5.2/../../../../pic32mx/lib/./proc/32MX795F512L/default_isr_vectors.o (__vector_dispatch_54)
/opt/microchip/xc32/v1.33/bin/bin/../../lib/gcc/pic32mx/4.5.2/../../../../pic32mx/lib/libpic32.a(vector55.o)
                              /opt/microchip/xc32/v1.33/bin/bin/../../lib/gcc/pic32mx/4.5.2/../../../../pic32mx/lib/./proc/32MX795F512L/default_isr_vectors.o (__vector_dispatch_55)
/opt/microchip/xc32/v1.33/bin/bin/../../lib/gcc/pic32mx/4.5.2/../../../../pic32mx/lib/libpic32.a(vector56.o)
                              /opt/microchip/xc32/v1.33/bin/bin/../../lib/gcc/pic32mx/4.5.2/../../../../pic32mx/lib/./proc/32MX795F512L/default_isr_vectors.o (__vector_dispatch_56)
/opt/microchip/xc32/v1.33/bin/bin/../../lib/gcc/pic32mx/4.5.2/../../../../pic32mx/lib/libpic32.a(vector57.o)
                              /opt/microchip/xc32/v1.33/bin/bin/../../lib/gcc/pic32mx/4.5.2/../../../../pic32mx/lib/./proc/32MX795F512L/default_isr_vectors.o (__vector_dispatch_57)
/opt/microchip/xc32/v1.33/bin/bin/../../lib/gcc/pic32mx/4.5.2/../../../../pic32mx/lib/libpic32.a(vector58.o)
                              /opt/microchip/xc32/v1.33/bin/bin/../../lib/gcc/pic32mx/4.5.2/../../../../pic32mx/lib/./proc/32MX795F512L/default_isr_vectors.o (__vector_dispatch_58)
/opt/microchip/xc32/v1.33/bin/bin/../../lib/gcc/pic32mx/4.5.2/../../../../pic32mx/lib/libpic32.a(vector59.o)
                              /opt/microchip/xc32/v1.33/bin/bin/../../lib/gcc/pic32mx/4.5.2/../../../../pic32mx/lib/./proc/32MX795F512L/default_isr_vectors.o (__vector_dispatch_59)
/opt/microchip/xc32/v1.33/bin/bin/../../lib/gcc/pic32mx/4.5.2/../../../../pic32mx/lib/libpic32.a(vector60.o)
                              /opt/microchip/xc32/v1.33/bin/bin/../../lib/gcc/pic32mx/4.5.2/../../../../pic32mx/lib/./proc/32MX795F512L/default_isr_vectors.o (__vector_dispatch_60)
/opt/microchip/xc32/v1.33/bin/bin/../../lib/gcc/pic32mx/4.5.2/../../../../pic32mx/lib/libpic32.a(vector61.o)
                              /opt/microchip/xc32/v1.33/bin/bin/../../lib/gcc/pic32mx/4.5.2/../../../../pic32mx/lib/./proc/32MX795F512L/default_isr_vectors.o (__vector_dispatch_61)
/opt/microchip/xc32/v1.33/bin/bin/../../lib/gcc/pic32mx/4.5.2/../../../../pic32mx/lib/libpic32.a(vector62.o)
                              /opt/microchip/xc32/v1.33/bin/bin/../../lib/gcc/pic32mx/4.5.2/../../../../pic32mx/lib/./proc/32MX795F512L/default_isr_vectors.o (__vector_dispatch_62)
/opt/microchip/xc32/v1.33/bin/bin/../../lib/gcc/pic32mx/4.5.2/../../../../pic32mx/lib/libpic32.a(vector63.o)
                              /opt/microchip/xc32/v1.33/bin/bin/../../lib/gcc/pic32mx/4.5.2/../../../../pic32mx/lib/./proc/32MX795F512L/default_isr_vectors.o (__vector_dispatch_63)
/opt/microchip/xc32/v1.33/bin/bin/../../lib/gcc/pic32mx/4.5.2/../../../../pic32mx/lib/libpic32.a(default-general-exception-handler.o)
                              /opt/microchip/xc32/v1.33/bin/bin/../../lib/gcc/pic32mx/4.5.2/../../../../pic32mx/lib/libpic32.a(general-exception.o) (_general_exception_handler)
/opt/microchip/xc32/v1.33/bin/bin/../../lib/gcc/pic32mx/4.5.2/../../../../pic32mx/lib/libpic32.a(defaultinterrupt.o)
                              /opt/microchip/xc32/v1.33/bin/bin/../../lib/gcc/pic32mx/4.5.2/../../../../pic32mx/lib/libpic32.a(vector0.o) (_DefaultInterrupt)
/opt/microchip/xc32/v1.33/bin/bin/../../lib/gcc/pic32mx/4.5.2/../../../../pic32mx/lib/libm.a(fp32div.o)
                              build/debug/production/src/main.o (fpdiv)
/opt/microchip/xc32/v1.33/bin/bin/../../lib/gcc/pic32mx/4.5.2/../../../../pic32mx/lib/libm.a(fp32mul.o)
                              build/debug/production/src/main.o (fpmul)
/opt/microchip/xc32/v1.33/bin/bin/../../lib/gcc/pic32mx/4.5.2/../../../../pic32mx/lib/libm.a(fp32subadd.o)
                              build/debug/production/src/analogue.o (fpadd)
/opt/microchip/xc32/v1.33/bin/bin/../../lib/gcc/pic32mx/4.5.2/../../../../pic32mx/lib/libm.a(fpcmp.o)
                              build/debug/production/src/main.o (fpcmp)
/opt/microchip/xc32/v1.33/bin/bin/../../lib/gcc/pic32mx/4.5.2/../../../../pic32mx/lib/libm.a(fptoli.o)
                              build/debug/production/src/main.o (fptosi)
/opt/microchip/xc32/v1.33/bin/bin/../../lib/gcc/pic32mx/4.5.2/../../../../pic32mx/lib/libm.a(fptoul.o)
                              build/debug/production/src/main.o (fptoui)
/opt/microchip/xc32/v1.33/bin/bin/../../lib/gcc/pic32mx/4.5.2/../../../../pic32mx/lib/libc.a(ctypef.o)
                              build/debug/production/_ext/1209914024/FSIO.o (tolower)
/opt/microchip/xc32/v1.33/bin/bin/../../lib/gcc/pic32mx/4.5.2/../../../../pic32mx/lib/libc.a(rand.o)
                              build/debug/production/src/hitag.o (srand)
/opt/microchip/xc32/v1.33/bin/bin/../../lib/gcc/pic32mx/4.5.2/../../../../pic32mx/lib/libc.a(strncmp.o)
                              build/debug/production/src/main.o (strncmp)
/opt/microchip/xc32/v1.33/bin/bin/../../lib/gcc/pic32mx/4.5.2/../../../../pic32mx/lib/libc.a(strncpy.o)
                              build/debug/production/_ext/1209914024/FSIO.o (strncpy)
/opt/microchip/xc32/v1.33/bin/bin/../../lib/gcc/pic32mx/4.5.2/../../../../pic32mx/lib/libc.a(snprintf_cdnopuxX.eo)
                              build/debug/production/src/analogue.o (_snprintf_cdnopuxX)
/opt/microchip/xc32/v1.33/bin/bin/../../lib/gcc/pic32mx/4.5.2/../../../../pic32mx/lib/libc.a(snprintf.o)
                              build/debug/production/src/comms.o (snprintf)
/opt/microchip/xc32/v1.33/bin/bin/../../lib/gcc/pic32mx/4.5.2/../../../../pic32mx/lib/libc.a(sprintf_cdnopuxX.eo)
                              build/debug/production/src/main.o (_sprintf_cdnopuxX)
/opt/microchip/xc32/v1.33/bin/bin/../../lib/gcc/pic32mx/4.5.2/../../../../pic32mx/lib/libc.a(sprintf.o)
                              build/debug/production/src/comms.o (sprintf)
/opt/microchip/xc32/v1.33/bin/bin/../../lib/gcc/pic32mx/4.5.2/../../../../pic32mx/lib/libc.a(sscanf_cdfFnopsuxX.eo)
                              build/debug/production/src/main.o (_sscanf_cdfFnopsuxX)
/opt/microchip/xc32/v1.33/bin/bin/../../lib/gcc/pic32mx/4.5.2/../../../../pic32mx/lib/libc.a(sscanf_cdnopuxX.eo)
                              build/debug/production/src/util.o (_sscanf_cdnopuxX)
/opt/microchip/xc32/v1.33/bin/bin/../../lib/gcc/pic32mx/4.5.2/../../../../pic32mx/lib/libc.a(vsnprintf_cdnopuxX.eo)
                              /opt/microchip/xc32/v1.33/bin/bin/../../lib/gcc/pic32mx/4.5.2/../../../../pic32mx/lib/libc.a(snprintf_cdnopuxX.eo) (_vsnprintf_cdnopuxX)
/opt/microchip/xc32/v1.33/bin/bin/../../lib/gcc/pic32mx/4.5.2/../../../../pic32mx/lib/libc.a(vsnprintf.o)
                              /opt/microchip/xc32/v1.33/bin/bin/../../lib/gcc/pic32mx/4.5.2/../../../../pic32mx/lib/libc.a(snprintf.o) (vsnprintf)
/opt/microchip/xc32/v1.33/bin/bin/../../lib/gcc/pic32mx/4.5.2/../../../../pic32mx/lib/libc.a(ctype.o)
                              /opt/microchip/xc32/v1.33/bin/bin/../../lib/gcc/pic32mx/4.5.2/../../../../pic32mx/lib/libc.a(ctypef.o) (_ctype)
/opt/microchip/xc32/v1.33/bin/bin/../../lib/gcc/pic32mx/4.5.2/../../../../pic32mx/lib/libc.a(doprnt_cdnopuxX.eo)
                              /opt/microchip/xc32/v1.33/bin/bin/../../lib/gcc/pic32mx/4.5.2/../../../../pic32mx/lib/libc.a(sprintf_cdnopuxX.eo) (_vfprintf_cdnopuxX)
/opt/microchip/xc32/v1.33/bin/bin/../../lib/gcc/pic32mx/4.5.2/../../../../pic32mx/lib/libc.a(doprnt.o)
                              /opt/microchip/xc32/v1.33/bin/bin/../../lib/gcc/pic32mx/4.5.2/../../../../pic32mx/lib/libc.a(sprintf.o) (vfprintf)
/opt/microchip/xc32/v1.33/bin/bin/../../lib/gcc/pic32mx/4.5.2/../../../../pic32mx/lib/libc.a(doscan_cdfFnopsuxX.eo)
                              /opt/microchip/xc32/v1.33/bin/bin/../../lib/gcc/pic32mx/4.5.2/../../../../pic32mx/lib/libc.a(sscanf_cdfFnopsuxX.eo) (_vfscanf_cdfFnopsuxX)
/opt/microchip/xc32/v1.33/bin/bin/../../lib/gcc/pic32mx/4.5.2/../../../../pic32mx/lib/libc.a(doscan_cdnopuxX.eo)
                              /opt/microchip/xc32/v1.33/bin/bin/../../lib/gcc/pic32mx/4.5.2/../../../../pic32mx/lib/libc.a(sscanf_cdnopuxX.eo) (_vfscanf_cdnopuxX)
/opt/microchip/xc32/v1.33/bin/bin/../../lib/gcc/pic32mx/4.5.2/../../../../pic32mx/lib/libc.a(fgetc.o)
                              /opt/microchip/xc32/v1.33/bin/bin/../../lib/gcc/pic32mx/4.5.2/../../../../pic32mx/lib/libc.a(doscan_cdfFnopsuxX.eo) (fgetc)
/opt/microchip/xc32/v1.33/bin/bin/../../lib/gcc/pic32mx/4.5.2/../../../../pic32mx/lib/libc.a(_fputc_simple.o)
                              /opt/microchip/xc32/v1.33/bin/bin/../../lib/gcc/pic32mx/4.5.2/../../../../pic32mx/lib/libc.a(doprnt_cdnopuxX.eo) (fputc)
/opt/microchip/xc32/v1.33/bin/bin/../../lib/gcc/pic32mx/4.5.2/../../../../pic32mx/lib/libc.a(atoi.o)
                              /opt/microchip/xc32/v1.33/bin/bin/../../lib/gcc/pic32mx/4.5.2/../../../../pic32mx/lib/libc.a(doscan_cdfFnopsuxX.eo) (atoi)
/opt/microchip/xc32/v1.33/bin/bin/../../lib/gcc/pic32mx/4.5.2/../../../../pic32mx/lib/libc.a(powersf.o)
                              /opt/microchip/xc32/v1.33/bin/bin/../../lib/gcc/pic32mx/4.5.2/../../../../pic32mx/lib/libc.a(doprnt.o) (_powers_f)
/opt/microchip/xc32/v1.33/bin/bin/../../lib/gcc/pic32mx/4.5.2/../../../../pic32mx/lib/libc.a(strtod.o)
                              /opt/microchip/xc32/v1.33/bin/bin/../../lib/gcc/pic32mx/4.5.2/../../../../pic32mx/lib/libc.a(doscan_cdfFnopsuxX.eo) (strtod)
/opt/microchip/xc32/v1.33/bin/bin/../../lib/gcc/pic32mx/4.5.2/../../../../pic32mx/lib/libc.a(strtof.o)
                              /opt/microchip/xc32/v1.33/bin/bin/../../lib/gcc/pic32mx/4.5.2/../../../../pic32mx/lib/libc.a(doscan_cdfFnopsuxX.eo) (strtof)
/opt/microchip/xc32/v1.33/bin/bin/../../lib/gcc/pic32mx/4.5.2/../../../../pic32mx/lib/libc.a(ungetc.o)
                              /opt/microchip/xc32/v1.33/bin/bin/../../lib/gcc/pic32mx/4.5.2/../../../../pic32mx/lib/libc.a(doscan_cdfFnopsuxX.eo) (ungetc)
/opt/microchip/xc32/v1.33/bin/bin/../../lib/gcc/pic32mx/4.5.2/../../../../pic32mx/lib/libc.a(_iob.o)
                              /opt/microchip/xc32/v1.33/bin/bin/../../lib/gcc/pic32mx/4.5.2/../../../../pic32mx/lib/libc.a(_fputc_simple.o) (_outdone)
/opt/microchip/xc32/v1.33/bin/bin/../../lib/gcc/pic32mx/4.5.2/../../../../pic32mx/lib/libc.a(filbuf.o)
                              /opt/microchip/xc32/v1.33/bin/bin/../../lib/gcc/pic32mx/4.5.2/../../../../pic32mx/lib/libc.a(fgetc.o) (_filbuf)
/opt/microchip/xc32/v1.33/bin/bin/../../lib/gcc/pic32mx/4.5.2/../../../../pic32mx/lib/libc.a(_flsbuf_simple.o)
                              /opt/microchip/xc32/v1.33/bin/bin/../../lib/gcc/pic32mx/4.5.2/../../../../pic32mx/lib/libc.a(_fputc_simple.o) (_flsbuf)
/opt/microchip/xc32/v1.33/bin/bin/../../lib/gcc/pic32mx/4.5.2/../../../../pic32mx/lib/libc.a(fflush.o)
                              /opt/microchip/xc32/v1.33/bin/bin/../../lib/gcc/pic32mx/4.5.2/../../../../pic32mx/lib/libc.a(filbuf.o) (fflush)
/opt/microchip/xc32/v1.33/bin/bin/../../lib/gcc/pic32mx/4.5.2/../../../../pic32mx/lib/libpic32.a(read.o)
                              /opt/microchip/xc32/v1.33/bin/bin/../../lib/gcc/pic32mx/4.5.2/../../../../pic32mx/lib/libc.a(filbuf.o) (read)
/opt/microchip/xc32/v1.33/bin/bin/../../lib/gcc/pic32mx/4.5.2/../../../../pic32mx/lib/libpic32.a(write.o)
                              /opt/microchip/xc32/v1.33/bin/bin/../../lib/gcc/pic32mx/4.5.2/../../../../pic32mx/lib/libc.a(_fputc_simple.o) (write)
/opt/microchip/xc32/v1.33/bin/bin/../../lib/gcc/pic32mx/4.5.2/../../../../pic32mx/lib/libpic32.a(xc32_uart.o)
                              /opt/microchip/xc32/v1.33/bin/bin/../../lib/gcc/pic32mx/4.5.2/../../../../pic32mx/lib/libpic32.a(read.o) (__XC_UART)
/opt/microchip/xc32/v1.33/bin/bin/../../lib/gcc/pic32mx/4.5.2/../../../../pic32mx/lib/libpic32.a(_mon_putc.o)
                              /opt/microchip/xc32/v1.33/bin/bin/../../lib/gcc/pic32mx/4.5.2/../../../../pic32mx/lib/libpic32.a(write.o) (_mon_putc)
/opt/microchip/xc32/v1.33/bin/bin/../../lib/gcc/pic32mx/4.5.2/../../../../pic32mx/lib/libm.a(dptofp.o)
                              /opt/microchip/xc32/v1.33/bin/bin/../../lib/gcc/pic32mx/4.5.2/../../../../pic32mx/lib/libc.a(strtod.o) (dptofp)
/opt/microchip/xc32/v1.33/bin/bin/../../lib/gcc/pic32mx/4.5.2/../../../../pic32mx/lib/libm.a(fpfrexp.o)
                              /opt/microchip/xc32/v1.33/bin/bin/../../lib/gcc/pic32mx/4.5.2/../../../../pic32mx/lib/libc.a(doprnt.o) (frexpf)
/opt/microchip/xc32/v1.33/bin/bin/../../lib/gcc/pic32mx/4.5.2/../../../../pic32mx/lib/libm.a(fptodp.o)
                              /opt/microchip/xc32/v1.33/bin/bin/../../lib/gcc/pic32mx/4.5.2/../../../../pic32mx/lib/libc.a(doscan_cdfFnopsuxX.eo) (fptodp)
/opt/microchip/xc32/v1.33/bin/bin/../../lib/gcc/pic32mx/4.5.2/../../../../pic32mx/lib/libm.a(__strtod.o)
                              /opt/microchip/xc32/v1.33/bin/bin/../../lib/gcc/pic32mx/4.5.2/../../../../pic32mx/lib/libc.a(strtod.o) (__strtod)
/opt/microchip/xc32/v1.33/bin/bin/../../lib/gcc/pic32mx/4.5.2/../../../../pic32mx/lib/libm.a(__strtof.o)
                              /opt/microchip/xc32/v1.33/bin/bin/../../lib/gcc/pic32mx/4.5.2/../../../../pic32mx/lib/libc.a(strtof.o) (__strtof)
/opt/microchip/xc32/v1.33/bin/bin/../../lib/gcc/pic32mx/4.5.2/../../../../pic32mx/lib/libm.a(dp32div.o)
                              /opt/microchip/xc32/v1.33/bin/bin/../../lib/gcc/pic32mx/4.5.2/../../../../pic32mx/lib/libm.a(__strtod.o) (__divdf3)
/opt/microchip/xc32/v1.33/bin/bin/../../lib/gcc/pic32mx/4.5.2/../../../../pic32mx/lib/libm.a(dp32mul.o)
                              /opt/microchip/xc32/v1.33/bin/bin/../../lib/gcc/pic32mx/4.5.2/../../../../pic32mx/lib/libm.a(__strtod.o) (__muldf3)
/opt/microchip/xc32/v1.33/bin/bin/../../lib/gcc/pic32mx/4.5.2/../../../../pic32mx/lib/libm.a(dp32subadd.o)
                              /opt/microchip/xc32/v1.33/bin/bin/../../lib/gcc/pic32mx/4.5.2/../../../../pic32mx/lib/libm.a(__strtod.o) (__adddf3)
/opt/microchip/xc32/v1.33/bin/bin/../../lib/gcc/pic32mx/4.5.2/../../../../pic32mx/lib/libm.a(litodp.o)
                              /opt/microchip/xc32/v1.33/bin/bin/../../lib/gcc/pic32mx/4.5.2/../../../../pic32mx/lib/libm.a(__strtod.o) (__floatsidf)
/opt/microchip/xc32/v1.33/bin/bin/../../lib/gcc/pic32mx/4.5.2/../../../../pic32mx/lib/libm.a(negdf2.o)
                              /opt/microchip/xc32/v1.33/bin/bin/../../lib/gcc/pic32mx/4.5.2/../../../../pic32mx/lib/libm.a(__strtod.o) (__negdf2)
/opt/microchip/xc32/v1.33/bin/bin/../../lib/gcc/pic32mx/4.5.2/../../../../pic32mx/lib/libm.a(negsf2.o)
                              /opt/microchip/xc32/v1.33/bin/bin/../../lib/gcc/pic32mx/4.5.2/../../../../pic32mx/lib/libm.a(__strtof.o) (__negsf2)
/opt/microchip/xc32/v1.33/bin/bin/../../lib/gcc/pic32mx/4.5.2/../../../../pic32mx/lib/libm.a(sitofp.o)
                              /opt/microchip/xc32/v1.33/bin/bin/../../lib/gcc/pic32mx/4.5.2/../../../../pic32mx/lib/libm.a(__strtof.o) (__floatsisf)
/opt/microchip/xc32/v1.33/bin/bin/../../lib/gcc/pic32mx/4.5.2/../../../../pic32mx/lib/libe.a(_floatdisf.o)
                              /opt/microchip/xc32/v1.33/bin/bin/../../lib/gcc/pic32mx/4.5.2/../../../../pic32mx/lib/libc.a(doprnt.o) (__floatdisf)
/opt/microchip/xc32/v1.33/bin/bin/../../lib/gcc/pic32mx/4.5.2/../../../../pic32mx/lib/libe.a(_ldexp.o)
                              /opt/microchip/xc32/v1.33/bin/bin/../../lib/gcc/pic32mx/4.5.2/../../../../pic32mx/lib/libm.a(__strtod.o) (__ldexp)
/opt/microchip/xc32/v1.33/bin/bin/../../lib/gcc/pic32mx/4.5.2/../../../../pic32mx/lib/libe.a(_ldexpf.o)
                              /opt/microchip/xc32/v1.33/bin/bin/../../lib/gcc/pic32mx/4.5.2/../../../../pic32mx/lib/libm.a(__strtof.o) (__ldexpf)
/opt/microchip/xc32/v1.33/bin/bin/../../lib/gcc/pic32mx/4.5.2/libgcc.a(_lshrdi3.o)
                              /opt/microchip/xc32/v1.33/bin/bin/../../lib/gcc/pic32mx/4.5.2/../../../../pic32mx/lib/libe.a(_ldexp.o) (__lshrdi3)
/opt/microchip/xc32/v1.33/bin/bin/../../lib/gcc/pic32mx/4.5.2/libgcc.a(_ashldi3.o)
                              /opt/microchip/xc32/v1.33/bin/bin/../../lib/gcc/pic32mx/4.5.2/../../../../pic32mx/lib/libe.a(_ldexp.o) (__ashldi3)
/opt/microchip/xc32/v1.33/bin/bin/../../lib/gcc/pic32mx/4.5.2/libgcc.a(_floatundisf.o)
                              /opt/microchip/xc32/v1.33/bin/bin/../../lib/gcc/pic32mx/4.5.2/../../../../pic32mx/lib/libc.a(doprnt.o) (__floatundisf)
/opt/microchip/xc32/v1.33/bin/bin/../../lib/gcc/pic32mx/4.5.2/libgcc.a(_umoddi3.o)
                              /opt/microchip/xc32/v1.33/bin/bin/../../lib/gcc/pic32mx/4.5.2/../../../../pic32mx/lib/libc.a(doprnt_cdnopuxX.eo) (__umoddi3)
/opt/microchip/xc32/v1.33/bin/bin/../../lib/gcc/pic32mx/4.5.2/libgcc.a(floatunsisf.o)
                              /opt/microchip/xc32/v1.33/bin/bin/../../lib/gcc/pic32mx/4.5.2/../../../../pic32mx/lib/libc.a(doprnt.o) (__floatunsisf)
/opt/microchip/xc32/v1.33/bin/bin/../../lib/gcc/pic32mx/4.5.2/../../../../pic32mx/lib/libc.a(errno.o)
                              /opt/microchip/xc32/v1.33/bin/bin/../../lib/gcc/pic32mx/4.5.2/../../../../pic32mx/lib/libm.a(__strtod.o) (errno)

Allocating common symbols
Common symbol       size              file

baudRate            0x4               build/debug/production/_ext/1019771169/SCpic32.o
scPPSresponseLength
                    0x1               build/debug/production/_ext/1019771169/SClib.o
fileNameLength      0x2               build/debug/production/_ext/1209914024/FSIO.o
CDCDataInHandle     0x4               build/debug/production/_ext/631258897/usb_function_cdc.o
gDataBuffer         0x200             build/debug/production/_ext/1209914024/FSIO.o
BothEP0OutUOWNsSet  0x4               build/debug/production/_ext/186742988/usb_device.o
USBDeferStatusStagePacket
                    0x4               build/debug/production/_ext/186742988/usb_device.o
gTimeCrtMS          0x1               build/debug/production/_ext/1209914024/FSIO.o
USBStatusStageEnabledFlag1
                    0x4               build/debug/production/_ext/186742988/usb_device.o
USBActiveConfiguration
                    0x1               build/debug/production/_ext/186742988/usb_device.o
USBStatusStageEnabledFlag2
                    0x4               build/debug/production/_ext/186742988/usb_device.o
BaudRateGen         0x4               build/debug/production/_ext/631258897/usb_function_cdc.o
cgtETU              0x2               build/debug/production/_ext/1019771169/SClib.o
TmpBits             0x800             build/debug/production/src/main.o
pCDCSrc             0x4               build/debug/production/_ext/631258897/usb_function_cdc.o
tempCWDobj          0x44              build/debug/production/_ext/1209914024/FSIO.o
fileFoundString     0x20a             build/debug/production/_ext/1209914024/FSIO.o
oneETUtimeinMicroSeconds
                    0x2               build/debug/production/_ext/1019771169/SCpic32.o
shortPacketStatus   0x1               build/debug/production/_ext/186742988/usb_device.o
pBDTEntryOut        0x10              build/debug/production/_ext/186742988/usb_device.o
EMU_ThisBit         0x1               build/debug/production/src/main.o
HW_Bits             0x4               build/debug/production/src/isr.o
scTA3               0x1               build/debug/production/_ext/1019771169/SClib.o
scTA2               0x1               build/debug/production/_ext/1019771169/SClib.o
DataBuff            0x2000            build/debug/production/src/main.o
pCDCDst             0x4               build/debug/production/_ext/631258897/usb_function_cdc.o
scTA1               0x1               build/debug/production/_ext/1019771169/SClib.o
gFATBuffer          0x200             build/debug/production/_ext/1209914024/FSIO.o
USTATcopy           0x1               build/debug/production/_ext/186742988/usb_device.o
cardResponse        0x4               build/debug/production/src/iso7816.o
CDCDataOutHandle    0x4               build/debug/production/_ext/631258897/usb_function_cdc.o
SetupPkt            0x8               build/debug/production/_ext/186742988/usb_device.o
scCardATR           0x21              build/debug/production/_ext/1019771169/SClib.o
lfnData             0x606             build/debug/production/_ext/1209914024/FSIO.o
asciiFilename       0x4               build/debug/production/_ext/1209914024/FSIO.o
gFileSlotOpen       0x3               build/debug/production/_ext/1209914024/FSIO.o
Comms_Out_Buffer    0x80              build/debug/production/src/main.o
USBBusIsSuspended   0x4               build/debug/production/_ext/186742988/usb_device.o
RTC_date            0x4               build/debug/production/src/util.o
line_coding         0x8               build/debug/production/_ext/631258897/usb_function_cdc.o
utf16Filename       0x4               build/debug/production/_ext/1209914024/FSIO.o
rxETUtimeDivisorFactor
                    0x2               build/debug/production/_ext/1019771169/SCpic32.o
TempClusterCalc     0x4               build/debug/production/_ext/1209914024/FSIO.o
MDD_SDSPI_finalLBA  0x4               build/debug/production/_ext/1209914024/SD-SPI.o
ep_data_out         0x4               build/debug/production/_ext/186742988/usb_device.o
EMU_SubCarrier_T0   0x1               build/debug/production/src/main.o
FatRootDirClusterValue
                    0x4               build/debug/production/_ext/1209914024/FSIO.o
pBDTEntryEP0OutNext
                    0x4               build/debug/production/_ext/186742988/usb_device.o
cdc_tx_len          0x1               build/debug/production/_ext/631258897/usb_function_cdc.o
gTimeCrtTime        0x2               build/debug/production/_ext/1209914024/FSIO.o
dirCleared          0x1               build/debug/production/_ext/1209914024/FSIO.o
Clock_Tick_Counter  0x4               build/debug/production/src/isr.o
cardCommand         0x6               build/debug/production/src/iso7816.o
gDiskData           0x26              build/debug/production/_ext/1209914024/FSIO.o
pBDTEntryIn         0x10              build/debug/production/_ext/186742988/usb_device.o
TmpBuff             0x1000            build/debug/production/src/main.o
scTD1               0x1               build/debug/production/_ext/1019771169/SClib.o
scTD2               0x1               build/debug/production/_ext/1019771169/SClib.o
cwd                 0x44              build/debug/production/_ext/1209914024/FSIO.o
buttonPressed       0x4               build/debug/production/src/main.o
scTD3               0x1               build/debug/production/_ext/1019771169/SClib.o
recordSearchLength  0x2               build/debug/production/_ext/1209914024/FSIO.o
EMU_SubCarrier_T1   0x1               build/debug/production/src/main.o
EMU_Data            0x4               build/debug/production/src/main.o
gFileArray          0xcc              build/debug/production/_ext/1209914024/FSIO.o
cdc_data_rx         0x40              build/debug/production/_ext/631258897/usb_function_cdc.o
controlTransferState
                    0x1               build/debug/production/_ext/186742988/usb_device.o
gTimeWrtTime        0x2               build/debug/production/_ext/1209914024/FSIO.o
buttonCount         0x1               build/debug/production/src/main.o
scPPSresponse       0x7               build/debug/production/_ext/1019771169/SClib.o
dummy_encapsulated_cmd_response
                    0x8               build/debug/production/_ext/631258897/usb_function_cdc.o
EMU_Reset_Data      0x4               build/debug/production/src/main.o
gSDMode             0x1               build/debug/production/_ext/1209914024/SD-SPI.o
gTimeAccDate        0x2               build/debug/production/_ext/1209914024/FSIO.o
EMU_Repeat          0x4               build/debug/production/src/main.o
recordSearchName    0x202             build/debug/production/_ext/1209914024/FSIO.o
cdc_notice          0x8               build/debug/production/_ext/631258897/usb_function_cdc.o
cgtInMicroSeconds   0x4               build/debug/production/_ext/1019771169/SClib.o
gTimeWrtDate        0x2               build/debug/production/_ext/1209914024/FSIO.o
apduData            0xff              build/debug/production/src/iso7816.o
cdc_rx_len          0x1               build/debug/production/_ext/631258897/usb_function_cdc.o
scTC1               0x1               build/debug/production/_ext/1019771169/SClib.o
defaultArray        0xa               build/debug/production/_ext/1209914024/FSIO.o
scTC2               0x1               build/debug/production/_ext/1019771169/SClib.o
RTC_time            0x4               build/debug/production/src/util.o
scTC3               0x1               build/debug/production/_ext/1019771169/SClib.o
BDT                 0x80              build/debug/production/_ext/186742988/usb_device.o
gFileTemp           0x44              build/debug/production/_ext/1209914024/FSIO.o
gMediaSectorSize    0x2               build/debug/production/_ext/1209914024/SD-SPI.o
pBDTEntryEP0OutCurrent
                    0x4               build/debug/production/_ext/186742988/usb_device.o
pDst                0x4               build/debug/production/_ext/186742988/usb_device.o
RWD_Command_Buff    0x100             build/debug/production/src/main.o
endpoint_number     0x1               build/debug/production/_ext/186742988/usb_device.o
USBDeferINDataStagePackets
                    0x4               build/debug/production/_ext/186742988/usb_device.o
Comms_In_Buffer     0x80              build/debug/production/src/main.o
USBDeferOUTDataStagePackets
                    0x4               build/debug/production/_ext/186742988/usb_device.o
Hitag_Crypto_State  0x10              build/debug/production/src/hitag.o
stringPrinted       0x4               build/debug/production/src/main.o
USBDeviceState      0x4               build/debug/production/_ext/186742988/usb_device.o
cdc_trf_state       0x1               build/debug/production/_ext/631258897/usb_function_cdc.o
inPipes             0x10              build/debug/production/_ext/186742988/usb_device.o
CtrlTrfData         0x40              build/debug/production/_ext/186742988/usb_device.o
FSerrno             0x1               build/debug/production/_ext/1209914024/FSIO.o
control_signal_bitmap
                    0x4               build/debug/production/_ext/631258897/usb_function_cdc.o
gTimeCrtDate        0x2               build/debug/production/_ext/1209914024/FSIO.o
RFIDlerConfig       0xf8              build/debug/production/src/main.o
PSK_Min_Pulse       0x4               build/debug/production/src/isr.o
cdc_mem_type        0x1               build/debug/production/_ext/631258897/usb_function_cdc.o
USBStatusStageTimeoutCounter
                    0x1               build/debug/production/_ext/186742988/usb_device.o
recordFoundName     0x202             build/debug/production/_ext/1209914024/FSIO.o
scReferenceClock    0x4               build/debug/production/_ext/1019771169/SCpic32.o
scTB1               0x1               build/debug/production/_ext/1019771169/SClib.o
RemoteWakeup        0x4               build/debug/production/_ext/186742988/usb_device.o
USBAlternateInterface
                    0x1               build/debug/production/_ext/186742988/usb_device.o
scTB3               0x1               build/debug/production/_ext/1019771169/SClib.o
scTB2               0x1               build/debug/production/_ext/1019771169/SClib.o
tempDirectoryString
                    0x20a             build/debug/production/_ext/1209914024/FSIO.o
EMU_DataBitRate     0x4               build/debug/production/src/main.o
t0WWTetu            0x4               build/debug/production/_ext/1019771169/SClib.o
RFIDlerVTag         0x1208            build/debug/production/src/main.o
HW_Skip_Bits        0x1               build/debug/production/src/isr.o
cdc_data_tx         0x40              build/debug/production/_ext/631258897/usb_function_cdc.o
outPipes            0xb               build/debug/production/_ext/186742988/usb_device.o
ep_data_in          0x4               build/debug/production/_ext/186742988/usb_device.o

Microchip PIC32 Memory-Usage Report

kseg0 Program-Memory Usage
section                    address  length [bytes]      (dec)  Description
-------                 ----------  -------------------------  -----------
.text                   0x9d006e00        0x17d04       97540  App's exec code 
.rodata                 0x9d01eb04         0x453c       17724  Read-only const 
.text                   0x9d023040         0x9bf0       39920  App's exec code 
.text.vfprintf          0x9d02cc30         0x1bc8        7112   
.text                   0x9d02e7f8         0xb254       45652  App's exec code 
.text._vfprintf_cdnopux 0x9d039a4c          0xae8        2792   
.text                   0x9d03a534         0x1eec        7916  App's exec code 
.text._vfscanf_cdfFnops 0x9d03c420          0xa2c        2604   
.text                   0x9d03ce4c         0x1c40        7232  App's exec code 
.dinit                  0x9d03ea8c          0x860        2144   
.text                   0x9d03f2ec         0x1000        4096  App's exec code 
.rodata                 0x9d0402ec          0x7d4        2004  Read-only const 
.text                   0x9d040ac0         0x2850       10320  App's exec code 
.text.dp32mul           0x9d043310          0x4b8        1208   
.text                   0x9d0437c8         0x113c        4412  App's exec code 
.text.dp32subadd        0x9d044904          0x430        1072   
.text                   0x9d044d34          0xbe4        3044  App's exec code 
.text.__strtod          0x9d045918          0x3e4         996   
.rodata                 0x9d045cfc          0x3b8         952  Read-only const 
.text                   0x9d0460b4          0x394         916  App's exec code 
.text.__strtof          0x9d046448          0x360         864   
.text                   0x9d0467a8          0x6a4        1700  App's exec code 
.text.dp32mul           0x9d046e4c          0x32c         812   
.text                   0x9d047178          0x31c         796  App's exec code 
.rodata                 0x9d047494          0x2e8         744  Read-only const 
.text                   0x9d04777c          0x554        1364  App's exec code 
.text.scale             0x9d047cd0          0x2a0         672   
.text.fpsubadd          0x9d047f70          0x278         632   
.text                   0x9d0481e8          0x234         564  App's exec code 
.text.fp32div           0x9d04841c          0x230         560   
.rodata                 0x9d04864c          0x228         552  Read-only const 
.text.__floatdisf       0x9d048874          0x220         544   
.text                   0x9d048a94          0x21c         540  App's exec code 
.rodata                 0x9d048cb0          0x218         536  Read-only const 
.text.__ldexp           0x9d048ec8          0x1d4         468   
.rodata                 0x9d04909c          0x1c0         448  Read-only const 
.text.fp32mul           0x9d04925c          0x1bc         444   
.text.fround            0x9d049418          0x1a4         420   
.text                   0x9d0495bc          0x1a0         416  App's exec code 
.text._filbuf           0x9d04975c          0x188         392   
.text.read              0x9d0498e4          0x174         372   
.text                   0x9d049a58          0x170         368  App's exec code 
.text.NVMProgram        0x9d049bc8          0x168         360   
.text                   0x9d049d30          0x2d0         720  App's exec code 
.text.fputc             0x9d04a000          0x15c         348   
.text.SpiChnOpen        0x9d04a15c          0x150         336   
.text                   0x9d04a2ac          0x134         308  App's exec code 
.rodata                 0x9d04a3e0          0x130         304  Read-only const 
.text._flsbuf           0x9d04a510          0x12c         300   
.text                   0x9d04a63c          0x120         288  App's exec code 
.text._NVMOperation     0x9d04a75c          0x114         276   
.text.fgetc             0x9d04a870          0x108         264   
.rodata                 0x9d04a978          0x208         520  Read-only const 
.text.__ldexpf          0x9d04ab80          0x104         260   
.text.dptofp            0x9d04ac84          0x100         256   
.rodata.sdmmc_cmdtable. 0x9d04ad84           0xf0         240   
.rodata.sd000.sd000     0x9d04ae74            0x4           4   
.rodata                 0x9d04ae78          0x1c4         452  Read-only const 
.text.general_exception 0x9d04b03c           0xdc         220   
.text                   0x9d04b118           0xd4         212  App's exec code 
.rodata.USB_CD_Ptr.USB_ 0x9d04b1ec            0x4           4   
.rodata                 0x9d04b1f0           0xd0         208  Read-only const 
.text.SpiChnClose       0x9d04b2c0           0xbc         188   
.text._mon_putc         0x9d04b37c           0xb4         180   
.text.fptodp            0x9d04b430           0xac         172   
.text                   0x9d04b4dc           0xa8         168  App's exec code 
.text.atoi              0x9d04b584           0xa8         168   
.text                   0x9d04b62c           0xa4         164  App's exec code 
.rodata                 0x9d04b6d0           0xa0         160  Read-only const 
.text.range             0x9d04b770           0xa0         160   
.rodata                 0x9d04b810           0x9c         156  Read-only const 
.text.fpcmp             0x9d04b8ac           0x9c         156   
.text                   0x9d04b948           0x98         152  App's exec code 
.text.rand              0x9d04b9e0           0x98         152   
.rodata                 0x9d04ba78           0x94         148  Read-only const 
.text.fflush            0x9d04bb0c           0x94         148   
.text.write             0x9d04bba0           0x94         148   
.text                   0x9d04bc34           0x8c         140  App's exec code 
.text.libm              0x9d04bcc0           0x88         136   
.rodata                 0x9d04bd48          0x104         260  Read-only const 
.text.fptoli            0x9d04be4c           0x80         128   
.text.fptoul            0x9d04becc           0x7c         124   
.text.SoftReset         0x9d04bf48           0x78         120   
.text.strncmp           0x9d04bfc0           0x78         120   
.text.litodp            0x9d04c038           0x78         120   
.text.ungetc            0x9d04c0b0           0x74         116   
.text                   0x9d04c124           0x6c         108  App's exec code 
.rodata                 0x9d04c190           0x68         104  Read-only const 
.text._sprintf_cdnopuxX 0x9d04c1f8           0x68         104   
.text.sprintf           0x9d04c260           0x68         104   
.rodata                 0x9d04c2c8           0xcc         204  Read-only const 
.text._vsnprintf_cdnopu 0x9d04c394           0x64         100   
.text.vsnprintf         0x9d04c3f8           0x64         100   
.text.OpenSPI1          0x9d04c45c           0x60          96   
.text.wspace            0x9d04c4bc           0x60          96   
.text.sitofp            0x9d04c51c           0x60          96   
.text.INTEnable         0x9d04c57c           0x58          88   
.text.strncpy           0x9d04c5d4           0x58          88   
.rodata                 0x9d04c62c           0x54          84  Read-only const 
.text._sscanf_cdfFnopsu 0x9d04c680           0x54          84   
.text.main_entry        0x9d04c6d4           0x4c          76   
.rodata                 0x9d04c720           0x4c          76  Read-only const 
.text                   0x9d04c76c           0x4c          76  App's exec code 
.text._bootstrap_except 0x9d04c7b8           0x48          72   
.text._general_exceptio 0x9d04c800           0x48          72   
.rodata                 0x9d04c848           0x48          72  Read-only const 
.rodata.configDescripto 0x9d04c890           0x44          68   
.text                   0x9d04c8d4           0xcc         204  App's exec code 
.rodata                 0x9d04c9a0           0x80         128  Read-only const 
.text.PORTSetPinsDigita 0x9d04ca20           0x40          64   
.text.PORTSetPinsDigita 0x9d04ca60           0x40          64   
.text.NVMWriteRow       0x9d04caa0           0x38          56   
.vector_default         0x9d04cad8           0x38          56   
.text.INTEnableSystemMu 0x9d04cb10           0x34          52   
.text.INTConfigureSyste 0x9d04cb44           0x30          48   
.text.INTClearFlag      0x9d04cb74           0x2c          44   
.text.NVMErasePage      0x9d04cba0           0x2c          44   
.text.PORTResetPins     0x9d04cbcc           0x2c          44   
.rodata.sd001.sd001     0x9d04cbf8           0x28          40   
.text._snprintf_cdnopux 0x9d04cc20           0x28          40   
.text.snprintf          0x9d04cc48           0x28          40   
.text.strtod            0x9d04cc70           0x28          40   
.text.tolower           0x9d04cc98           0x24          36   
.text.toupper           0x9d04ccbc           0x24          36   
.rodata                 0x9d04cce0           0x40          64  Read-only const 
.text.getcSPI1          0x9d04cd20           0x20          32   
.rodata                 0x9d04cd40           0x1c          28  Read-only const 
.text.INTRestoreInterru 0x9d04cd5c           0x1c          28   
.text.srand             0x9d04cd78           0x1c          28   
.text.strtof            0x9d04cd94           0x1c          28   
.text.negdf2            0x9d04cdb0           0x1c          28   
.rodata.sd002.sd002     0x9d04cdcc           0x18          24   
.rodata                 0x9d04cde4           0x18          24  Read-only const 
.text.CheKseg0CacheOn   0x9d04cdfc           0x18          24   
.text                   0x9d04ce14           0x18          24  App's exec code 
.rodata                 0x9d04ce2c           0x18          24  Read-only const 
.rodata.device_dsc.devi 0x9d04ce44           0x14          20   
.rodata                 0x9d04ce58           0x14          20  Read-only const 
.text.negsf2            0x9d04ce6c           0x14          20   
.rodata.USB_SD_Ptr.USB_ 0x9d04ce80           0x10          16   
.rodata.C.0.29271.C.0   0x9d04ce90           0x10          16   
.rodata                 0x9d04cea0           0x2c          44  Read-only const 
.rodata.EM4205_Preamble 0x9d04cecc            0x8           8   
.rodata.Hitag2Sync.Hita 0x9d04ced4            0x8           8   
.rodata.T55x7_Compat_Da 0x9d04cedc            0x8           8   
.text.INTEnableInterrup 0x9d04cee4            0x8           8   
.text.INTDisableInterru 0x9d04ceec            0x8           8   
.text._on_reset         0x9d04cef4            0x8           8   
.text._on_bootstrap     0x9d04cefc            0x8           8   
.rodata                 0x9d04cf04            0x8           8  Read-only const 
.rodata.TimeScaler.Time 0x9d04cf0c            0x4           4   
.rodata.TimeScaler2.Tim 0x9d04cf10            0x4           4   
.rodata.Hitag1ACK.Hitag 0x9d04cf14            0x4           4   
.rodata.C.2.29697.C.2   0x9d04cf18            0x4           4   
.rodata.C.3.29698.C.3   0x9d04cf1c            0x4           4   
.rodata.PSK_Rates.PSK_R 0x9d04cf20            0x4           4   
      Total kseg0_program_mem used  :     0x46124      287012  57.9% of 0x79200

kseg0 Boot-Memory Usage
section                    address  length [bytes]      (dec)  Description
-------                 ----------  -------------------------  -----------
         Total kseg0_boot_mem used  :           0           0  <1% of 0x970

Exception-Memory Usage 
section                    address  length [bytes]      (dec)  Description
-------                 ----------  -------------------------  -----------
.app_excpt              0x9d005180           0x10          16  General-Exception 
.vector_0               0x9d005200            0x8           8  Interrupt Vector 0 
.vector_1               0x9d005220            0x8           8  Interrupt Vector 1 
.vector_2               0x9d005240            0x8           8  Interrupt Vector 2 
.vector_3               0x9d005260            0x8           8  Interrupt Vector 3 
.vector_4               0x9d005280            0x8           8  Interrupt Vector 4 
.vector_5               0x9d0052a0            0x8           8  Interrupt Vector 5 
.vector_6               0x9d0052c0            0x8           8  Interrupt Vector 6 
.vector_7               0x9d0052e0            0x8           8  Interrupt Vector 7 
.vector_8               0x9d005300            0x8           8  Interrupt Vector 8 
.vector_9               0x9d005320            0x8           8  Interrupt Vector 9 
.vector_10              0x9d005340            0x8           8  Interrupt Vector 10 
.vector_11              0x9d005360            0x8           8  Interrupt Vector 11 
.vector_12              0x9d005380            0x8           8  Interrupt Vector 12 
.vector_13              0x9d0053a0            0x8           8  Interrupt Vector 13 
.vector_14              0x9d0053c0            0x8           8  Interrupt Vector 14 
.vector_15              0x9d0053e0            0x8           8  Interrupt Vector 15 
.vector_16              0x9d005400            0x8           8  Interrupt Vector 16 
.vector_17              0x9d005420            0x8           8  Interrupt Vector 17 
.vector_18              0x9d005440            0x8           8  Interrupt Vector 18 
.vector_19              0x9d005460            0x8           8  Interrupt Vector 19 
.vector_20              0x9d005480            0x8           8  Interrupt Vector 20 
.vector_21              0x9d0054a0            0x8           8  Interrupt Vector 21 
.vector_22              0x9d0054c0            0x8           8  Interrupt Vector 22 
.vector_23              0x9d0054e0            0x8           8  Interrupt Vector 23 
.vector_24              0x9d005500            0x8           8  Interrupt Vector 24 
.vector_25              0x9d005520            0x8           8  Interrupt Vector 25 
.vector_26              0x9d005540            0x8           8  Interrupt Vector 26 
.vector_27              0x9d005560            0x8           8  Interrupt Vector 27 
.vector_28              0x9d005580            0x8           8  Interrupt Vector 28 
.vector_29              0x9d0055a0            0x8           8  Interrupt Vector 29 
.vector_30              0x9d0055c0            0x8           8  Interrupt Vector 30 
.vector_31              0x9d0055e0            0x8           8  Interrupt Vector 31 
.vector_32              0x9d005600            0x8           8  Interrupt Vector 32 
.vector_33              0x9d005620            0x8           8  Interrupt Vector 33 
.vector_34              0x9d005640            0x8           8  Interrupt Vector 34 
.vector_35              0x9d005660            0x8           8  Interrupt Vector 35 
.vector_36              0x9d005680            0x8           8  Interrupt Vector 36 
.vector_37              0x9d0056a0            0x8           8  Interrupt Vector 37 
.vector_38              0x9d0056c0            0x8           8  Interrupt Vector 38 
.vector_39              0x9d0056e0            0x8           8  Interrupt Vector 39 
.vector_40              0x9d005700            0x8           8  Interrupt Vector 40 
.vector_41              0x9d005720            0x8           8  Interrupt Vector 41 
.vector_42              0x9d005740            0x8           8  Interrupt Vector 42 
.vector_43              0x9d005760            0x8           8  Interrupt Vector 43 
.vector_44              0x9d005780            0x8           8  Interrupt Vector 44 
.vector_45              0x9d0057a0            0x8           8  Interrupt Vector 45 
.vector_46              0x9d0057c0            0x8           8  Interrupt Vector 46 
.vector_47              0x9d0057e0            0x8           8  Interrupt Vector 47 
.vector_48              0x9d005800            0x8           8  Interrupt Vector 48 
.vector_49              0x9d005820            0x8           8  Interrupt Vector 49 
.vector_50              0x9d005840            0x8           8  Interrupt Vector 50 
.vector_51              0x9d005860            0x8           8  Interrupt Vector 51 
.vector_52              0x9d005880            0x8           8  Interrupt Vector 52 
.vector_53              0x9d0058a0            0x8           8  Interrupt Vector 53 
.vector_54              0x9d0058c0            0x8           8  Interrupt Vector 54 
.vector_55              0x9d0058e0            0x8           8  Interrupt Vector 55 
.vector_56              0x9d005900            0x8           8  Interrupt Vector 56 
.vector_57              0x9d005920            0x8           8  Interrupt Vector 57 
.vector_58              0x9d005940            0x8           8  Interrupt Vector 58 
.vector_59              0x9d005960            0x8           8  Interrupt Vector 59 
.vector_60              0x9d005980            0x8           8  Interrupt Vector 60 
.vector_61              0x9d0059a0            0x8           8  Interrupt Vector 61 
.vector_62              0x9d0059c0            0x8           8  Interrupt Vector 62 
.vector_63              0x9d0059e0            0x8           8  Interrupt Vector 63 
          Total exception_mem used  :       0x210         528  12.9% of 0x1000

kseg1 Boot-Memory Usage
section                    address  length [bytes]      (dec)  Description
-------                 ----------  -------------------------  -----------
.reset                  0x9d006000          0x1f0         496  Reset handler 
.bev_excpt              0x9d006380           0x10          16  BEV-Exception 
         Total kseg1_boot_mem used  :       0x200         512  43.8% of 0x490
        --------------------------------------------------------------------------
         Total Program Memory used  :     0x46534      288052  57.2% of 0x7b000
        --------------------------------------------------------------------------


kseg1 Data-Memory Usage
section                    address  length [bytes]      (dec)  Description
-------                 ----------  -------------------------  -----------
.eh_frame               0xa0000004           0x30          48   
.sdata                  0xa0000034           0x3c          60  Small init data 
.sbss                   0xa0000070          0x21c         540  Small uninit data 
.bss.bits.23215.bits    0xa000028c          0x104         260   
.data.TagTypes.TagTypes 0xa0000390           0x50          80   
.bss.id.23216.id        0xa00003e0           0x20          32   
.bss                    0xa0000400         0x66f0       26352  Uninitialized data 
.data.commands.24017.co 0xa0006af0          0x180         384   
.bss.local_tmp.24042.lo 0xa0006c70          0x100         256   
.bss.local_tmp1.24043.l 0xa0006d70          0x100         256   
.bss.history.23952.hist 0xa0006e70          0x100         256   
.data                   0xa0006f70           0xa0         160  Initialized data 
.bss.command_buffer.239 0xa0007010           0x80         128   
.bss                    0xa0007090           0x40          64  Uninitialized data 
.data.T55x7_Compat_Modu 0xa00070d0           0x24          36   
.data.ModulationSchemes 0xa00070f4           0x20          32   
.data.Q5_Modulation.Q5_ 0xa0007114           0x20          32   
.data.sd003.sd003       0xa0007134           0x1c          28   
.bss.ioInfo.ioInfo      0xa0007150           0x14          20   
.bss.info.23261.info    0xa0007164           0x14          20   
.bss                    0xa0007178           0x10          16  Uninitialized data 
.bss.Password.Password  0xa0007188            0xc          12   
.bss                    0xa0007194            0x4           4  Uninitialized data 
         Total kseg1_data_mem used  :      0x7194       29076  89.4% of 0x7f00
        --------------------------------------------------------------------------
            Total Data Memory used  :      0x7194       29076  89.4% of 0x7f00
        --------------------------------------------------------------------------


Dynamic Data-Memory Reservation
section                    address  length [bytes]      (dec)  Description
-------                 ----------  -------------------------  -----------
heap                    0xa00071a0           0x10          16  Reserved for heap 
stack                   0xa00071c8          0xd30        3376  Reserved for stack 

        --------------------------------------------------------------------------

Discarded input sections

 .text          0x00000000        0x0 /opt/microchip/xc32/v1.33/bin/bin/../../lib/gcc/pic32mx/4.5.2/../../../../pic32mx/lib/./proc/32MX795F512L/crt0_mips32r2.o
 .data          0x00000000        0x0 /opt/microchip/xc32/v1.33/bin/bin/../../lib/gcc/pic32mx/4.5.2/../../../../pic32mx/lib/./proc/32MX795F512L/crt0_mips32r2.o
 .bss           0x00000000        0x0 /opt/microchip/xc32/v1.33/bin/bin/../../lib/gcc/pic32mx/4.5.2/../../../../pic32mx/lib/./proc/32MX795F512L/crt0_mips32r2.o
 .text          0x00000000        0x0 /opt/microchip/xc32/v1.33/bin/bin/../../lib/gcc/pic32mx/4.5.2/../../../../pic32mx/lib/debug-exception-return.o
 .data          0x00000000        0x0 /opt/microchip/xc32/v1.33/bin/bin/../../lib/gcc/pic32mx/4.5.2/../../../../pic32mx/lib/debug-exception-return.o
 .bss           0x00000000        0x0 /opt/microchip/xc32/v1.33/bin/bin/../../lib/gcc/pic32mx/4.5.2/../../../../pic32mx/lib/debug-exception-return.o
 .reginfo       0x00000000       0x18 /opt/microchip/xc32/v1.33/bin/bin/../../lib/gcc/pic32mx/4.5.2/../../../../pic32mx/lib/debug-exception-return.o
 .data          0x00000000        0x0 build/debug/production/_ext/1209914024/FSIO.o
 .bss           0x00000000        0x0 build/debug/production/_ext/1209914024/FSIO.o
 .reginfo       0x00000000       0x18 build/debug/production/_ext/1209914024/FSIO.o
 .data          0x00000000        0x0 build/debug/production/_ext/1209914024/SD-SPI.o
 .bss           0x00000000        0x0 build/debug/production/_ext/1209914024/SD-SPI.o
 .reginfo       0x00000000       0x18 build/debug/production/_ext/1209914024/SD-SPI.o
 .data          0x00000000        0x0 build/debug/production/_ext/1019771169/SClib.o
 .bss           0x00000000        0x0 build/debug/production/_ext/1019771169/SClib.o
 .reginfo       0x00000000       0x18 build/debug/production/_ext/1019771169/SClib.o
 .data          0x00000000        0x0 build/debug/production/_ext/1019771169/SCpic32.o
 .bss           0x00000000        0x0 build/debug/production/_ext/1019771169/SCpic32.o
 .reginfo       0x00000000       0x18 build/debug/production/_ext/1019771169/SCpic32.o
 .data          0x00000000        0x0 build/debug/production/_ext/631258897/usb_function_cdc.o
 .bss           0x00000000        0x0 build/debug/production/_ext/631258897/usb_function_cdc.o
 .reginfo       0x00000000       0x18 build/debug/production/_ext/631258897/usb_function_cdc.o
 .data          0x00000000        0x0 build/debug/production/_ext/186742988/usb_device.o
 .bss           0x00000000        0x0 build/debug/production/_ext/186742988/usb_device.o
 .reginfo       0x00000000       0x18 build/debug/production/_ext/186742988/usb_device.o
 .data          0x00000000        0x0 build/debug/production/src/indala.o
 .bss           0x00000000        0x0 build/debug/production/src/indala.o
 .reginfo       0x00000000       0x18 build/debug/production/src/indala.o
 .data          0x00000000        0x0 build/debug/production/src/main.o
 .bss           0x00000000        0x0 build/debug/production/src/main.o
 .reginfo       0x00000000       0x18 build/debug/production/src/main.o
 .data          0x00000000        0x0 build/debug/production/src/psk.o
 .bss           0x00000000        0x0 build/debug/production/src/psk.o
 .reginfo       0x00000000       0x18 build/debug/production/src/psk.o
 .data          0x00000000        0x0 build/debug/production/src/usb_descriptors.o
 .bss           0x00000000        0x0 build/debug/production/src/usb_descriptors.o
 .reginfo       0x00000000       0x18 build/debug/production/src/usb_descriptors.o
 .data          0x00000000        0x0 build/debug/production/src/util.o
 .bss           0x00000000        0x0 build/debug/production/src/util.o
 .reginfo       0x00000000       0x18 build/debug/production/src/util.o
 .data          0x00000000        0x0 build/debug/production/src/emulate.o
 .bss           0x00000000        0x0 build/debug/production/src/emulate.o
 .reginfo       0x00000000       0x18 build/debug/production/src/emulate.o
 .data          0x00000000        0x0 build/debug/production/src/ask.o
 .bss           0x00000000        0x0 build/debug/production/src/ask.o
 .reginfo       0x00000000       0x18 build/debug/production/src/ask.o
 .data          0x00000000        0x0 build/debug/production/src/fsk.o
 .bss           0x00000000        0x0 build/debug/production/src/fsk.o
 .reginfo       0x00000000       0x18 build/debug/production/src/fsk.o
 .data          0x00000000        0x0 build/debug/production/src/clock.o
 .bss           0x00000000        0x0 build/debug/production/src/clock.o
 .reginfo       0x00000000       0x18 build/debug/production/src/clock.o
 .data          0x00000000        0x0 build/debug/production/src/rwd.o
 .bss           0x00000000        0x0 build/debug/production/src/rwd.o
 .reginfo       0x00000000       0x18 build/debug/production/src/rwd.o
 .data          0x00000000        0x0 build/debug/production/src/detect.o
 .bss           0x00000000        0x0 build/debug/production/src/detect.o
 .reginfo       0x00000000       0x18 build/debug/production/src/detect.o
 .data          0x00000000        0x0 build/debug/production/src/hitagcrypto.o
 .bss           0x00000000        0x0 build/debug/production/src/hitagcrypto.o
 .reginfo       0x00000000       0x18 build/debug/production/src/hitagcrypto.o
 .data          0x00000000        0x0 build/debug/production/src/wiegand.o
 .bss           0x00000000        0x0 build/debug/production/src/wiegand.o
 .reginfo       0x00000000       0x18 build/debug/production/src/wiegand.o
 .data          0x00000000        0x0 build/debug/production/src/comms.o
 .bss           0x00000000        0x0 build/debug/production/src/comms.o
 .reginfo       0x00000000       0x18 build/debug/production/src/comms.o
 .data          0x00000000        0x0 build/debug/production/src/nvm.o
 .bss           0x00000000        0x0 build/debug/production/src/nvm.o
 .reginfo       0x00000000       0x18 build/debug/production/src/nvm.o
 .data          0x00000000        0x0 build/debug/production/src/mcp414x.o
 .bss           0x00000000        0x0 build/debug/production/src/mcp414x.o
 .reginfo       0x00000000       0x18 build/debug/production/src/mcp414x.o
 .data          0x00000000        0x0 build/debug/production/src/spi.o
 .bss           0x00000000        0x0 build/debug/production/src/spi.o
 .reginfo       0x00000000       0x18 build/debug/production/src/spi.o
 .data          0x00000000        0x0 build/debug/production/src/uart3.o
 .bss           0x00000000        0x0 build/debug/production/src/uart3.o
 .reginfo       0x00000000       0x18 build/debug/production/src/uart3.o
 .data          0x00000000        0x0 build/debug/production/src/tags.o
 .bss           0x00000000        0x0 build/debug/production/src/tags.o
 .reginfo       0x00000000       0x18 build/debug/production/src/tags.o
 .data          0x00000000        0x0 build/debug/production/src/unique.o
 .bss           0x00000000        0x0 build/debug/production/src/unique.o
 .reginfo       0x00000000       0x18 build/debug/production/src/unique.o
 .data          0x00000000        0x0 build/debug/production/src/led.o
 .bss           0x00000000        0x0 build/debug/production/src/led.o
 .reginfo       0x00000000       0x18 build/debug/production/src/led.o
 .data          0x00000000        0x0 build/debug/production/src/em.o
 .bss           0x00000000        0x0 build/debug/production/src/em.o
 .reginfo       0x00000000       0x18 build/debug/production/src/em.o
 .rodata.EM4205_Error.EM4205_Error
                0x00000000        0x8 build/debug/production/src/em.o
 .data          0x00000000        0x0 build/debug/production/src/hid.o
 .bss           0x00000000        0x0 build/debug/production/src/hid.o
 .reginfo       0x00000000       0x18 build/debug/production/src/hid.o
 .data          0x00000000        0x0 build/debug/production/src/read.o
 .bss           0x00000000        0x0 build/debug/production/src/read.o
 .reginfo       0x00000000       0x18 build/debug/production/src/read.o
 .data          0x00000000        0x0 build/debug/production/src/isr.o
 .bss           0x00000000        0x0 build/debug/production/src/isr.o
 .reginfo       0x00000000       0x18 build/debug/production/src/isr.o
 .data          0x00000000        0x0 build/debug/production/src/auto.o
 .bss           0x00000000        0x0 build/debug/production/src/auto.o
 .reginfo       0x00000000       0x18 build/debug/production/src/auto.o
 .data          0x00000000        0x0 build/debug/production/src/fdxb.o
 .bss           0x00000000        0x0 build/debug/production/src/fdxb.o
 .reginfo       0x00000000       0x18 build/debug/production/src/fdxb.o
 .data          0x00000000        0x0 build/debug/production/src/hitag.o
 .bss           0x00000000        0x0 build/debug/production/src/hitag.o
 .reginfo       0x00000000       0x18 build/debug/production/src/hitag.o
 .data          0x00000000        0x0 build/debug/production/src/uid.o
 .bss           0x00000000        0x0 build/debug/production/src/uid.o
 .reginfo       0x00000000       0x18 build/debug/production/src/uid.o
 .data          0x00000000        0x0 build/debug/production/src/login.o
 .bss           0x00000000        0x0 build/debug/production/src/login.o
 .reginfo       0x00000000       0x18 build/debug/production/src/login.o
 .data          0x00000000        0x0 build/debug/production/src/write.o
 .bss           0x00000000        0x0 build/debug/production/src/write.o
 .reginfo       0x00000000       0x18 build/debug/production/src/write.o
 .data          0x00000000        0x0 build/debug/production/src/auth.o
 .bss           0x00000000        0x0 build/debug/production/src/auth.o
 .reginfo       0x00000000       0x18 build/debug/production/src/auth.o
 .data          0x00000000        0x0 build/debug/production/src/q5.o
 .bss           0x00000000        0x0 build/debug/production/src/q5.o
 .reginfo       0x00000000       0x18 build/debug/production/src/q5.o
 .data          0x00000000        0x0 build/debug/production/src/vtag.o
 .bss           0x00000000        0x0 build/debug/production/src/vtag.o
 .reginfo       0x00000000       0x18 build/debug/production/src/vtag.o
 .data          0x00000000        0x0 build/debug/production/src/config.o
 .bss           0x00000000        0x0 build/debug/production/src/config.o
 .reginfo       0x00000000       0x18 build/debug/production/src/config.o
 .data          0x00000000        0x0 build/debug/production/src/select.o
 .bss           0x00000000        0x0 build/debug/production/src/select.o
 .reginfo       0x00000000       0x18 build/debug/production/src/select.o
 .data          0x00000000        0x0 build/debug/production/src/sdcard.o
 .bss           0x00000000        0x0 build/debug/production/src/sdcard.o
 .reginfo       0x00000000       0x18 build/debug/production/src/sdcard.o
 .data          0x00000000        0x0 build/debug/production/src/debug_pins.o
 .bss           0x00000000        0x0 build/debug/production/src/debug_pins.o
 .reginfo       0x00000000       0x18 build/debug/production/src/debug_pins.o
 .data          0x00000000        0x0 build/debug/production/src/awid.o
 .bss           0x00000000        0x0 build/debug/production/src/awid.o
 .reginfo       0x00000000       0x18 build/debug/production/src/awid.o
 .data          0x00000000        0x0 build/debug/production/src/analogue.o
 .bss           0x00000000        0x0 build/debug/production/src/analogue.o
 .reginfo       0x00000000       0x18 build/debug/production/src/analogue.o
 .data          0x00000000        0x0 build/debug/production/src/iso7816.o
 .bss           0x00000000        0x0 build/debug/production/src/iso7816.o
 .reginfo       0x00000000       0x18 build/debug/production/src/iso7816.o
 .data          0x00000000        0x0 build/debug/production/src/t55x7.o
 .bss           0x00000000        0x0 build/debug/production/src/t55x7.o
 .reginfo       0x00000000       0x18 build/debug/production/src/t55x7.o
 .data          0x00000000        0x0 build/debug/production/src/sniff.o
 .bss           0x00000000        0x0 build/debug/production/src/sniff.o
 .reginfo       0x00000000       0x18 build/debug/production/src/sniff.o
 .text          0x00000000        0x0 /opt/microchip/xc32/v1.33/pic32mx/lib/libmchp_peripheral_32MX795F512L.a(soft_reset_lib.o)
 .data          0x00000000        0x0 /opt/microchip/xc32/v1.33/pic32mx/lib/libmchp_peripheral_32MX795F512L.a(soft_reset_lib.o)
 .bss           0x00000000        0x0 /opt/microchip/xc32/v1.33/pic32mx/lib/libmchp_peripheral_32MX795F512L.a(soft_reset_lib.o)
 .reginfo       0x00000000       0x18 /opt/microchip/xc32/v1.33/pic32mx/lib/libmchp_peripheral_32MX795F512L.a(soft_reset_lib.o)
 .text          0x00000000        0x0 /opt/microchip/xc32/v1.33/pic32mx/lib/libmchp_peripheral_32MX795F512L.a(pcache.o)
 .data          0x00000000        0x0 /opt/microchip/xc32/v1.33/pic32mx/lib/libmchp_peripheral_32MX795F512L.a(pcache.o)
 .bss           0x00000000        0x0 /opt/microchip/xc32/v1.33/pic32mx/lib/libmchp_peripheral_32MX795F512L.a(pcache.o)
 .reginfo       0x00000000       0x18 /opt/microchip/xc32/v1.33/pic32mx/lib/libmchp_peripheral_32MX795F512L.a(pcache.o)
 .text.CheKseg0CacheOff
                0x00000000       0x18 /opt/microchip/xc32/v1.33/pic32mx/lib/libmchp_peripheral_32MX795F512L.a(pcache.o)
 .text          0x00000000        0x0 /opt/microchip/xc32/v1.33/pic32mx/lib/libmchp_peripheral_32MX795F512L.a(int_configure_system_lib.o)
 .data          0x00000000        0x0 /opt/microchip/xc32/v1.33/pic32mx/lib/libmchp_peripheral_32MX795F512L.a(int_configure_system_lib.o)
 .bss           0x00000000        0x0 /opt/microchip/xc32/v1.33/pic32mx/lib/libmchp_peripheral_32MX795F512L.a(int_configure_system_lib.o)
 .reginfo       0x00000000       0x18 /opt/microchip/xc32/v1.33/pic32mx/lib/libmchp_peripheral_32MX795F512L.a(int_configure_system_lib.o)
 .text          0x00000000        0x0 /opt/microchip/xc32/v1.33/pic32mx/lib/libmchp_peripheral_32MX795F512L.a(int_enable_interrupts_lib.o)
 .data          0x00000000        0x0 /opt/microchip/xc32/v1.33/pic32mx/lib/libmchp_peripheral_32MX795F512L.a(int_enable_interrupts_lib.o)
 .bss           0x00000000        0x0 /opt/microchip/xc32/v1.33/pic32mx/lib/libmchp_peripheral_32MX795F512L.a(int_enable_interrupts_lib.o)
 .reginfo       0x00000000       0x18 /opt/microchip/xc32/v1.33/pic32mx/lib/libmchp_peripheral_32MX795F512L.a(int_enable_interrupts_lib.o)
 .text          0x00000000        0x0 /opt/microchip/xc32/v1.33/pic32mx/lib/libmchp_peripheral_32MX795F512L.a(int_disable_interrupts_lib.o)
 .data          0x00000000        0x0 /opt/microchip/xc32/v1.33/pic32mx/lib/libmchp_peripheral_32MX795F512L.a(int_disable_interrupts_lib.o)
 .bss           0x00000000        0x0 /opt/microchip/xc32/v1.33/pic32mx/lib/libmchp_peripheral_32MX795F512L.a(int_disable_interrupts_lib.o)
 .reginfo       0x00000000       0x18 /opt/microchip/xc32/v1.33/pic32mx/lib/libmchp_peripheral_32MX795F512L.a(int_disable_interrupts_lib.o)
 .text          0x00000000        0x0 /opt/microchip/xc32/v1.33/pic32mx/lib/libmchp_peripheral_32MX795F512L.a(int_restore_interrupts_lib.o)
 .data          0x00000000        0x0 /opt/microchip/xc32/v1.33/pic32mx/lib/libmchp_peripheral_32MX795F512L.a(int_restore_interrupts_lib.o)
 .bss           0x00000000        0x0 /opt/microchip/xc32/v1.33/pic32mx/lib/libmchp_peripheral_32MX795F512L.a(int_restore_interrupts_lib.o)
 .reginfo       0x00000000       0x18 /opt/microchip/xc32/v1.33/pic32mx/lib/libmchp_peripheral_32MX795F512L.a(int_restore_interrupts_lib.o)
 .text          0x00000000        0x0 /opt/microchip/xc32/v1.33/pic32mx/lib/libmchp_peripheral_32MX795F512L.a(int_enable_mv_int_lib.o)
 .data          0x00000000        0x0 /opt/microchip/xc32/v1.33/pic32mx/lib/libmchp_peripheral_32MX795F512L.a(int_enable_mv_int_lib.o)
 .bss           0x00000000        0x0 /opt/microchip/xc32/v1.33/pic32mx/lib/libmchp_peripheral_32MX795F512L.a(int_enable_mv_int_lib.o)
 .reginfo       0x00000000       0x18 /opt/microchip/xc32/v1.33/pic32mx/lib/libmchp_peripheral_32MX795F512L.a(int_enable_mv_int_lib.o)
 .text          0x00000000        0x0 /opt/microchip/xc32/v1.33/pic32mx/lib/libmchp_peripheral_32MX795F512L.a(int_tbl_lib.o)
 .data          0x00000000        0x0 /opt/microchip/xc32/v1.33/pic32mx/lib/libmchp_peripheral_32MX795F512L.a(int_tbl_lib.o)
 .bss           0x00000000        0x0 /opt/microchip/xc32/v1.33/pic32mx/lib/libmchp_peripheral_32MX795F512L.a(int_tbl_lib.o)
 .reginfo       0x00000000       0x18 /opt/microchip/xc32/v1.33/pic32mx/lib/libmchp_peripheral_32MX795F512L.a(int_tbl_lib.o)
 .text.INTSetFlag
                0x00000000       0x2c /opt/microchip/xc32/v1.33/pic32mx/lib/libmchp_peripheral_32MX795F512L.a(int_tbl_lib.o)
 .text.INTGetFlag
                0x00000000       0x2c /opt/microchip/xc32/v1.33/pic32mx/lib/libmchp_peripheral_32MX795F512L.a(int_tbl_lib.o)
 .text.INTGetEnable
                0x00000000       0x2c /opt/microchip/xc32/v1.33/pic32mx/lib/libmchp_peripheral_32MX795F512L.a(int_tbl_lib.o)
 .text.INTSetVectorPriority
                0x00000000       0x3c /opt/microchip/xc32/v1.33/pic32mx/lib/libmchp_peripheral_32MX795F512L.a(int_tbl_lib.o)
 .text.INTGetVectorPriority
                0x00000000       0x30 /opt/microchip/xc32/v1.33/pic32mx/lib/libmchp_peripheral_32MX795F512L.a(int_tbl_lib.o)
 .text.INTSetVectorSubPriority
                0x00000000       0x3c /opt/microchip/xc32/v1.33/pic32mx/lib/libmchp_peripheral_32MX795F512L.a(int_tbl_lib.o)
 .text.INTGetVectorSubPriority
                0x00000000       0x30 /opt/microchip/xc32/v1.33/pic32mx/lib/libmchp_peripheral_32MX795F512L.a(int_tbl_lib.o)
 .text          0x00000000        0x0 /opt/microchip/xc32/v1.33/pic32mx/lib/libmchp_peripheral_32MX795F512L.a(spi_chn_close_lib.o)
 .data          0x00000000        0x0 /opt/microchip/xc32/v1.33/pic32mx/lib/libmchp_peripheral_32MX795F512L.a(spi_chn_close_lib.o)
 .bss           0x00000000        0x0 /opt/microchip/xc32/v1.33/pic32mx/lib/libmchp_peripheral_32MX795F512L.a(spi_chn_close_lib.o)
 .reginfo       0x00000000       0x18 /opt/microchip/xc32/v1.33/pic32mx/lib/libmchp_peripheral_32MX795F512L.a(spi_chn_close_lib.o)
 .text          0x00000000        0x0 /opt/microchip/xc32/v1.33/pic32mx/lib/libmchp_peripheral_32MX795F512L.a(spi_chn_open_lib.o)
 .data          0x00000000        0x0 /opt/microchip/xc32/v1.33/pic32mx/lib/libmchp_peripheral_32MX795F512L.a(spi_chn_open_lib.o)
 .bss           0x00000000        0x0 /opt/microchip/xc32/v1.33/pic32mx/lib/libmchp_peripheral_32MX795F512L.a(spi_chn_open_lib.o)
 .reginfo       0x00000000       0x18 /opt/microchip/xc32/v1.33/pic32mx/lib/libmchp_peripheral_32MX795F512L.a(spi_chn_open_lib.o)
 .text          0x00000000        0x0 /opt/microchip/xc32/v1.33/pic32mx/lib/libmchp_peripheral_32MX795F512L.a(spi_io_tbl_libp.o)
 .data          0x00000000        0x0 /opt/microchip/xc32/v1.33/pic32mx/lib/libmchp_peripheral_32MX795F512L.a(spi_io_tbl_libp.o)
 .bss           0x00000000        0x0 /opt/microchip/xc32/v1.33/pic32mx/lib/libmchp_peripheral_32MX795F512L.a(spi_io_tbl_libp.o)
 .reginfo       0x00000000       0x18 /opt/microchip/xc32/v1.33/pic32mx/lib/libmchp_peripheral_32MX795F512L.a(spi_io_tbl_libp.o)
 .text          0x00000000        0x0 /opt/microchip/xc32/v1.33/pic32mx/lib/libmchp_peripheral_32MX795F512L.a(spi_map_tbl_libp.o)
 .data          0x00000000        0x0 /opt/microchip/xc32/v1.33/pic32mx/lib/libmchp_peripheral_32MX795F512L.a(spi_map_tbl_libp.o)
 .bss           0x00000000        0x0 /opt/microchip/xc32/v1.33/pic32mx/lib/libmchp_peripheral_32MX795F512L.a(spi_map_tbl_libp.o)
 .reginfo       0x00000000       0x18 /opt/microchip/xc32/v1.33/pic32mx/lib/libmchp_peripheral_32MX795F512L.a(spi_map_tbl_libp.o)
 .text          0x00000000        0x0 /opt/microchip/xc32/v1.33/pic32mx/lib/libmchp_peripheral_32MX795F512L.a(spi_getc_spi1_lib_legacy.o)
 .data          0x00000000        0x0 /opt/microchip/xc32/v1.33/pic32mx/lib/libmchp_peripheral_32MX795F512L.a(spi_getc_spi1_lib_legacy.o)
 .bss           0x00000000        0x0 /opt/microchip/xc32/v1.33/pic32mx/lib/libmchp_peripheral_32MX795F512L.a(spi_getc_spi1_lib_legacy.o)
 .reginfo       0x00000000       0x18 /opt/microchip/xc32/v1.33/pic32mx/lib/libmchp_peripheral_32MX795F512L.a(spi_getc_spi1_lib_legacy.o)
 .text          0x00000000        0x0 /opt/microchip/xc32/v1.33/pic32mx/lib/libmchp_peripheral_32MX795F512L.a(spi_open_spi1_lib_legacy.o)
 .data          0x00000000        0x0 /opt/microchip/xc32/v1.33/pic32mx/lib/libmchp_peripheral_32MX795F512L.a(spi_open_spi1_lib_legacy.o)
 .bss           0x00000000        0x0 /opt/microchip/xc32/v1.33/pic32mx/lib/libmchp_peripheral_32MX795F512L.a(spi_open_spi1_lib_legacy.o)
 .reginfo       0x00000000       0x18 /opt/microchip/xc32/v1.33/pic32mx/lib/libmchp_peripheral_32MX795F512L.a(spi_open_spi1_lib_legacy.o)
 .text          0x00000000        0x0 /opt/microchip/xc32/v1.33/pic32mx/lib/libmchp_peripheral_32MX795F512L.a(spi_brg_tbl_lib_legacy.o)
 .data          0x00000000        0x0 /opt/microchip/xc32/v1.33/pic32mx/lib/libmchp_peripheral_32MX795F512L.a(spi_brg_tbl_lib_legacy.o)
 .bss           0x00000000        0x0 /opt/microchip/xc32/v1.33/pic32mx/lib/libmchp_peripheral_32MX795F512L.a(spi_brg_tbl_lib_legacy.o)
 .reginfo       0x00000000       0x18 /opt/microchip/xc32/v1.33/pic32mx/lib/libmchp_peripheral_32MX795F512L.a(spi_brg_tbl_lib_legacy.o)
 .text          0x00000000        0x0 /opt/microchip/xc32/v1.33/pic32mx/lib/libmchp_peripheral_32MX795F512L.a(nvm_erase_page_lib.o)
 .data          0x00000000        0x0 /opt/microchip/xc32/v1.33/pic32mx/lib/libmchp_peripheral_32MX795F512L.a(nvm_erase_page_lib.o)
 .bss           0x00000000        0x0 /opt/microchip/xc32/v1.33/pic32mx/lib/libmchp_peripheral_32MX795F512L.a(nvm_erase_page_lib.o)
 .reginfo       0x00000000       0x18 /opt/microchip/xc32/v1.33/pic32mx/lib/libmchp_peripheral_32MX795F512L.a(nvm_erase_page_lib.o)
 .text          0x00000000        0x0 /opt/microchip/xc32/v1.33/pic32mx/lib/libmchp_peripheral_32MX795F512L.a(nvm_operation_lib.o)
 .data          0x00000000        0x0 /opt/microchip/xc32/v1.33/pic32mx/lib/libmchp_peripheral_32MX795F512L.a(nvm_operation_lib.o)
 .bss           0x00000000        0x0 /opt/microchip/xc32/v1.33/pic32mx/lib/libmchp_peripheral_32MX795F512L.a(nvm_operation_lib.o)
 .reginfo       0x00000000       0x18 /opt/microchip/xc32/v1.33/pic32mx/lib/libmchp_peripheral_32MX795F512L.a(nvm_operation_lib.o)
 .text          0x00000000        0x0 /opt/microchip/xc32/v1.33/pic32mx/lib/libmchp_peripheral_32MX795F512L.a(nvm_program_lib.o)
 .data          0x00000000        0x0 /opt/microchip/xc32/v1.33/pic32mx/lib/libmchp_peripheral_32MX795F512L.a(nvm_program_lib.o)
 .bss           0x00000000        0x0 /opt/microchip/xc32/v1.33/pic32mx/lib/libmchp_peripheral_32MX795F512L.a(nvm_program_lib.o)
 .reginfo       0x00000000       0x18 /opt/microchip/xc32/v1.33/pic32mx/lib/libmchp_peripheral_32MX795F512L.a(nvm_program_lib.o)
 .text          0x00000000        0x0 /opt/microchip/xc32/v1.33/pic32mx/lib/libmchp_peripheral_32MX795F512L.a(nvm_write_row_lib.o)
 .data          0x00000000        0x0 /opt/microchip/xc32/v1.33/pic32mx/lib/libmchp_peripheral_32MX795F512L.a(nvm_write_row_lib.o)
 .bss           0x00000000        0x0 /opt/microchip/xc32/v1.33/pic32mx/lib/libmchp_peripheral_32MX795F512L.a(nvm_write_row_lib.o)
 .reginfo       0x00000000       0x18 /opt/microchip/xc32/v1.33/pic32mx/lib/libmchp_peripheral_32MX795F512L.a(nvm_write_row_lib.o)
 .text          0x00000000        0x0 /opt/microchip/xc32/v1.33/pic32mx/lib/libmchp_peripheral_32MX795F512L.a(port_reset_pins_lib.o)
 .data          0x00000000        0x0 /opt/microchip/xc32/v1.33/pic32mx/lib/libmchp_peripheral_32MX795F512L.a(port_reset_pins_lib.o)
 .bss           0x00000000        0x0 /opt/microchip/xc32/v1.33/pic32mx/lib/libmchp_peripheral_32MX795F512L.a(port_reset_pins_lib.o)
 .reginfo       0x00000000       0x18 /opt/microchip/xc32/v1.33/pic32mx/lib/libmchp_peripheral_32MX795F512L.a(port_reset_pins_lib.o)
 .text          0x00000000        0x0 /opt/microchip/xc32/v1.33/pic32mx/lib/libmchp_peripheral_32MX795F512L.a(port_set_pins_digital_in_lib.o)
 .data          0x00000000        0x0 /opt/microchip/xc32/v1.33/pic32mx/lib/libmchp_peripheral_32MX795F512L.a(port_set_pins_digital_in_lib.o)
 .bss           0x00000000        0x0 /opt/microchip/xc32/v1.33/pic32mx/lib/libmchp_peripheral_32MX795F512L.a(port_set_pins_digital_in_lib.o)
 .reginfo       0x00000000       0x18 /opt/microchip/xc32/v1.33/pic32mx/lib/libmchp_peripheral_32MX795F512L.a(port_set_pins_digital_in_lib.o)
 .text          0x00000000        0x0 /opt/microchip/xc32/v1.33/pic32mx/lib/libmchp_peripheral_32MX795F512L.a(port_set_pins_digital_out_lib.o)
 .data          0x00000000        0x0 /opt/microchip/xc32/v1.33/pic32mx/lib/libmchp_peripheral_32MX795F512L.a(port_set_pins_digital_out_lib.o)
 .bss           0x00000000        0x0 /opt/microchip/xc32/v1.33/pic32mx/lib/libmchp_peripheral_32MX795F512L.a(port_set_pins_digital_out_lib.o)
 .reginfo       0x00000000       0x18 /opt/microchip/xc32/v1.33/pic32mx/lib/libmchp_peripheral_32MX795F512L.a(port_set_pins_digital_out_lib.o)
 .text          0x00000000        0x0 /opt/microchip/xc32/v1.33/pic32mx/lib/libmchp_peripheral_32MX795F512L.a(_ports_tbl_libp.o)
 .data          0x00000000        0x0 /opt/microchip/xc32/v1.33/pic32mx/lib/libmchp_peripheral_32MX795F512L.a(_ports_tbl_libp.o)
 .bss           0x00000000        0x0 /opt/microchip/xc32/v1.33/pic32mx/lib/libmchp_peripheral_32MX795F512L.a(_ports_tbl_libp.o)
 .reginfo       0x00000000       0x18 /opt/microchip/xc32/v1.33/pic32mx/lib/libmchp_peripheral_32MX795F512L.a(_ports_tbl_libp.o)
 .text          0x00000000        0x0 /opt/microchip/xc32/v1.33/bin/bin/../../lib/gcc/pic32mx/4.5.2/../../../../pic32mx/lib/./proc/32MX795F512L/default_isr_vectors.o
 .data          0x00000000        0x0 /opt/microchip/xc32/v1.33/bin/bin/../../lib/gcc/pic32mx/4.5.2/../../../../pic32mx/lib/./proc/32MX795F512L/default_isr_vectors.o
 .bss           0x00000000        0x0 /opt/microchip/xc32/v1.33/bin/bin/../../lib/gcc/pic32mx/4.5.2/../../../../pic32mx/lib/./proc/32MX795F512L/default_isr_vectors.o
 .reginfo       0x00000000       0x18 /opt/microchip/xc32/v1.33/bin/bin/../../lib/gcc/pic32mx/4.5.2/../../../../pic32mx/lib/./proc/32MX795F512L/default_isr_vectors.o
 .discard       0x00000000      0x100 /opt/microchip/xc32/v1.33/bin/bin/../../lib/gcc/pic32mx/4.5.2/../../../../pic32mx/lib/./proc/32MX795F512L/default_isr_vectors.o
 .data          0x00000000        0x0 /opt/microchip/xc32/v1.33/bin/bin/../../lib/gcc/pic32mx/4.5.2/../../../../pic32mx/lib/pic32_software_reset.o
 .bss           0x00000000        0x0 /opt/microchip/xc32/v1.33/bin/bin/../../lib/gcc/pic32mx/4.5.2/../../../../pic32mx/lib/pic32_software_reset.o
 .reginfo       0x00000000       0x18 /opt/microchip/xc32/v1.33/bin/bin/../../lib/gcc/pic32mx/4.5.2/../../../../pic32mx/lib/pic32_software_reset.o
 .text          0x00000000        0x0 /opt/microchip/xc32/v1.33/bin/bin/../../lib/gcc/pic32mx/4.5.2/../../../../pic32mx/lib/./proc/32MX795F512L/processor.o
 .data          0x00000000        0x0 /opt/microchip/xc32/v1.33/bin/bin/../../lib/gcc/pic32mx/4.5.2/../../../../pic32mx/lib/./proc/32MX795F512L/processor.o
 .bss           0x00000000        0x0 /opt/microchip/xc32/v1.33/bin/bin/../../lib/gcc/pic32mx/4.5.2/../../../../pic32mx/lib/./proc/32MX795F512L/processor.o
 .reginfo       0x00000000       0x18 /opt/microchip/xc32/v1.33/bin/bin/../../lib/gcc/pic32mx/4.5.2/../../../../pic32mx/lib/./proc/32MX795F512L/processor.o
 .data          0x00000000        0x0 /opt/microchip/xc32/v1.33/bin/bin/../../lib/gcc/pic32mx/4.5.2/libgcc.a(_udivdi3.o)
 .bss           0x00000000        0x0 /opt/microchip/xc32/v1.33/bin/bin/../../lib/gcc/pic32mx/4.5.2/libgcc.a(_udivdi3.o)
 .reginfo       0x00000000       0x18 /opt/microchip/xc32/v1.33/bin/bin/../../lib/gcc/pic32mx/4.5.2/libgcc.a(_udivdi3.o)
 .data          0x00000000        0x0 /opt/microchip/xc32/v1.33/bin/bin/../../lib/gcc/pic32mx/4.5.2/../../../../pic32mx/lib/libpic32.a(memcmp.o)
 .bss           0x00000000        0x0 /opt/microchip/xc32/v1.33/bin/bin/../../lib/gcc/pic32mx/4.5.2/../../../../pic32mx/lib/libpic32.a(memcmp.o)
 .reginfo       0x00000000       0x18 /opt/microchip/xc32/v1.33/bin/bin/../../lib/gcc/pic32mx/4.5.2/../../../../pic32mx/lib/libpic32.a(memcmp.o)
 .data          0x00000000        0x0 /opt/microchip/xc32/v1.33/bin/bin/../../lib/gcc/pic32mx/4.5.2/../../../../pic32mx/lib/libpic32.a(memcpy.o)
 .bss           0x00000000        0x0 /opt/microchip/xc32/v1.33/bin/bin/../../lib/gcc/pic32mx/4.5.2/../../../../pic32mx/lib/libpic32.a(memcpy.o)
 .reginfo       0x00000000       0x18 /opt/microchip/xc32/v1.33/bin/bin/../../lib/gcc/pic32mx/4.5.2/../../../../pic32mx/lib/libpic32.a(memcpy.o)
 .data          0x00000000        0x0 /opt/microchip/xc32/v1.33/bin/bin/../../lib/gcc/pic32mx/4.5.2/../../../../pic32mx/lib/libpic32.a(memset.o)
 .bss           0x00000000        0x0 /opt/microchip/xc32/v1.33/bin/bin/../../lib/gcc/pic32mx/4.5.2/../../../../pic32mx/lib/libpic32.a(memset.o)
 .reginfo       0x00000000       0x18 /opt/microchip/xc32/v1.33/bin/bin/../../lib/gcc/pic32mx/4.5.2/../../../../pic32mx/lib/libpic32.a(memset.o)
 .data          0x00000000        0x0 /opt/microchip/xc32/v1.33/bin/bin/../../lib/gcc/pic32mx/4.5.2/../../../../pic32mx/lib/libpic32.a(strcmp.o)
 .bss           0x00000000        0x0 /opt/microchip/xc32/v1.33/bin/bin/../../lib/gcc/pic32mx/4.5.2/../../../../pic32mx/lib/libpic32.a(strcmp.o)
 .reginfo       0x00000000       0x18 /opt/microchip/xc32/v1.33/bin/bin/../../lib/gcc/pic32mx/4.5.2/../../../../pic32mx/lib/libpic32.a(strcmp.o)
 .data          0x00000000        0x0 /opt/microchip/xc32/v1.33/bin/bin/../../lib/gcc/pic32mx/4.5.2/../../../../pic32mx/lib/libpic32.a(strcpy.o)
 .bss           0x00000000        0x0 /opt/microchip/xc32/v1.33/bin/bin/../../lib/gcc/pic32mx/4.5.2/../../../../pic32mx/lib/libpic32.a(strcpy.o)
 .reginfo       0x00000000       0x18 /opt/microchip/xc32/v1.33/bin/bin/../../lib/gcc/pic32mx/4.5.2/../../../../pic32mx/lib/libpic32.a(strcpy.o)
 .data          0x00000000        0x0 /opt/microchip/xc32/v1.33/bin/bin/../../lib/gcc/pic32mx/4.5.2/../../../../pic32mx/lib/libpic32.a(strlen.o)
 .bss           0x00000000        0x0 /opt/microchip/xc32/v1.33/bin/bin/../../lib/gcc/pic32mx/4.5.2/../../../../pic32mx/lib/libpic32.a(strlen.o)
 .reginfo       0x00000000       0x18 /opt/microchip/xc32/v1.33/bin/bin/../../lib/gcc/pic32mx/4.5.2/../../../../pic32mx/lib/libpic32.a(strlen.o)
 .text          0x00000000        0x0 /opt/microchip/xc32/v1.33/bin/bin/../../lib/gcc/pic32mx/4.5.2/../../../../pic32mx/lib/libpic32.a(default-bootstrap-exception-handler.o)
 .data          0x00000000        0x0 /opt/microchip/xc32/v1.33/bin/bin/../../lib/gcc/pic32mx/4.5.2/../../../../pic32mx/lib/libpic32.a(default-bootstrap-exception-handler.o)
 .bss           0x00000000        0x0 /opt/microchip/xc32/v1.33/bin/bin/../../lib/gcc/pic32mx/4.5.2/../../../../pic32mx/lib/libpic32.a(default-bootstrap-exception-handler.o)
 .reginfo       0x00000000       0x18 /opt/microchip/xc32/v1.33/bin/bin/../../lib/gcc/pic32mx/4.5.2/../../../../pic32mx/lib/libpic32.a(default-bootstrap-exception-handler.o)
 .text          0x00000000        0x0 /opt/microchip/xc32/v1.33/bin/bin/../../lib/gcc/pic32mx/4.5.2/../../../../pic32mx/lib/libpic32.a(default-on-reset.o)
 .data          0x00000000        0x0 /opt/microchip/xc32/v1.33/bin/bin/../../lib/gcc/pic32mx/4.5.2/../../../../pic32mx/lib/libpic32.a(default-on-reset.o)
 .bss           0x00000000        0x0 /opt/microchip/xc32/v1.33/bin/bin/../../lib/gcc/pic32mx/4.5.2/../../../../pic32mx/lib/libpic32.a(default-on-reset.o)
 .reginfo       0x00000000       0x18 /opt/microchip/xc32/v1.33/bin/bin/../../lib/gcc/pic32mx/4.5.2/../../../../pic32mx/lib/libpic32.a(default-on-reset.o)
 .text          0x00000000        0x0 /opt/microchip/xc32/v1.33/bin/bin/../../lib/gcc/pic32mx/4.5.2/../../../../pic32mx/lib/libpic32.a(default-on-bootstrap.o)
 .data          0x00000000        0x0 /opt/microchip/xc32/v1.33/bin/bin/../../lib/gcc/pic32mx/4.5.2/../../../../pic32mx/lib/libpic32.a(default-on-bootstrap.o)
 .bss           0x00000000        0x0 /opt/microchip/xc32/v1.33/bin/bin/../../lib/gcc/pic32mx/4.5.2/../../../../pic32mx/lib/libpic32.a(default-on-bootstrap.o)
 .reginfo       0x00000000       0x18 /opt/microchip/xc32/v1.33/bin/bin/../../lib/gcc/pic32mx/4.5.2/../../../../pic32mx/lib/libpic32.a(default-on-bootstrap.o)
 .data          0x00000000        0x0 /opt/microchip/xc32/v1.33/bin/bin/../../lib/gcc/pic32mx/4.5.2/../../../../pic32mx/lib/libpic32.a(default-nmi-handler.o)
 .bss           0x00000000        0x0 /opt/microchip/xc32/v1.33/bin/bin/../../lib/gcc/pic32mx/4.5.2/../../../../pic32mx/lib/libpic32.a(default-nmi-handler.o)
 .reginfo       0x00000000       0x18 /opt/microchip/xc32/v1.33/bin/bin/../../lib/gcc/pic32mx/4.5.2/../../../../pic32mx/lib/libpic32.a(default-nmi-handler.o)
 .text          0x00000000        0x0 /opt/microchip/xc32/v1.33/bin/bin/../../lib/gcc/pic32mx/4.5.2/../../../../pic32mx/lib/libpic32.a(general-exception.o)
 .data          0x00000000        0x0 /opt/microchip/xc32/v1.33/bin/bin/../../lib/gcc/pic32mx/4.5.2/../../../../pic32mx/lib/libpic32.a(general-exception.o)
 .bss           0x00000000        0x0 /opt/microchip/xc32/v1.33/bin/bin/../../lib/gcc/pic32mx/4.5.2/../../../../pic32mx/lib/libpic32.a(general-exception.o)
 .reginfo       0x00000000       0x18 /opt/microchip/xc32/v1.33/bin/bin/../../lib/gcc/pic32mx/4.5.2/../../../../pic32mx/lib/libpic32.a(general-exception.o)
 .text          0x00000000        0x0 /opt/microchip/xc32/v1.33/bin/bin/../../lib/gcc/pic32mx/4.5.2/../../../../pic32mx/lib/libpic32.a(vector0.o)
 .data          0x00000000        0x0 /opt/microchip/xc32/v1.33/bin/bin/../../lib/gcc/pic32mx/4.5.2/../../../../pic32mx/lib/libpic32.a(vector0.o)
 .bss           0x00000000        0x0 /opt/microchip/xc32/v1.33/bin/bin/../../lib/gcc/pic32mx/4.5.2/../../../../pic32mx/lib/libpic32.a(vector0.o)
 .reginfo       0x00000000       0x18 /opt/microchip/xc32/v1.33/bin/bin/../../lib/gcc/pic32mx/4.5.2/../../../../pic32mx/lib/libpic32.a(vector0.o)
 .text          0x00000000        0x0 /opt/microchip/xc32/v1.33/bin/bin/../../lib/gcc/pic32mx/4.5.2/../../../../pic32mx/lib/libpic32.a(vector1.o)
 .data          0x00000000        0x0 /opt/microchip/xc32/v1.33/bin/bin/../../lib/gcc/pic32mx/4.5.2/../../../../pic32mx/lib/libpic32.a(vector1.o)
 .bss           0x00000000        0x0 /opt/microchip/xc32/v1.33/bin/bin/../../lib/gcc/pic32mx/4.5.2/../../../../pic32mx/lib/libpic32.a(vector1.o)
 .reginfo       0x00000000       0x18 /opt/microchip/xc32/v1.33/bin/bin/../../lib/gcc/pic32mx/4.5.2/../../../../pic32mx/lib/libpic32.a(vector1.o)
 .text          0x00000000        0x0 /opt/microchip/xc32/v1.33/bin/bin/../../lib/gcc/pic32mx/4.5.2/../../../../pic32mx/lib/libpic32.a(vector2.o)
 .data          0x00000000        0x0 /opt/microchip/xc32/v1.33/bin/bin/../../lib/gcc/pic32mx/4.5.2/../../../../pic32mx/lib/libpic32.a(vector2.o)
 .bss           0x00000000        0x0 /opt/microchip/xc32/v1.33/bin/bin/../../lib/gcc/pic32mx/4.5.2/../../../../pic32mx/lib/libpic32.a(vector2.o)
 .reginfo       0x00000000       0x18 /opt/microchip/xc32/v1.33/bin/bin/../../lib/gcc/pic32mx/4.5.2/../../../../pic32mx/lib/libpic32.a(vector2.o)
 .text          0x00000000        0x0 /opt/microchip/xc32/v1.33/bin/bin/../../lib/gcc/pic32mx/4.5.2/../../../../pic32mx/lib/libpic32.a(vector3.o)
 .data          0x00000000        0x0 /opt/microchip/xc32/v1.33/bin/bin/../../lib/gcc/pic32mx/4.5.2/../../../../pic32mx/lib/libpic32.a(vector3.o)
 .bss           0x00000000        0x0 /opt/microchip/xc32/v1.33/bin/bin/../../lib/gcc/pic32mx/4.5.2/../../../../pic32mx/lib/libpic32.a(vector3.o)
 .reginfo       0x00000000       0x18 /opt/microchip/xc32/v1.33/bin/bin/../../lib/gcc/pic32mx/4.5.2/../../../../pic32mx/lib/libpic32.a(vector3.o)
 .text          0x00000000        0x0 /opt/microchip/xc32/v1.33/bin/bin/../../lib/gcc/pic32mx/4.5.2/../../../../pic32mx/lib/libpic32.a(vector5.o)
 .data          0x00000000        0x0 /opt/microchip/xc32/v1.33/bin/bin/../../lib/gcc/pic32mx/4.5.2/../../../../pic32mx/lib/libpic32.a(vector5.o)
 .bss           0x00000000        0x0 /opt/microchip/xc32/v1.33/bin/bin/../../lib/gcc/pic32mx/4.5.2/../../../../pic32mx/lib/libpic32.a(vector5.o)
 .reginfo       0x00000000       0x18 /opt/microchip/xc32/v1.33/bin/bin/../../lib/gcc/pic32mx/4.5.2/../../../../pic32mx/lib/libpic32.a(vector5.o)
 .text          0x00000000        0x0 /opt/microchip/xc32/v1.33/bin/bin/../../lib/gcc/pic32mx/4.5.2/../../../../pic32mx/lib/libpic32.a(vector6.o)
 .data          0x00000000        0x0 /opt/microchip/xc32/v1.33/bin/bin/../../lib/gcc/pic32mx/4.5.2/../../../../pic32mx/lib/libpic32.a(vector6.o)
 .bss           0x00000000        0x0 /opt/microchip/xc32/v1.33/bin/bin/../../lib/gcc/pic32mx/4.5.2/../../../../pic32mx/lib/libpic32.a(vector6.o)
 .reginfo       0x00000000       0x18 /opt/microchip/xc32/v1.33/bin/bin/../../lib/gcc/pic32mx/4.5.2/../../../../pic32mx/lib/libpic32.a(vector6.o)
 .text          0x00000000        0x0 /opt/microchip/xc32/v1.33/bin/bin/../../lib/gcc/pic32mx/4.5.2/../../../../pic32mx/lib/libpic32.a(vector7.o)
 .data          0x00000000        0x0 /opt/microchip/xc32/v1.33/bin/bin/../../lib/gcc/pic32mx/4.5.2/../../../../pic32mx/lib/libpic32.a(vector7.o)
 .bss           0x00000000        0x0 /opt/microchip/xc32/v1.33/bin/bin/../../lib/gcc/pic32mx/4.5.2/../../../../pic32mx/lib/libpic32.a(vector7.o)
 .reginfo       0x00000000       0x18 /opt/microchip/xc32/v1.33/bin/bin/../../lib/gcc/pic32mx/4.5.2/../../../../pic32mx/lib/libpic32.a(vector7.o)
 .text          0x00000000        0x0 /opt/microchip/xc32/v1.33/bin/bin/../../lib/gcc/pic32mx/4.5.2/../../../../pic32mx/lib/libpic32.a(vector8.o)
 .data          0x00000000        0x0 /opt/microchip/xc32/v1.33/bin/bin/../../lib/gcc/pic32mx/4.5.2/../../../../pic32mx/lib/libpic32.a(vector8.o)
 .bss           0x00000000        0x0 /opt/microchip/xc32/v1.33/bin/bin/../../lib/gcc/pic32mx/4.5.2/../../../../pic32mx/lib/libpic32.a(vector8.o)
 .reginfo       0x00000000       0x18 /opt/microchip/xc32/v1.33/bin/bin/../../lib/gcc/pic32mx/4.5.2/../../../../pic32mx/lib/libpic32.a(vector8.o)
 .text          0x00000000        0x0 /opt/microchip/xc32/v1.33/bin/bin/../../lib/gcc/pic32mx/4.5.2/../../../../pic32mx/lib/libpic32.a(vector9.o)
 .data          0x00000000        0x0 /opt/microchip/xc32/v1.33/bin/bin/../../lib/gcc/pic32mx/4.5.2/../../../../pic32mx/lib/libpic32.a(vector9.o)
 .bss           0x00000000        0x0 /opt/microchip/xc32/v1.33/bin/bin/../../lib/gcc/pic32mx/4.5.2/../../../../pic32mx/lib/libpic32.a(vector9.o)
 .reginfo       0x00000000       0x18 /opt/microchip/xc32/v1.33/bin/bin/../../lib/gcc/pic32mx/4.5.2/../../../../pic32mx/lib/libpic32.a(vector9.o)
 .text          0x00000000        0x0 /opt/microchip/xc32/v1.33/bin/bin/../../lib/gcc/pic32mx/4.5.2/../../../../pic32mx/lib/libpic32.a(vector10.o)
 .data          0x00000000        0x0 /opt/microchip/xc32/v1.33/bin/bin/../../lib/gcc/pic32mx/4.5.2/../../../../pic32mx/lib/libpic32.a(vector10.o)
 .bss           0x00000000        0x0 /opt/microchip/xc32/v1.33/bin/bin/../../lib/gcc/pic32mx/4.5.2/../../../../pic32mx/lib/libpic32.a(vector10.o)
 .reginfo       0x00000000       0x18 /opt/microchip/xc32/v1.33/bin/bin/../../lib/gcc/pic32mx/4.5.2/../../../../pic32mx/lib/libpic32.a(vector10.o)
 .text          0x00000000        0x0 /opt/microchip/xc32/v1.33/bin/bin/../../lib/gcc/pic32mx/4.5.2/../../../../pic32mx/lib/libpic32.a(vector11.o)
 .data          0x00000000        0x0 /opt/microchip/xc32/v1.33/bin/bin/../../lib/gcc/pic32mx/4.5.2/../../../../pic32mx/lib/libpic32.a(vector11.o)
 .bss           0x00000000        0x0 /opt/microchip/xc32/v1.33/bin/bin/../../lib/gcc/pic32mx/4.5.2/../../../../pic32mx/lib/libpic32.a(vector11.o)
 .reginfo       0x00000000       0x18 /opt/microchip/xc32/v1.33/bin/bin/../../lib/gcc/pic32mx/4.5.2/../../../../pic32mx/lib/libpic32.a(vector11.o)
 .text          0x00000000        0x0 /opt/microchip/xc32/v1.33/bin/bin/../../lib/gcc/pic32mx/4.5.2/../../../../pic32mx/lib/libpic32.a(vector13.o)
 .data          0x00000000        0x0 /opt/microchip/xc32/v1.33/bin/bin/../../lib/gcc/pic32mx/4.5.2/../../../../pic32mx/lib/libpic32.a(vector13.o)
 .bss           0x00000000        0x0 /opt/microchip/xc32/v1.33/bin/bin/../../lib/gcc/pic32mx/4.5.2/../../../../pic32mx/lib/libpic32.a(vector13.o)
 .reginfo       0x00000000       0x18 /opt/microchip/xc32/v1.33/bin/bin/../../lib/gcc/pic32mx/4.5.2/../../../../pic32mx/lib/libpic32.a(vector13.o)
 .text          0x00000000        0x0 /opt/microchip/xc32/v1.33/bin/bin/../../lib/gcc/pic32mx/4.5.2/../../../../pic32mx/lib/libpic32.a(vector14.o)
 .data          0x00000000        0x0 /opt/microchip/xc32/v1.33/bin/bin/../../lib/gcc/pic32mx/4.5.2/../../../../pic32mx/lib/libpic32.a(vector14.o)
 .bss           0x00000000        0x0 /opt/microchip/xc32/v1.33/bin/bin/../../lib/gcc/pic32mx/4.5.2/../../../../pic32mx/lib/libpic32.a(vector14.o)
 .reginfo       0x00000000       0x18 /opt/microchip/xc32/v1.33/bin/bin/../../lib/gcc/pic32mx/4.5.2/../../../../pic32mx/lib/libpic32.a(vector14.o)
 .text          0x00000000        0x0 /opt/microchip/xc32/v1.33/bin/bin/../../lib/gcc/pic32mx/4.5.2/../../../../pic32mx/lib/libpic32.a(vector15.o)
 .data          0x00000000        0x0 /opt/microchip/xc32/v1.33/bin/bin/../../lib/gcc/pic32mx/4.5.2/../../../../pic32mx/lib/libpic32.a(vector15.o)
 .bss           0x00000000        0x0 /opt/microchip/xc32/v1.33/bin/bin/../../lib/gcc/pic32mx/4.5.2/../../../../pic32mx/lib/libpic32.a(vector15.o)
 .reginfo       0x00000000       0x18 /opt/microchip/xc32/v1.33/bin/bin/../../lib/gcc/pic32mx/4.5.2/../../../../pic32mx/lib/libpic32.a(vector15.o)
 .text          0x00000000        0x0 /opt/microchip/xc32/v1.33/bin/bin/../../lib/gcc/pic32mx/4.5.2/../../../../pic32mx/lib/libpic32.a(vector17.o)
 .data          0x00000000        0x0 /opt/microchip/xc32/v1.33/bin/bin/../../lib/gcc/pic32mx/4.5.2/../../../../pic32mx/lib/libpic32.a(vector17.o)
 .bss           0x00000000        0x0 /opt/microchip/xc32/v1.33/bin/bin/../../lib/gcc/pic32mx/4.5.2/../../../../pic32mx/lib/libpic32.a(vector17.o)
 .reginfo       0x00000000       0x18 /opt/microchip/xc32/v1.33/bin/bin/../../lib/gcc/pic32mx/4.5.2/../../../../pic32mx/lib/libpic32.a(vector17.o)
 .text          0x00000000        0x0 /opt/microchip/xc32/v1.33/bin/bin/../../lib/gcc/pic32mx/4.5.2/../../../../pic32mx/lib/libpic32.a(vector18.o)
 .data          0x00000000        0x0 /opt/microchip/xc32/v1.33/bin/bin/../../lib/gcc/pic32mx/4.5.2/../../../../pic32mx/lib/libpic32.a(vector18.o)
 .bss           0x00000000        0x0 /opt/microchip/xc32/v1.33/bin/bin/../../lib/gcc/pic32mx/4.5.2/../../../../pic32mx/lib/libpic32.a(vector18.o)
 .reginfo       0x00000000       0x18 /opt/microchip/xc32/v1.33/bin/bin/../../lib/gcc/pic32mx/4.5.2/../../../../pic32mx/lib/libpic32.a(vector18.o)
 .text          0x00000000        0x0 /opt/microchip/xc32/v1.33/bin/bin/../../lib/gcc/pic32mx/4.5.2/../../../../pic32mx/lib/libpic32.a(vector19.o)
 .data          0x00000000        0x0 /opt/microchip/xc32/v1.33/bin/bin/../../lib/gcc/pic32mx/4.5.2/../../../../pic32mx/lib/libpic32.a(vector19.o)
 .bss           0x00000000        0x0 /opt/microchip/xc32/v1.33/bin/bin/../../lib/gcc/pic32mx/4.5.2/../../../../pic32mx/lib/libpic32.a(vector19.o)
 .reginfo       0x00000000       0x18 /opt/microchip/xc32/v1.33/bin/bin/../../lib/gcc/pic32mx/4.5.2/../../../../pic32mx/lib/libpic32.a(vector19.o)
 .text          0x00000000        0x0 /opt/microchip/xc32/v1.33/bin/bin/../../lib/gcc/pic32mx/4.5.2/../../../../pic32mx/lib/libpic32.a(vector20.o)
 .data          0x00000000        0x0 /opt/microchip/xc32/v1.33/bin/bin/../../lib/gcc/pic32mx/4.5.2/../../../../pic32mx/lib/libpic32.a(vector20.o)
 .bss           0x00000000        0x0 /opt/microchip/xc32/v1.33/bin/bin/../../lib/gcc/pic32mx/4.5.2/../../../../pic32mx/lib/libpic32.a(vector20.o)
 .reginfo       0x00000000       0x18 /opt/microchip/xc32/v1.33/bin/bin/../../lib/gcc/pic32mx/4.5.2/../../../../pic32mx/lib/libpic32.a(vector20.o)
 .text          0x00000000        0x0 /opt/microchip/xc32/v1.33/bin/bin/../../lib/gcc/pic32mx/4.5.2/../../../../pic32mx/lib/libpic32.a(vector21.o)
 .data          0x00000000        0x0 /opt/microchip/xc32/v1.33/bin/bin/../../lib/gcc/pic32mx/4.5.2/../../../../pic32mx/lib/libpic32.a(vector21.o)
 .bss           0x00000000        0x0 /opt/microchip/xc32/v1.33/bin/bin/../../lib/gcc/pic32mx/4.5.2/../../../../pic32mx/lib/libpic32.a(vector21.o)
 .reginfo       0x00000000       0x18 /opt/microchip/xc32/v1.33/bin/bin/../../lib/gcc/pic32mx/4.5.2/../../../../pic32mx/lib/libpic32.a(vector21.o)
 .text          0x00000000        0x0 /opt/microchip/xc32/v1.33/bin/bin/../../lib/gcc/pic32mx/4.5.2/../../../../pic32mx/lib/libpic32.a(vector23.o)
 .data          0x00000000        0x0 /opt/microchip/xc32/v1.33/bin/bin/../../lib/gcc/pic32mx/4.5.2/../../../../pic32mx/lib/libpic32.a(vector23.o)
 .bss           0x00000000        0x0 /opt/microchip/xc32/v1.33/bin/bin/../../lib/gcc/pic32mx/4.5.2/../../../../pic32mx/lib/libpic32.a(vector23.o)
 .reginfo       0x00000000       0x18 /opt/microchip/xc32/v1.33/bin/bin/../../lib/gcc/pic32mx/4.5.2/../../../../pic32mx/lib/libpic32.a(vector23.o)
 .text          0x00000000        0x0 /opt/microchip/xc32/v1.33/bin/bin/../../lib/gcc/pic32mx/4.5.2/../../../../pic32mx/lib/libpic32.a(vector24.o)
 .data          0x00000000        0x0 /opt/microchip/xc32/v1.33/bin/bin/../../lib/gcc/pic32mx/4.5.2/../../../../pic32mx/lib/libpic32.a(vector24.o)
 .bss           0x00000000        0x0 /opt/microchip/xc32/v1.33/bin/bin/../../lib/gcc/pic32mx/4.5.2/../../../../pic32mx/lib/libpic32.a(vector24.o)
 .reginfo       0x00000000       0x18 /opt/microchip/xc32/v1.33/bin/bin/../../lib/gcc/pic32mx/4.5.2/../../../../pic32mx/lib/libpic32.a(vector24.o)
 .text          0x00000000        0x0 /opt/microchip/xc32/v1.33/bin/bin/../../lib/gcc/pic32mx/4.5.2/../../../../pic32mx/lib/libpic32.a(vector25.o)
 .data          0x00000000        0x0 /opt/microchip/xc32/v1.33/bin/bin/../../lib/gcc/pic32mx/4.5.2/../../../../pic32mx/lib/libpic32.a(vector25.o)
 .bss           0x00000000        0x0 /opt/microchip/xc32/v1.33/bin/bin/../../lib/gcc/pic32mx/4.5.2/../../../../pic32mx/lib/libpic32.a(vector25.o)
 .reginfo       0x00000000       0x18 /opt/microchip/xc32/v1.33/bin/bin/../../lib/gcc/pic32mx/4.5.2/../../../../pic32mx/lib/libpic32.a(vector25.o)
 .text          0x00000000        0x0 /opt/microchip/xc32/v1.33/bin/bin/../../lib/gcc/pic32mx/4.5.2/../../../../pic32mx/lib/libpic32.a(vector26.o)
 .data          0x00000000        0x0 /opt/microchip/xc32/v1.33/bin/bin/../../lib/gcc/pic32mx/4.5.2/../../../../pic32mx/lib/libpic32.a(vector26.o)
 .bss           0x00000000        0x0 /opt/microchip/xc32/v1.33/bin/bin/../../lib/gcc/pic32mx/4.5.2/../../../../pic32mx/lib/libpic32.a(vector26.o)
 .reginfo       0x00000000       0x18 /opt/microchip/xc32/v1.33/bin/bin/../../lib/gcc/pic32mx/4.5.2/../../../../pic32mx/lib/libpic32.a(vector26.o)
 .text          0x00000000        0x0 /opt/microchip/xc32/v1.33/bin/bin/../../lib/gcc/pic32mx/4.5.2/../../../../pic32mx/lib/libpic32.a(vector27.o)
 .data          0x00000000        0x0 /opt/microchip/xc32/v1.33/bin/bin/../../lib/gcc/pic32mx/4.5.2/../../../../pic32mx/lib/libpic32.a(vector27.o)
 .bss           0x00000000        0x0 /opt/microchip/xc32/v1.33/bin/bin/../../lib/gcc/pic32mx/4.5.2/../../../../pic32mx/lib/libpic32.a(vector27.o)
 .reginfo       0x00000000       0x18 /opt/microchip/xc32/v1.33/bin/bin/../../lib/gcc/pic32mx/4.5.2/../../../../pic32mx/lib/libpic32.a(vector27.o)
 .text          0x00000000        0x0 /opt/microchip/xc32/v1.33/bin/bin/../../lib/gcc/pic32mx/4.5.2/../../../../pic32mx/lib/libpic32.a(vector28.o)
 .data          0x00000000        0x0 /opt/microchip/xc32/v1.33/bin/bin/../../lib/gcc/pic32mx/4.5.2/../../../../pic32mx/lib/libpic32.a(vector28.o)
 .bss           0x00000000        0x0 /opt/microchip/xc32/v1.33/bin/bin/../../lib/gcc/pic32mx/4.5.2/../../../../pic32mx/lib/libpic32.a(vector28.o)
 .reginfo       0x00000000       0x18 /opt/microchip/xc32/v1.33/bin/bin/../../lib/gcc/pic32mx/4.5.2/../../../../pic32mx/lib/libpic32.a(vector28.o)
 .text          0x00000000        0x0 /opt/microchip/xc32/v1.33/bin/bin/../../lib/gcc/pic32mx/4.5.2/../../../../pic32mx/lib/libpic32.a(vector29.o)
 .data          0x00000000        0x0 /opt/microchip/xc32/v1.33/bin/bin/../../lib/gcc/pic32mx/4.5.2/../../../../pic32mx/lib/libpic32.a(vector29.o)
 .bss           0x00000000        0x0 /opt/microchip/xc32/v1.33/bin/bin/../../lib/gcc/pic32mx/4.5.2/../../../../pic32mx/lib/libpic32.a(vector29.o)
 .reginfo       0x00000000       0x18 /opt/microchip/xc32/v1.33/bin/bin/../../lib/gcc/pic32mx/4.5.2/../../../../pic32mx/lib/libpic32.a(vector29.o)
 .text          0x00000000        0x0 /opt/microchip/xc32/v1.33/bin/bin/../../lib/gcc/pic32mx/4.5.2/../../../../pic32mx/lib/libpic32.a(vector30.o)
 .data          0x00000000        0x0 /opt/microchip/xc32/v1.33/bin/bin/../../lib/gcc/pic32mx/4.5.2/../../../../pic32mx/lib/libpic32.a(vector30.o)
 .bss           0x00000000        0x0 /opt/microchip/xc32/v1.33/bin/bin/../../lib/gcc/pic32mx/4.5.2/../../../../pic32mx/lib/libpic32.a(vector30.o)
 .reginfo       0x00000000       0x18 /opt/microchip/xc32/v1.33/bin/bin/../../lib/gcc/pic32mx/4.5.2/../../../../pic32mx/lib/libpic32.a(vector30.o)
 .text          0x00000000        0x0 /opt/microchip/xc32/v1.33/bin/bin/../../lib/gcc/pic32mx/4.5.2/../../../../pic32mx/lib/libpic32.a(vector31.o)
 .data          0x00000000        0x0 /opt/microchip/xc32/v1.33/bin/bin/../../lib/gcc/pic32mx/4.5.2/../../../../pic32mx/lib/libpic32.a(vector31.o)
 .bss           0x00000000        0x0 /opt/microchip/xc32/v1.33/bin/bin/../../lib/gcc/pic32mx/4.5.2/../../../../pic32mx/lib/libpic32.a(vector31.o)
 .reginfo       0x00000000       0x18 /opt/microchip/xc32/v1.33/bin/bin/../../lib/gcc/pic32mx/4.5.2/../../../../pic32mx/lib/libpic32.a(vector31.o)
 .text          0x00000000        0x0 /opt/microchip/xc32/v1.33/bin/bin/../../lib/gcc/pic32mx/4.5.2/../../../../pic32mx/lib/libpic32.a(vector32.o)
 .data          0x00000000        0x0 /opt/microchip/xc32/v1.33/bin/bin/../../lib/gcc/pic32mx/4.5.2/../../../../pic32mx/lib/libpic32.a(vector32.o)
 .bss           0x00000000        0x0 /opt/microchip/xc32/v1.33/bin/bin/../../lib/gcc/pic32mx/4.5.2/../../../../pic32mx/lib/libpic32.a(vector32.o)
 .reginfo       0x00000000       0x18 /opt/microchip/xc32/v1.33/bin/bin/../../lib/gcc/pic32mx/4.5.2/../../../../pic32mx/lib/libpic32.a(vector32.o)
 .text          0x00000000        0x0 /opt/microchip/xc32/v1.33/bin/bin/../../lib/gcc/pic32mx/4.5.2/../../../../pic32mx/lib/libpic32.a(vector33.o)
 .data          0x00000000        0x0 /opt/microchip/xc32/v1.33/bin/bin/../../lib/gcc/pic32mx/4.5.2/../../../../pic32mx/lib/libpic32.a(vector33.o)
 .bss           0x00000000        0x0 /opt/microchip/xc32/v1.33/bin/bin/../../lib/gcc/pic32mx/4.5.2/../../../../pic32mx/lib/libpic32.a(vector33.o)
 .reginfo       0x00000000       0x18 /opt/microchip/xc32/v1.33/bin/bin/../../lib/gcc/pic32mx/4.5.2/../../../../pic32mx/lib/libpic32.a(vector33.o)
 .text          0x00000000        0x0 /opt/microchip/xc32/v1.33/bin/bin/../../lib/gcc/pic32mx/4.5.2/../../../../pic32mx/lib/libpic32.a(vector34.o)
 .data          0x00000000        0x0 /opt/microchip/xc32/v1.33/bin/bin/../../lib/gcc/pic32mx/4.5.2/../../../../pic32mx/lib/libpic32.a(vector34.o)
 .bss           0x00000000        0x0 /opt/microchip/xc32/v1.33/bin/bin/../../lib/gcc/pic32mx/4.5.2/../../../../pic32mx/lib/libpic32.a(vector34.o)
 .reginfo       0x00000000       0x18 /opt/microchip/xc32/v1.33/bin/bin/../../lib/gcc/pic32mx/4.5.2/../../../../pic32mx/lib/libpic32.a(vector34.o)
 .text          0x00000000        0x0 /opt/microchip/xc32/v1.33/bin/bin/../../lib/gcc/pic32mx/4.5.2/../../../../pic32mx/lib/libpic32.a(vector35.o)
 .data          0x00000000        0x0 /opt/microchip/xc32/v1.33/bin/bin/../../lib/gcc/pic32mx/4.5.2/../../../../pic32mx/lib/libpic32.a(vector35.o)
 .bss           0x00000000        0x0 /opt/microchip/xc32/v1.33/bin/bin/../../lib/gcc/pic32mx/4.5.2/../../../../pic32mx/lib/libpic32.a(vector35.o)
 .reginfo       0x00000000       0x18 /opt/microchip/xc32/v1.33/bin/bin/../../lib/gcc/pic32mx/4.5.2/../../../../pic32mx/lib/libpic32.a(vector35.o)
 .text          0x00000000        0x0 /opt/microchip/xc32/v1.33/bin/bin/../../lib/gcc/pic32mx/4.5.2/../../../../pic32mx/lib/libpic32.a(vector36.o)
 .data          0x00000000        0x0 /opt/microchip/xc32/v1.33/bin/bin/../../lib/gcc/pic32mx/4.5.2/../../../../pic32mx/lib/libpic32.a(vector36.o)
 .bss           0x00000000        0x0 /opt/microchip/xc32/v1.33/bin/bin/../../lib/gcc/pic32mx/4.5.2/../../../../pic32mx/lib/libpic32.a(vector36.o)
 .reginfo       0x00000000       0x18 /opt/microchip/xc32/v1.33/bin/bin/../../lib/gcc/pic32mx/4.5.2/../../../../pic32mx/lib/libpic32.a(vector36.o)
 .text          0x00000000        0x0 /opt/microchip/xc32/v1.33/bin/bin/../../lib/gcc/pic32mx/4.5.2/../../../../pic32mx/lib/libpic32.a(vector37.o)
 .data          0x00000000        0x0 /opt/microchip/xc32/v1.33/bin/bin/../../lib/gcc/pic32mx/4.5.2/../../../../pic32mx/lib/libpic32.a(vector37.o)
 .bss           0x00000000        0x0 /opt/microchip/xc32/v1.33/bin/bin/../../lib/gcc/pic32mx/4.5.2/../../../../pic32mx/lib/libpic32.a(vector37.o)
 .reginfo       0x00000000       0x18 /opt/microchip/xc32/v1.33/bin/bin/../../lib/gcc/pic32mx/4.5.2/../../../../pic32mx/lib/libpic32.a(vector37.o)
 .text          0x00000000        0x0 /opt/microchip/xc32/v1.33/bin/bin/../../lib/gcc/pic32mx/4.5.2/../../../../pic32mx/lib/libpic32.a(vector38.o)
 .data          0x00000000        0x0 /opt/microchip/xc32/v1.33/bin/bin/../../lib/gcc/pic32mx/4.5.2/../../../../pic32mx/lib/libpic32.a(vector38.o)
 .bss           0x00000000        0x0 /opt/microchip/xc32/v1.33/bin/bin/../../lib/gcc/pic32mx/4.5.2/../../../../pic32mx/lib/libpic32.a(vector38.o)
 .reginfo       0x00000000       0x18 /opt/microchip/xc32/v1.33/bin/bin/../../lib/gcc/pic32mx/4.5.2/../../../../pic32mx/lib/libpic32.a(vector38.o)
 .text          0x00000000        0x0 /opt/microchip/xc32/v1.33/bin/bin/../../lib/gcc/pic32mx/4.5.2/../../../../pic32mx/lib/libpic32.a(vector39.o)
 .data          0x00000000        0x0 /opt/microchip/xc32/v1.33/bin/bin/../../lib/gcc/pic32mx/4.5.2/../../../../pic32mx/lib/libpic32.a(vector39.o)
 .bss           0x00000000        0x0 /opt/microchip/xc32/v1.33/bin/bin/../../lib/gcc/pic32mx/4.5.2/../../../../pic32mx/lib/libpic32.a(vector39.o)
 .reginfo       0x00000000       0x18 /opt/microchip/xc32/v1.33/bin/bin/../../lib/gcc/pic32mx/4.5.2/../../../../pic32mx/lib/libpic32.a(vector39.o)
 .text          0x00000000        0x0 /opt/microchip/xc32/v1.33/bin/bin/../../lib/gcc/pic32mx/4.5.2/../../../../pic32mx/lib/libpic32.a(vector40.o)
 .data          0x00000000        0x0 /opt/microchip/xc32/v1.33/bin/bin/../../lib/gcc/pic32mx/4.5.2/../../../../pic32mx/lib/libpic32.a(vector40.o)
 .bss           0x00000000        0x0 /opt/microchip/xc32/v1.33/bin/bin/../../lib/gcc/pic32mx/4.5.2/../../../../pic32mx/lib/libpic32.a(vector40.o)
 .reginfo       0x00000000       0x18 /opt/microchip/xc32/v1.33/bin/bin/../../lib/gcc/pic32mx/4.5.2/../../../../pic32mx/lib/libpic32.a(vector40.o)
 .text          0x00000000        0x0 /opt/microchip/xc32/v1.33/bin/bin/../../lib/gcc/pic32mx/4.5.2/../../../../pic32mx/lib/libpic32.a(vector41.o)
 .data          0x00000000        0x0 /opt/microchip/xc32/v1.33/bin/bin/../../lib/gcc/pic32mx/4.5.2/../../../../pic32mx/lib/libpic32.a(vector41.o)
 .bss           0x00000000        0x0 /opt/microchip/xc32/v1.33/bin/bin/../../lib/gcc/pic32mx/4.5.2/../../../../pic32mx/lib/libpic32.a(vector41.o)
 .reginfo       0x00000000       0x18 /opt/microchip/xc32/v1.33/bin/bin/../../lib/gcc/pic32mx/4.5.2/../../../../pic32mx/lib/libpic32.a(vector41.o)
 .text          0x00000000        0x0 /opt/microchip/xc32/v1.33/bin/bin/../../lib/gcc/pic32mx/4.5.2/../../../../pic32mx/lib/libpic32.a(vector42.o)
 .data          0x00000000        0x0 /opt/microchip/xc32/v1.33/bin/bin/../../lib/gcc/pic32mx/4.5.2/../../../../pic32mx/lib/libpic32.a(vector42.o)
 .bss           0x00000000        0x0 /opt/microchip/xc32/v1.33/bin/bin/../../lib/gcc/pic32mx/4.5.2/../../../../pic32mx/lib/libpic32.a(vector42.o)
 .reginfo       0x00000000       0x18 /opt/microchip/xc32/v1.33/bin/bin/../../lib/gcc/pic32mx/4.5.2/../../../../pic32mx/lib/libpic32.a(vector42.o)
 .text          0x00000000        0x0 /opt/microchip/xc32/v1.33/bin/bin/../../lib/gcc/pic32mx/4.5.2/../../../../pic32mx/lib/libpic32.a(vector43.o)
 .data          0x00000000        0x0 /opt/microchip/xc32/v1.33/bin/bin/../../lib/gcc/pic32mx/4.5.2/../../../../pic32mx/lib/libpic32.a(vector43.o)
 .bss           0x00000000        0x0 /opt/microchip/xc32/v1.33/bin/bin/../../lib/gcc/pic32mx/4.5.2/../../../../pic32mx/lib/libpic32.a(vector43.o)
 .reginfo       0x00000000       0x18 /opt/microchip/xc32/v1.33/bin/bin/../../lib/gcc/pic32mx/4.5.2/../../../../pic32mx/lib/libpic32.a(vector43.o)
 .text          0x00000000        0x0 /opt/microchip/xc32/v1.33/bin/bin/../../lib/gcc/pic32mx/4.5.2/../../../../pic32mx/lib/libpic32.a(vector44.o)
 .data          0x00000000        0x0 /opt/microchip/xc32/v1.33/bin/bin/../../lib/gcc/pic32mx/4.5.2/../../../../pic32mx/lib/libpic32.a(vector44.o)
 .bss           0x00000000        0x0 /opt/microchip/xc32/v1.33/bin/bin/../../lib/gcc/pic32mx/4.5.2/../../../../pic32mx/lib/libpic32.a(vector44.o)
 .reginfo       0x00000000       0x18 /opt/microchip/xc32/v1.33/bin/bin/../../lib/gcc/pic32mx/4.5.2/../../../../pic32mx/lib/libpic32.a(vector44.o)
 .text          0x00000000        0x0 /opt/microchip/xc32/v1.33/bin/bin/../../lib/gcc/pic32mx/4.5.2/../../../../pic32mx/lib/libpic32.a(vector46.o)
 .data          0x00000000        0x0 /opt/microchip/xc32/v1.33/bin/bin/../../lib/gcc/pic32mx/4.5.2/../../../../pic32mx/lib/libpic32.a(vector46.o)
 .bss           0x00000000        0x0 /opt/microchip/xc32/v1.33/bin/bin/../../lib/gcc/pic32mx/4.5.2/../../../../pic32mx/lib/libpic32.a(vector46.o)
 .reginfo       0x00000000       0x18 /opt/microchip/xc32/v1.33/bin/bin/../../lib/gcc/pic32mx/4.5.2/../../../../pic32mx/lib/libpic32.a(vector46.o)
 .text          0x00000000        0x0 /opt/microchip/xc32/v1.33/bin/bin/../../lib/gcc/pic32mx/4.5.2/../../../../pic32mx/lib/libpic32.a(vector47.o)
 .data          0x00000000        0x0 /opt/microchip/xc32/v1.33/bin/bin/../../lib/gcc/pic32mx/4.5.2/../../../../pic32mx/lib/libpic32.a(vector47.o)
 .bss           0x00000000        0x0 /opt/microchip/xc32/v1.33/bin/bin/../../lib/gcc/pic32mx/4.5.2/../../../../pic32mx/lib/libpic32.a(vector47.o)
 .reginfo       0x00000000       0x18 /opt/microchip/xc32/v1.33/bin/bin/../../lib/gcc/pic32mx/4.5.2/../../../../pic32mx/lib/libpic32.a(vector47.o)
 .text          0x00000000        0x0 /opt/microchip/xc32/v1.33/bin/bin/../../lib/gcc/pic32mx/4.5.2/../../../../pic32mx/lib/libpic32.a(vector48.o)
 .data          0x00000000        0x0 /opt/microchip/xc32/v1.33/bin/bin/../../lib/gcc/pic32mx/4.5.2/../../../../pic32mx/lib/libpic32.a(vector48.o)
 .bss           0x00000000        0x0 /opt/microchip/xc32/v1.33/bin/bin/../../lib/gcc/pic32mx/4.5.2/../../../../pic32mx/lib/libpic32.a(vector48.o)
 .reginfo       0x00000000       0x18 /opt/microchip/xc32/v1.33/bin/bin/../../lib/gcc/pic32mx/4.5.2/../../../../pic32mx/lib/libpic32.a(vector48.o)
 .text          0x00000000        0x0 /opt/microchip/xc32/v1.33/bin/bin/../../lib/gcc/pic32mx/4.5.2/../../../../pic32mx/lib/libpic32.a(vector49.o)
 .data          0x00000000        0x0 /opt/microchip/xc32/v1.33/bin/bin/../../lib/gcc/pic32mx/4.5.2/../../../../pic32mx/lib/libpic32.a(vector49.o)
 .bss           0x00000000        0x0 /opt/microchip/xc32/v1.33/bin/bin/../../lib/gcc/pic32mx/4.5.2/../../../../pic32mx/lib/libpic32.a(vector49.o)
 .reginfo       0x00000000       0x18 /opt/microchip/xc32/v1.33/bin/bin/../../lib/gcc/pic32mx/4.5.2/../../../../pic32mx/lib/libpic32.a(vector49.o)
 .text          0x00000000        0x0 /opt/microchip/xc32/v1.33/bin/bin/../../lib/gcc/pic32mx/4.5.2/../../../../pic32mx/lib/libpic32.a(vector50.o)
 .data          0x00000000        0x0 /opt/microchip/xc32/v1.33/bin/bin/../../lib/gcc/pic32mx/4.5.2/../../../../pic32mx/lib/libpic32.a(vector50.o)
 .bss           0x00000000        0x0 /opt/microchip/xc32/v1.33/bin/bin/../../lib/gcc/pic32mx/4.5.2/../../../../pic32mx/lib/libpic32.a(vector50.o)
 .reginfo       0x00000000       0x18 /opt/microchip/xc32/v1.33/bin/bin/../../lib/gcc/pic32mx/4.5.2/../../../../pic32mx/lib/libpic32.a(vector50.o)
 .text          0x00000000        0x0 /opt/microchip/xc32/v1.33/bin/bin/../../lib/gcc/pic32mx/4.5.2/../../../../pic32mx/lib/libpic32.a(vector51.o)
 .data          0x00000000        0x0 /opt/microchip/xc32/v1.33/bin/bin/../../lib/gcc/pic32mx/4.5.2/../../../../pic32mx/lib/libpic32.a(vector51.o)
 .bss           0x00000000        0x0 /opt/microchip/xc32/v1.33/bin/bin/../../lib/gcc/pic32mx/4.5.2/../../../../pic32mx/lib/libpic32.a(vector51.o)
 .reginfo       0x00000000       0x18 /opt/microchip/xc32/v1.33/bin/bin/../../lib/gcc/pic32mx/4.5.2/../../../../pic32mx/lib/libpic32.a(vector51.o)
 .text          0x00000000        0x0 /opt/microchip/xc32/v1.33/bin/bin/../../lib/gcc/pic32mx/4.5.2/../../../../pic32mx/lib/libpic32.a(vector52.o)
 .data          0x00000000        0x0 /opt/microchip/xc32/v1.33/bin/bin/../../lib/gcc/pic32mx/4.5.2/../../../../pic32mx/lib/libpic32.a(vector52.o)
 .bss           0x00000000        0x0 /opt/microchip/xc32/v1.33/bin/bin/../../lib/gcc/pic32mx/4.5.2/../../../../pic32mx/lib/libpic32.a(vector52.o)
 .reginfo       0x00000000       0x18 /opt/microchip/xc32/v1.33/bin/bin/../../lib/gcc/pic32mx/4.5.2/../../../../pic32mx/lib/libpic32.a(vector52.o)
 .text          0x00000000        0x0 /opt/microchip/xc32/v1.33/bin/bin/../../lib/gcc/pic32mx/4.5.2/../../../../pic32mx/lib/libpic32.a(vector53.o)
 .data          0x00000000        0x0 /opt/microchip/xc32/v1.33/bin/bin/../../lib/gcc/pic32mx/4.5.2/../../../../pic32mx/lib/libpic32.a(vector53.o)
 .bss           0x00000000        0x0 /opt/microchip/xc32/v1.33/bin/bin/../../lib/gcc/pic32mx/4.5.2/../../../../pic32mx/lib/libpic32.a(vector53.o)
 .reginfo       0x00000000       0x18 /opt/microchip/xc32/v1.33/bin/bin/../../lib/gcc/pic32mx/4.5.2/../../../../pic32mx/lib/libpic32.a(vector53.o)
 .text          0x00000000        0x0 /opt/microchip/xc32/v1.33/bin/bin/../../lib/gcc/pic32mx/4.5.2/../../../../pic32mx/lib/libpic32.a(vector54.o)
 .data          0x00000000        0x0 /opt/microchip/xc32/v1.33/bin/bin/../../lib/gcc/pic32mx/4.5.2/../../../../pic32mx/lib/libpic32.a(vector54.o)
 .bss           0x00000000        0x0 /opt/microchip/xc32/v1.33/bin/bin/../../lib/gcc/pic32mx/4.5.2/../../../../pic32mx/lib/libpic32.a(vector54.o)
 .reginfo       0x00000000       0x18 /opt/microchip/xc32/v1.33/bin/bin/../../lib/gcc/pic32mx/4.5.2/../../../../pic32mx/lib/libpic32.a(vector54.o)
 .text          0x00000000        0x0 /opt/microchip/xc32/v1.33/bin/bin/../../lib/gcc/pic32mx/4.5.2/../../../../pic32mx/lib/libpic32.a(vector55.o)
 .data          0x00000000        0x0 /opt/microchip/xc32/v1.33/bin/bin/../../lib/gcc/pic32mx/4.5.2/../../../../pic32mx/lib/libpic32.a(vector55.o)
 .bss           0x00000000        0x0 /opt/microchip/xc32/v1.33/bin/bin/../../lib/gcc/pic32mx/4.5.2/../../../../pic32mx/lib/libpic32.a(vector55.o)
 .reginfo       0x00000000       0x18 /opt/microchip/xc32/v1.33/bin/bin/../../lib/gcc/pic32mx/4.5.2/../../../../pic32mx/lib/libpic32.a(vector55.o)
 .text          0x00000000        0x0 /opt/microchip/xc32/v1.33/bin/bin/../../lib/gcc/pic32mx/4.5.2/../../../../pic32mx/lib/libpic32.a(vector56.o)
 .data          0x00000000        0x0 /opt/microchip/xc32/v1.33/bin/bin/../../lib/gcc/pic32mx/4.5.2/../../../../pic32mx/lib/libpic32.a(vector56.o)
 .bss           0x00000000        0x0 /opt/microchip/xc32/v1.33/bin/bin/../../lib/gcc/pic32mx/4.5.2/../../../../pic32mx/lib/libpic32.a(vector56.o)
 .reginfo       0x00000000       0x18 /opt/microchip/xc32/v1.33/bin/bin/../../lib/gcc/pic32mx/4.5.2/../../../../pic32mx/lib/libpic32.a(vector56.o)
 .text          0x00000000        0x0 /opt/microchip/xc32/v1.33/bin/bin/../../lib/gcc/pic32mx/4.5.2/../../../../pic32mx/lib/libpic32.a(vector57.o)
 .data          0x00000000        0x0 /opt/microchip/xc32/v1.33/bin/bin/../../lib/gcc/pic32mx/4.5.2/../../../../pic32mx/lib/libpic32.a(vector57.o)
 .bss           0x00000000        0x0 /opt/microchip/xc32/v1.33/bin/bin/../../lib/gcc/pic32mx/4.5.2/../../../../pic32mx/lib/libpic32.a(vector57.o)
 .reginfo       0x00000000       0x18 /opt/microchip/xc32/v1.33/bin/bin/../../lib/gcc/pic32mx/4.5.2/../../../../pic32mx/lib/libpic32.a(vector57.o)
 .text          0x00000000        0x0 /opt/microchip/xc32/v1.33/bin/bin/../../lib/gcc/pic32mx/4.5.2/../../../../pic32mx/lib/libpic32.a(vector58.o)
 .data          0x00000000        0x0 /opt/microchip/xc32/v1.33/bin/bin/../../lib/gcc/pic32mx/4.5.2/../../../../pic32mx/lib/libpic32.a(vector58.o)
 .bss           0x00000000        0x0 /opt/microchip/xc32/v1.33/bin/bin/../../lib/gcc/pic32mx/4.5.2/../../../../pic32mx/lib/libpic32.a(vector58.o)
 .reginfo       0x00000000       0x18 /opt/microchip/xc32/v1.33/bin/bin/../../lib/gcc/pic32mx/4.5.2/../../../../pic32mx/lib/libpic32.a(vector58.o)
 .text          0x00000000        0x0 /opt/microchip/xc32/v1.33/bin/bin/../../lib/gcc/pic32mx/4.5.2/../../../../pic32mx/lib/libpic32.a(vector59.o)
 .data          0x00000000        0x0 /opt/microchip/xc32/v1.33/bin/bin/../../lib/gcc/pic32mx/4.5.2/../../../../pic32mx/lib/libpic32.a(vector59.o)
 .bss           0x00000000        0x0 /opt/microchip/xc32/v1.33/bin/bin/../../lib/gcc/pic32mx/4.5.2/../../../../pic32mx/lib/libpic32.a(vector59.o)
 .reginfo       0x00000000       0x18 /opt/microchip/xc32/v1.33/bin/bin/../../lib/gcc/pic32mx/4.5.2/../../../../pic32mx/lib/libpic32.a(vector59.o)
 .text          0x00000000        0x0 /opt/microchip/xc32/v1.33/bin/bin/../../lib/gcc/pic32mx/4.5.2/../../../../pic32mx/lib/libpic32.a(vector60.o)
 .data          0x00000000        0x0 /opt/microchip/xc32/v1.33/bin/bin/../../lib/gcc/pic32mx/4.5.2/../../../../pic32mx/lib/libpic32.a(vector60.o)
 .bss           0x00000000        0x0 /opt/microchip/xc32/v1.33/bin/bin/../../lib/gcc/pic32mx/4.5.2/../../../../pic32mx/lib/libpic32.a(vector60.o)
 .reginfo       0x00000000       0x18 /opt/microchip/xc32/v1.33/bin/bin/../../lib/gcc/pic32mx/4.5.2/../../../../pic32mx/lib/libpic32.a(vector60.o)
 .text          0x00000000        0x0 /opt/microchip/xc32/v1.33/bin/bin/../../lib/gcc/pic32mx/4.5.2/../../../../pic32mx/lib/libpic32.a(vector61.o)
 .data          0x00000000        0x0 /opt/microchip/xc32/v1.33/bin/bin/../../lib/gcc/pic32mx/4.5.2/../../../../pic32mx/lib/libpic32.a(vector61.o)
 .bss           0x00000000        0x0 /opt/microchip/xc32/v1.33/bin/bin/../../lib/gcc/pic32mx/4.5.2/../../../../pic32mx/lib/libpic32.a(vector61.o)
 .reginfo       0x00000000       0x18 /opt/microchip/xc32/v1.33/bin/bin/../../lib/gcc/pic32mx/4.5.2/../../../../pic32mx/lib/libpic32.a(vector61.o)
 .text          0x00000000        0x0 /opt/microchip/xc32/v1.33/bin/bin/../../lib/gcc/pic32mx/4.5.2/../../../../pic32mx/lib/libpic32.a(vector62.o)
 .data          0x00000000        0x0 /opt/microchip/xc32/v1.33/bin/bin/../../lib/gcc/pic32mx/4.5.2/../../../../pic32mx/lib/libpic32.a(vector62.o)
 .bss           0x00000000        0x0 /opt/microchip/xc32/v1.33/bin/bin/../../lib/gcc/pic32mx/4.5.2/../../../../pic32mx/lib/libpic32.a(vector62.o)
 .reginfo       0x00000000       0x18 /opt/microchip/xc32/v1.33/bin/bin/../../lib/gcc/pic32mx/4.5.2/../../../../pic32mx/lib/libpic32.a(vector62.o)
 .text          0x00000000        0x0 /opt/microchip/xc32/v1.33/bin/bin/../../lib/gcc/pic32mx/4.5.2/../../../../pic32mx/lib/libpic32.a(vector63.o)
 .data          0x00000000        0x0 /opt/microchip/xc32/v1.33/bin/bin/../../lib/gcc/pic32mx/4.5.2/../../../../pic32mx/lib/libpic32.a(vector63.o)
 .bss           0x00000000        0x0 /opt/microchip/xc32/v1.33/bin/bin/../../lib/gcc/pic32mx/4.5.2/../../../../pic32mx/lib/libpic32.a(vector63.o)
 .reginfo       0x00000000       0x18 /opt/microchip/xc32/v1.33/bin/bin/../../lib/gcc/pic32mx/4.5.2/../../../../pic32mx/lib/libpic32.a(vector63.o)
 .text          0x00000000        0x0 /opt/microchip/xc32/v1.33/bin/bin/../../lib/gcc/pic32mx/4.5.2/../../../../pic32mx/lib/libpic32.a(default-general-exception-handler.o)
 .data          0x00000000        0x0 /opt/microchip/xc32/v1.33/bin/bin/../../lib/gcc/pic32mx/4.5.2/../../../../pic32mx/lib/libpic32.a(default-general-exception-handler.o)
 .bss           0x00000000        0x0 /opt/microchip/xc32/v1.33/bin/bin/../../lib/gcc/pic32mx/4.5.2/../../../../pic32mx/lib/libpic32.a(default-general-exception-handler.o)
 .reginfo       0x00000000       0x18 /opt/microchip/xc32/v1.33/bin/bin/../../lib/gcc/pic32mx/4.5.2/../../../../pic32mx/lib/libpic32.a(default-general-exception-handler.o)
 .text          0x00000000        0x0 /opt/microchip/xc32/v1.33/bin/bin/../../lib/gcc/pic32mx/4.5.2/../../../../pic32mx/lib/libpic32.a(defaultinterrupt.o)
 .data          0x00000000        0x0 /opt/microchip/xc32/v1.33/bin/bin/../../lib/gcc/pic32mx/4.5.2/../../../../pic32mx/lib/libpic32.a(defaultinterrupt.o)
 .bss           0x00000000        0x0 /opt/microchip/xc32/v1.33/bin/bin/../../lib/gcc/pic32mx/4.5.2/../../../../pic32mx/lib/libpic32.a(defaultinterrupt.o)
 .reginfo       0x00000000       0x18 /opt/microchip/xc32/v1.33/bin/bin/../../lib/gcc/pic32mx/4.5.2/../../../../pic32mx/lib/libpic32.a(defaultinterrupt.o)
 .text          0x00000000        0x0 /opt/microchip/xc32/v1.33/bin/bin/../../lib/gcc/pic32mx/4.5.2/../../../../pic32mx/lib/libm.a(fp32div.o)
 .data          0x00000000        0x0 /opt/microchip/xc32/v1.33/bin/bin/../../lib/gcc/pic32mx/4.5.2/../../../../pic32mx/lib/libm.a(fp32div.o)
 .bss           0x00000000        0x0 /opt/microchip/xc32/v1.33/bin/bin/../../lib/gcc/pic32mx/4.5.2/../../../../pic32mx/lib/libm.a(fp32div.o)
 .reginfo       0x00000000       0x18 /opt/microchip/xc32/v1.33/bin/bin/../../lib/gcc/pic32mx/4.5.2/../../../../pic32mx/lib/libm.a(fp32div.o)
 .text          0x00000000        0x0 /opt/microchip/xc32/v1.33/bin/bin/../../lib/gcc/pic32mx/4.5.2/../../../../pic32mx/lib/libm.a(fp32mul.o)
 .data          0x00000000        0x0 /opt/microchip/xc32/v1.33/bin/bin/../../lib/gcc/pic32mx/4.5.2/../../../../pic32mx/lib/libm.a(fp32mul.o)
 .bss           0x00000000        0x0 /opt/microchip/xc32/v1.33/bin/bin/../../lib/gcc/pic32mx/4.5.2/../../../../pic32mx/lib/libm.a(fp32mul.o)
 .reginfo       0x00000000       0x18 /opt/microchip/xc32/v1.33/bin/bin/../../lib/gcc/pic32mx/4.5.2/../../../../pic32mx/lib/libm.a(fp32mul.o)
 .text          0x00000000        0x0 /opt/microchip/xc32/v1.33/bin/bin/../../lib/gcc/pic32mx/4.5.2/../../../../pic32mx/lib/libm.a(fp32subadd.o)
 .data          0x00000000        0x0 /opt/microchip/xc32/v1.33/bin/bin/../../lib/gcc/pic32mx/4.5.2/../../../../pic32mx/lib/libm.a(fp32subadd.o)
 .bss           0x00000000        0x0 /opt/microchip/xc32/v1.33/bin/bin/../../lib/gcc/pic32mx/4.5.2/../../../../pic32mx/lib/libm.a(fp32subadd.o)
 .reginfo       0x00000000       0x18 /opt/microchip/xc32/v1.33/bin/bin/../../lib/gcc/pic32mx/4.5.2/../../../../pic32mx/lib/libm.a(fp32subadd.o)
 .text          0x00000000        0x0 /opt/microchip/xc32/v1.33/bin/bin/../../lib/gcc/pic32mx/4.5.2/../../../../pic32mx/lib/libm.a(fpcmp.o)
 .data          0x00000000        0x0 /opt/microchip/xc32/v1.33/bin/bin/../../lib/gcc/pic32mx/4.5.2/../../../../pic32mx/lib/libm.a(fpcmp.o)
 .bss           0x00000000        0x0 /opt/microchip/xc32/v1.33/bin/bin/../../lib/gcc/pic32mx/4.5.2/../../../../pic32mx/lib/libm.a(fpcmp.o)
 .reginfo       0x00000000       0x18 /opt/microchip/xc32/v1.33/bin/bin/../../lib/gcc/pic32mx/4.5.2/../../../../pic32mx/lib/libm.a(fpcmp.o)
 .text          0x00000000        0x0 /opt/microchip/xc32/v1.33/bin/bin/../../lib/gcc/pic32mx/4.5.2/../../../../pic32mx/lib/libm.a(fptoli.o)
 .data          0x00000000        0x0 /opt/microchip/xc32/v1.33/bin/bin/../../lib/gcc/pic32mx/4.5.2/../../../../pic32mx/lib/libm.a(fptoli.o)
 .bss           0x00000000        0x0 /opt/microchip/xc32/v1.33/bin/bin/../../lib/gcc/pic32mx/4.5.2/../../../../pic32mx/lib/libm.a(fptoli.o)
 .reginfo       0x00000000       0x18 /opt/microchip/xc32/v1.33/bin/bin/../../lib/gcc/pic32mx/4.5.2/../../../../pic32mx/lib/libm.a(fptoli.o)
 .text          0x00000000        0x0 /opt/microchip/xc32/v1.33/bin/bin/../../lib/gcc/pic32mx/4.5.2/../../../../pic32mx/lib/libm.a(fptoul.o)
 .data          0x00000000        0x0 /opt/microchip/xc32/v1.33/bin/bin/../../lib/gcc/pic32mx/4.5.2/../../../../pic32mx/lib/libm.a(fptoul.o)
 .bss           0x00000000        0x0 /opt/microchip/xc32/v1.33/bin/bin/../../lib/gcc/pic32mx/4.5.2/../../../../pic32mx/lib/libm.a(fptoul.o)
 .reginfo       0x00000000       0x18 /opt/microchip/xc32/v1.33/bin/bin/../../lib/gcc/pic32mx/4.5.2/../../../../pic32mx/lib/libm.a(fptoul.o)
 .text          0x00000000        0x0 /opt/microchip/xc32/v1.33/bin/bin/../../lib/gcc/pic32mx/4.5.2/../../../../pic32mx/lib/libc.a(ctypef.o)
 .data          0x00000000        0x0 /opt/microchip/xc32/v1.33/bin/bin/../../lib/gcc/pic32mx/4.5.2/../../../../pic32mx/lib/libc.a(ctypef.o)
 .bss           0x00000000        0x0 /opt/microchip/xc32/v1.33/bin/bin/../../lib/gcc/pic32mx/4.5.2/../../../../pic32mx/lib/libc.a(ctypef.o)
 .reginfo       0x00000000       0x18 /opt/microchip/xc32/v1.33/bin/bin/../../lib/gcc/pic32mx/4.5.2/../../../../pic32mx/lib/libc.a(ctypef.o)
 .text.isalnum  0x00000000       0x18 /opt/microchip/xc32/v1.33/bin/bin/../../lib/gcc/pic32mx/4.5.2/../../../../pic32mx/lib/libc.a(ctypef.o)
 .text.isalpha  0x00000000       0x18 /opt/microchip/xc32/v1.33/bin/bin/../../lib/gcc/pic32mx/4.5.2/../../../../pic32mx/lib/libc.a(ctypef.o)
 .text.isascii  0x00000000        0x8 /opt/microchip/xc32/v1.33/bin/bin/../../lib/gcc/pic32mx/4.5.2/../../../../pic32mx/lib/libc.a(ctypef.o)
 .text.iscntrl  0x00000000       0x18 /opt/microchip/xc32/v1.33/bin/bin/../../lib/gcc/pic32mx/4.5.2/../../../../pic32mx/lib/libc.a(ctypef.o)
 .text.isdigit  0x00000000       0x18 /opt/microchip/xc32/v1.33/bin/bin/../../lib/gcc/pic32mx/4.5.2/../../../../pic32mx/lib/libc.a(ctypef.o)
 .text.isgraph  0x00000000       0x18 /opt/microchip/xc32/v1.33/bin/bin/../../lib/gcc/pic32mx/4.5.2/../../../../pic32mx/lib/libc.a(ctypef.o)
 .text.islower  0x00000000       0x18 /opt/microchip/xc32/v1.33/bin/bin/../../lib/gcc/pic32mx/4.5.2/../../../../pic32mx/lib/libc.a(ctypef.o)
 .text.isprint  0x00000000       0x18 /opt/microchip/xc32/v1.33/bin/bin/../../lib/gcc/pic32mx/4.5.2/../../../../pic32mx/lib/libc.a(ctypef.o)
 .text.ispunct  0x00000000       0x18 /opt/microchip/xc32/v1.33/bin/bin/../../lib/gcc/pic32mx/4.5.2/../../../../pic32mx/lib/libc.a(ctypef.o)
 .text.isspace  0x00000000       0x18 /opt/microchip/xc32/v1.33/bin/bin/../../lib/gcc/pic32mx/4.5.2/../../../../pic32mx/lib/libc.a(ctypef.o)
 .text.isupper  0x00000000       0x18 /opt/microchip/xc32/v1.33/bin/bin/../../lib/gcc/pic32mx/4.5.2/../../../../pic32mx/lib/libc.a(ctypef.o)
 .text.isxdigit
                0x00000000       0x18 /opt/microchip/xc32/v1.33/bin/bin/../../lib/gcc/pic32mx/4.5.2/../../../../pic32mx/lib/libc.a(ctypef.o)
 .text.toascii  0x00000000        0x8 /opt/microchip/xc32/v1.33/bin/bin/../../lib/gcc/pic32mx/4.5.2/../../../../pic32mx/lib/libc.a(ctypef.o)
 .text._tolower
                0x00000000        0x8 /opt/microchip/xc32/v1.33/bin/bin/../../lib/gcc/pic32mx/4.5.2/../../../../pic32mx/lib/libc.a(ctypef.o)
 .text._toupper
                0x00000000        0x8 /opt/microchip/xc32/v1.33/bin/bin/../../lib/gcc/pic32mx/4.5.2/../../../../pic32mx/lib/libc.a(ctypef.o)
 .text          0x00000000        0x0 /opt/microchip/xc32/v1.33/bin/bin/../../lib/gcc/pic32mx/4.5.2/../../../../pic32mx/lib/libc.a(rand.o)
 .data          0x00000000        0x0 /opt/microchip/xc32/v1.33/bin/bin/../../lib/gcc/pic32mx/4.5.2/../../../../pic32mx/lib/libc.a(rand.o)
 .reginfo       0x00000000       0x18 /opt/microchip/xc32/v1.33/bin/bin/../../lib/gcc/pic32mx/4.5.2/../../../../pic32mx/lib/libc.a(rand.o)
 .text          0x00000000        0x0 /opt/microchip/xc32/v1.33/bin/bin/../../lib/gcc/pic32mx/4.5.2/../../../../pic32mx/lib/libc.a(strncmp.o)
 .data          0x00000000        0x0 /opt/microchip/xc32/v1.33/bin/bin/../../lib/gcc/pic32mx/4.5.2/../../../../pic32mx/lib/libc.a(strncmp.o)
 .bss           0x00000000        0x0 /opt/microchip/xc32/v1.33/bin/bin/../../lib/gcc/pic32mx/4.5.2/../../../../pic32mx/lib/libc.a(strncmp.o)
 .reginfo       0x00000000       0x18 /opt/microchip/xc32/v1.33/bin/bin/../../lib/gcc/pic32mx/4.5.2/../../../../pic32mx/lib/libc.a(strncmp.o)
 .text          0x00000000        0x0 /opt/microchip/xc32/v1.33/bin/bin/../../lib/gcc/pic32mx/4.5.2/../../../../pic32mx/lib/libc.a(strncpy.o)
 .data          0x00000000        0x0 /opt/microchip/xc32/v1.33/bin/bin/../../lib/gcc/pic32mx/4.5.2/../../../../pic32mx/lib/libc.a(strncpy.o)
 .bss           0x00000000        0x0 /opt/microchip/xc32/v1.33/bin/bin/../../lib/gcc/pic32mx/4.5.2/../../../../pic32mx/lib/libc.a(strncpy.o)
 .reginfo       0x00000000       0x18 /opt/microchip/xc32/v1.33/bin/bin/../../lib/gcc/pic32mx/4.5.2/../../../../pic32mx/lib/libc.a(strncpy.o)
 .text          0x00000000        0x0 /opt/microchip/xc32/v1.33/bin/bin/../../lib/gcc/pic32mx/4.5.2/../../../../pic32mx/lib/libc.a(snprintf_cdnopuxX.eo)
 .data          0x00000000        0x0 /opt/microchip/xc32/v1.33/bin/bin/../../lib/gcc/pic32mx/4.5.2/../../../../pic32mx/lib/libc.a(snprintf_cdnopuxX.eo)
 .bss           0x00000000        0x0 /opt/microchip/xc32/v1.33/bin/bin/../../lib/gcc/pic32mx/4.5.2/../../../../pic32mx/lib/libc.a(snprintf_cdnopuxX.eo)
 .reginfo       0x00000000       0x18 /opt/microchip/xc32/v1.33/bin/bin/../../lib/gcc/pic32mx/4.5.2/../../../../pic32mx/lib/libc.a(snprintf_cdnopuxX.eo)
 .text          0x00000000        0x0 /opt/microchip/xc32/v1.33/bin/bin/../../lib/gcc/pic32mx/4.5.2/../../../../pic32mx/lib/libc.a(snprintf.o)
 .data          0x00000000        0x0 /opt/microchip/xc32/v1.33/bin/bin/../../lib/gcc/pic32mx/4.5.2/../../../../pic32mx/lib/libc.a(snprintf.o)
 .bss           0x00000000        0x0 /opt/microchip/xc32/v1.33/bin/bin/../../lib/gcc/pic32mx/4.5.2/../../../../pic32mx/lib/libc.a(snprintf.o)
 .reginfo       0x00000000       0x18 /opt/microchip/xc32/v1.33/bin/bin/../../lib/gcc/pic32mx/4.5.2/../../../../pic32mx/lib/libc.a(snprintf.o)
 .text          0x00000000        0x0 /opt/microchip/xc32/v1.33/bin/bin/../../lib/gcc/pic32mx/4.5.2/../../../../pic32mx/lib/libc.a(sprintf_cdnopuxX.eo)
 .data          0x00000000        0x0 /opt/microchip/xc32/v1.33/bin/bin/../../lib/gcc/pic32mx/4.5.2/../../../../pic32mx/lib/libc.a(sprintf_cdnopuxX.eo)
 .bss           0x00000000        0x0 /opt/microchip/xc32/v1.33/bin/bin/../../lib/gcc/pic32mx/4.5.2/../../../../pic32mx/lib/libc.a(sprintf_cdnopuxX.eo)
 .reginfo       0x00000000       0x18 /opt/microchip/xc32/v1.33/bin/bin/../../lib/gcc/pic32mx/4.5.2/../../../../pic32mx/lib/libc.a(sprintf_cdnopuxX.eo)
 .text          0x00000000        0x0 /opt/microchip/xc32/v1.33/bin/bin/../../lib/gcc/pic32mx/4.5.2/../../../../pic32mx/lib/libc.a(sprintf.o)
 .data          0x00000000        0x0 /opt/microchip/xc32/v1.33/bin/bin/../../lib/gcc/pic32mx/4.5.2/../../../../pic32mx/lib/libc.a(sprintf.o)
 .bss           0x00000000        0x0 /opt/microchip/xc32/v1.33/bin/bin/../../lib/gcc/pic32mx/4.5.2/../../../../pic32mx/lib/libc.a(sprintf.o)
 .reginfo       0x00000000       0x18 /opt/microchip/xc32/v1.33/bin/bin/../../lib/gcc/pic32mx/4.5.2/../../../../pic32mx/lib/libc.a(sprintf.o)
 .text          0x00000000        0x0 /opt/microchip/xc32/v1.33/bin/bin/../../lib/gcc/pic32mx/4.5.2/../../../../pic32mx/lib/libc.a(sscanf_cdfFnopsuxX.eo)
 .data          0x00000000        0x0 /opt/microchip/xc32/v1.33/bin/bin/../../lib/gcc/pic32mx/4.5.2/../../../../pic32mx/lib/libc.a(sscanf_cdfFnopsuxX.eo)
 .bss           0x00000000        0x0 /opt/microchip/xc32/v1.33/bin/bin/../../lib/gcc/pic32mx/4.5.2/../../../../pic32mx/lib/libc.a(sscanf_cdfFnopsuxX.eo)
 .reginfo       0x00000000       0x18 /opt/microchip/xc32/v1.33/bin/bin/../../lib/gcc/pic32mx/4.5.2/../../../../pic32mx/lib/libc.a(sscanf_cdfFnopsuxX.eo)
 .text          0x00000000        0x0 /opt/microchip/xc32/v1.33/bin/bin/../../lib/gcc/pic32mx/4.5.2/../../../../pic32mx/lib/libc.a(vsnprintf_cdnopuxX.eo)
 .data          0x00000000        0x0 /opt/microchip/xc32/v1.33/bin/bin/../../lib/gcc/pic32mx/4.5.2/../../../../pic32mx/lib/libc.a(vsnprintf_cdnopuxX.eo)
 .bss           0x00000000        0x0 /opt/microchip/xc32/v1.33/bin/bin/../../lib/gcc/pic32mx/4.5.2/../../../../pic32mx/lib/libc.a(vsnprintf_cdnopuxX.eo)
 .reginfo       0x00000000       0x18 /opt/microchip/xc32/v1.33/bin/bin/../../lib/gcc/pic32mx/4.5.2/../../../../pic32mx/lib/libc.a(vsnprintf_cdnopuxX.eo)
 .text          0x00000000        0x0 /opt/microchip/xc32/v1.33/bin/bin/../../lib/gcc/pic32mx/4.5.2/../../../../pic32mx/lib/libc.a(vsnprintf.o)
 .data          0x00000000        0x0 /opt/microchip/xc32/v1.33/bin/bin/../../lib/gcc/pic32mx/4.5.2/../../../../pic32mx/lib/libc.a(vsnprintf.o)
 .bss           0x00000000        0x0 /opt/microchip/xc32/v1.33/bin/bin/../../lib/gcc/pic32mx/4.5.2/../../../../pic32mx/lib/libc.a(vsnprintf.o)
 .reginfo       0x00000000       0x18 /opt/microchip/xc32/v1.33/bin/bin/../../lib/gcc/pic32mx/4.5.2/../../../../pic32mx/lib/libc.a(vsnprintf.o)
 .text          0x00000000        0x0 /opt/microchip/xc32/v1.33/bin/bin/../../lib/gcc/pic32mx/4.5.2/../../../../pic32mx/lib/libc.a(ctype.o)
 .data          0x00000000        0x0 /opt/microchip/xc32/v1.33/bin/bin/../../lib/gcc/pic32mx/4.5.2/../../../../pic32mx/lib/libc.a(ctype.o)
 .bss           0x00000000        0x0 /opt/microchip/xc32/v1.33/bin/bin/../../lib/gcc/pic32mx/4.5.2/../../../../pic32mx/lib/libc.a(ctype.o)
 .reginfo       0x00000000       0x18 /opt/microchip/xc32/v1.33/bin/bin/../../lib/gcc/pic32mx/4.5.2/../../../../pic32mx/lib/libc.a(ctype.o)
 .text          0x00000000        0x0 /opt/microchip/xc32/v1.33/bin/bin/../../lib/gcc/pic32mx/4.5.2/../../../../pic32mx/lib/libc.a(doprnt_cdnopuxX.eo)
 .data          0x00000000        0x0 /opt/microchip/xc32/v1.33/bin/bin/../../lib/gcc/pic32mx/4.5.2/../../../../pic32mx/lib/libc.a(doprnt_cdnopuxX.eo)
 .bss           0x00000000        0x0 /opt/microchip/xc32/v1.33/bin/bin/../../lib/gcc/pic32mx/4.5.2/../../../../pic32mx/lib/libc.a(doprnt_cdnopuxX.eo)
 .reginfo       0x00000000       0x18 /opt/microchip/xc32/v1.33/bin/bin/../../lib/gcc/pic32mx/4.5.2/../../../../pic32mx/lib/libc.a(doprnt_cdnopuxX.eo)
 .text          0x00000000        0x0 /opt/microchip/xc32/v1.33/bin/bin/../../lib/gcc/pic32mx/4.5.2/../../../../pic32mx/lib/libc.a(doprnt.o)
 .data          0x00000000        0x0 /opt/microchip/xc32/v1.33/bin/bin/../../lib/gcc/pic32mx/4.5.2/../../../../pic32mx/lib/libc.a(doprnt.o)
 .bss           0x00000000        0x0 /opt/microchip/xc32/v1.33/bin/bin/../../lib/gcc/pic32mx/4.5.2/../../../../pic32mx/lib/libc.a(doprnt.o)
 .reginfo       0x00000000       0x18 /opt/microchip/xc32/v1.33/bin/bin/../../lib/gcc/pic32mx/4.5.2/../../../../pic32mx/lib/libc.a(doprnt.o)
 .text          0x00000000        0x0 /opt/microchip/xc32/v1.33/bin/bin/../../lib/gcc/pic32mx/4.5.2/../../../../pic32mx/lib/libc.a(doscan_cdfFnopsuxX.eo)
 .data          0x00000000        0x0 /opt/microchip/xc32/v1.33/bin/bin/../../lib/gcc/pic32mx/4.5.2/../../../../pic32mx/lib/libc.a(doscan_cdfFnopsuxX.eo)
 .reginfo       0x00000000       0x18 /opt/microchip/xc32/v1.33/bin/bin/../../lib/gcc/pic32mx/4.5.2/../../../../pic32mx/lib/libc.a(doscan_cdfFnopsuxX.eo)
 .text          0x00000000        0x0 /opt/microchip/xc32/v1.33/bin/bin/../../lib/gcc/pic32mx/4.5.2/../../../../pic32mx/lib/libc.a(doscan_cdnopuxX.eo)
 .data          0x00000000        0x0 /opt/microchip/xc32/v1.33/bin/bin/../../lib/gcc/pic32mx/4.5.2/../../../../pic32mx/lib/libc.a(doscan_cdnopuxX.eo)
 .bss           0x00000000        0x4 /opt/microchip/xc32/v1.33/bin/bin/../../lib/gcc/pic32mx/4.5.2/../../../../pic32mx/lib/libc.a(doscan_cdnopuxX.eo)
 .reginfo       0x00000000       0x18 /opt/microchip/xc32/v1.33/bin/bin/../../lib/gcc/pic32mx/4.5.2/../../../../pic32mx/lib/libc.a(doscan_cdnopuxX.eo)
 .text.wspace   0x00000000       0x60 /opt/microchip/xc32/v1.33/bin/bin/../../lib/gcc/pic32mx/4.5.2/../../../../pic32mx/lib/libc.a(doscan_cdnopuxX.eo)
 .text.range    0x00000000       0xa0 /opt/microchip/xc32/v1.33/bin/bin/../../lib/gcc/pic32mx/4.5.2/../../../../pic32mx/lib/libc.a(doscan_cdnopuxX.eo)
 .text._vfscanf_cdnopuxX
                0x00000000      0x868 /opt/microchip/xc32/v1.33/bin/bin/../../lib/gcc/pic32mx/4.5.2/../../../../pic32mx/lib/libc.a(doscan_cdnopuxX.eo)
 .text          0x00000000        0x0 /opt/microchip/xc32/v1.33/bin/bin/../../lib/gcc/pic32mx/4.5.2/../../../../pic32mx/lib/libc.a(fgetc.o)
 .data          0x00000000        0x0 /opt/microchip/xc32/v1.33/bin/bin/../../lib/gcc/pic32mx/4.5.2/../../../../pic32mx/lib/libc.a(fgetc.o)
 .bss           0x00000000        0x0 /opt/microchip/xc32/v1.33/bin/bin/../../lib/gcc/pic32mx/4.5.2/../../../../pic32mx/lib/libc.a(fgetc.o)
 .reginfo       0x00000000       0x18 /opt/microchip/xc32/v1.33/bin/bin/../../lib/gcc/pic32mx/4.5.2/../../../../pic32mx/lib/libc.a(fgetc.o)
 .text          0x00000000        0x0 /opt/microchip/xc32/v1.33/bin/bin/../../lib/gcc/pic32mx/4.5.2/../../../../pic32mx/lib/libc.a(_fputc_simple.o)
 .data          0x00000000        0x0 /opt/microchip/xc32/v1.33/bin/bin/../../lib/gcc/pic32mx/4.5.2/../../../../pic32mx/lib/libc.a(_fputc_simple.o)
 .bss           0x00000000        0x0 /opt/microchip/xc32/v1.33/bin/bin/../../lib/gcc/pic32mx/4.5.2/../../../../pic32mx/lib/libc.a(_fputc_simple.o)
 .reginfo       0x00000000       0x18 /opt/microchip/xc32/v1.33/bin/bin/../../lib/gcc/pic32mx/4.5.2/../../../../pic32mx/lib/libc.a(_fputc_simple.o)
 .text          0x00000000        0x0 /opt/microchip/xc32/v1.33/bin/bin/../../lib/gcc/pic32mx/4.5.2/../../../../pic32mx/lib/libc.a(atoi.o)
 .data          0x00000000        0x0 /opt/microchip/xc32/v1.33/bin/bin/../../lib/gcc/pic32mx/4.5.2/../../../../pic32mx/lib/libc.a(atoi.o)
 .bss           0x00000000        0x0 /opt/microchip/xc32/v1.33/bin/bin/../../lib/gcc/pic32mx/4.5.2/../../../../pic32mx/lib/libc.a(atoi.o)
 .reginfo       0x00000000       0x18 /opt/microchip/xc32/v1.33/bin/bin/../../lib/gcc/pic32mx/4.5.2/../../../../pic32mx/lib/libc.a(atoi.o)
 .text          0x00000000        0x0 /opt/microchip/xc32/v1.33/bin/bin/../../lib/gcc/pic32mx/4.5.2/../../../../pic32mx/lib/libc.a(powersf.o)
 .data          0x00000000        0x0 /opt/microchip/xc32/v1.33/bin/bin/../../lib/gcc/pic32mx/4.5.2/../../../../pic32mx/lib/libc.a(powersf.o)
 .bss           0x00000000        0x0 /opt/microchip/xc32/v1.33/bin/bin/../../lib/gcc/pic32mx/4.5.2/../../../../pic32mx/lib/libc.a(powersf.o)
 .reginfo       0x00000000       0x18 /opt/microchip/xc32/v1.33/bin/bin/../../lib/gcc/pic32mx/4.5.2/../../../../pic32mx/lib/libc.a(powersf.o)
 .text          0x00000000        0x0 /opt/microchip/xc32/v1.33/bin/bin/../../lib/gcc/pic32mx/4.5.2/../../../../pic32mx/lib/libc.a(strtod.o)
 .data          0x00000000        0x0 /opt/microchip/xc32/v1.33/bin/bin/../../lib/gcc/pic32mx/4.5.2/../../../../pic32mx/lib/libc.a(strtod.o)
 .bss           0x00000000        0x0 /opt/microchip/xc32/v1.33/bin/bin/../../lib/gcc/pic32mx/4.5.2/../../../../pic32mx/lib/libc.a(strtod.o)
 .reginfo       0x00000000       0x18 /opt/microchip/xc32/v1.33/bin/bin/../../lib/gcc/pic32mx/4.5.2/../../../../pic32mx/lib/libc.a(strtod.o)
 .text._dstrtod
                0x00000000       0x1c /opt/microchip/xc32/v1.33/bin/bin/../../lib/gcc/pic32mx/4.5.2/../../../../pic32mx/lib/libc.a(strtod.o)
 .text          0x00000000        0x0 /opt/microchip/xc32/v1.33/bin/bin/../../lib/gcc/pic32mx/4.5.2/../../../../pic32mx/lib/libc.a(strtof.o)
 .data          0x00000000        0x0 /opt/microchip/xc32/v1.33/bin/bin/../../lib/gcc/pic32mx/4.5.2/../../../../pic32mx/lib/libc.a(strtof.o)
 .bss           0x00000000        0x0 /opt/microchip/xc32/v1.33/bin/bin/../../lib/gcc/pic32mx/4.5.2/../../../../pic32mx/lib/libc.a(strtof.o)
 .reginfo       0x00000000       0x18 /opt/microchip/xc32/v1.33/bin/bin/../../lib/gcc/pic32mx/4.5.2/../../../../pic32mx/lib/libc.a(strtof.o)
 .text.strtodf  0x00000000       0x1c /opt/microchip/xc32/v1.33/bin/bin/../../lib/gcc/pic32mx/4.5.2/../../../../pic32mx/lib/libc.a(strtof.o)
 .text          0x00000000        0x0 /opt/microchip/xc32/v1.33/bin/bin/../../lib/gcc/pic32mx/4.5.2/../../../../pic32mx/lib/libc.a(ungetc.o)
 .data          0x00000000        0x0 /opt/microchip/xc32/v1.33/bin/bin/../../lib/gcc/pic32mx/4.5.2/../../../../pic32mx/lib/libc.a(ungetc.o)
 .bss           0x00000000        0x0 /opt/microchip/xc32/v1.33/bin/bin/../../lib/gcc/pic32mx/4.5.2/../../../../pic32mx/lib/libc.a(ungetc.o)
 .reginfo       0x00000000       0x18 /opt/microchip/xc32/v1.33/bin/bin/../../lib/gcc/pic32mx/4.5.2/../../../../pic32mx/lib/libc.a(ungetc.o)
 .text          0x00000000        0x0 /opt/microchip/xc32/v1.33/bin/bin/../../lib/gcc/pic32mx/4.5.2/../../../../pic32mx/lib/libc.a(_iob.o)
 .reginfo       0x00000000       0x18 /opt/microchip/xc32/v1.33/bin/bin/../../lib/gcc/pic32mx/4.5.2/../../../../pic32mx/lib/libc.a(_iob.o)
 .text          0x00000000        0x0 /opt/microchip/xc32/v1.33/bin/bin/../../lib/gcc/pic32mx/4.5.2/../../../../pic32mx/lib/libc.a(filbuf.o)
 .data          0x00000000        0x0 /opt/microchip/xc32/v1.33/bin/bin/../../lib/gcc/pic32mx/4.5.2/../../../../pic32mx/lib/libc.a(filbuf.o)
 .bss           0x00000000        0x0 /opt/microchip/xc32/v1.33/bin/bin/../../lib/gcc/pic32mx/4.5.2/../../../../pic32mx/lib/libc.a(filbuf.o)
 .reginfo       0x00000000       0x18 /opt/microchip/xc32/v1.33/bin/bin/../../lib/gcc/pic32mx/4.5.2/../../../../pic32mx/lib/libc.a(filbuf.o)
 .text          0x00000000        0x0 /opt/microchip/xc32/v1.33/bin/bin/../../lib/gcc/pic32mx/4.5.2/../../../../pic32mx/lib/libc.a(_flsbuf_simple.o)
 .data          0x00000000        0x0 /opt/microchip/xc32/v1.33/bin/bin/../../lib/gcc/pic32mx/4.5.2/../../../../pic32mx/lib/libc.a(_flsbuf_simple.o)
 .bss           0x00000000        0x0 /opt/microchip/xc32/v1.33/bin/bin/../../lib/gcc/pic32mx/4.5.2/../../../../pic32mx/lib/libc.a(_flsbuf_simple.o)
 .reginfo       0x00000000       0x18 /opt/microchip/xc32/v1.33/bin/bin/../../lib/gcc/pic32mx/4.5.2/../../../../pic32mx/lib/libc.a(_flsbuf_simple.o)
 .text          0x00000000        0x0 /opt/microchip/xc32/v1.33/bin/bin/../../lib/gcc/pic32mx/4.5.2/../../../../pic32mx/lib/libc.a(fflush.o)
 .data          0x00000000        0x0 /opt/microchip/xc32/v1.33/bin/bin/../../lib/gcc/pic32mx/4.5.2/../../../../pic32mx/lib/libc.a(fflush.o)
 .bss           0x00000000        0x0 /opt/microchip/xc32/v1.33/bin/bin/../../lib/gcc/pic32mx/4.5.2/../../../../pic32mx/lib/libc.a(fflush.o)
 .reginfo       0x00000000       0x18 /opt/microchip/xc32/v1.33/bin/bin/../../lib/gcc/pic32mx/4.5.2/../../../../pic32mx/lib/libc.a(fflush.o)
 .text          0x00000000        0x0 /opt/microchip/xc32/v1.33/bin/bin/../../lib/gcc/pic32mx/4.5.2/../../../../pic32mx/lib/libpic32.a(read.o)
 .data          0x00000000        0x0 /opt/microchip/xc32/v1.33/bin/bin/../../lib/gcc/pic32mx/4.5.2/../../../../pic32mx/lib/libpic32.a(read.o)
 .bss           0x00000000        0x0 /opt/microchip/xc32/v1.33/bin/bin/../../lib/gcc/pic32mx/4.5.2/../../../../pic32mx/lib/libpic32.a(read.o)
 .reginfo       0x00000000       0x18 /opt/microchip/xc32/v1.33/bin/bin/../../lib/gcc/pic32mx/4.5.2/../../../../pic32mx/lib/libpic32.a(read.o)
 .text          0x00000000        0x0 /opt/microchip/xc32/v1.33/bin/bin/../../lib/gcc/pic32mx/4.5.2/../../../../pic32mx/lib/libpic32.a(write.o)
 .data          0x00000000        0x0 /opt/microchip/xc32/v1.33/bin/bin/../../lib/gcc/pic32mx/4.5.2/../../../../pic32mx/lib/libpic32.a(write.o)
 .bss           0x00000000        0x0 /opt/microchip/xc32/v1.33/bin/bin/../../lib/gcc/pic32mx/4.5.2/../../../../pic32mx/lib/libpic32.a(write.o)
 .reginfo       0x00000000       0x18 /opt/microchip/xc32/v1.33/bin/bin/../../lib/gcc/pic32mx/4.5.2/../../../../pic32mx/lib/libpic32.a(write.o)
 .text          0x00000000        0x0 /opt/microchip/xc32/v1.33/bin/bin/../../lib/gcc/pic32mx/4.5.2/../../../../pic32mx/lib/libpic32.a(xc32_uart.o)
 .data          0x00000000        0x0 /opt/microchip/xc32/v1.33/bin/bin/../../lib/gcc/pic32mx/4.5.2/../../../../pic32mx/lib/libpic32.a(xc32_uart.o)
 .bss           0x00000000        0x0 /opt/microchip/xc32/v1.33/bin/bin/../../lib/gcc/pic32mx/4.5.2/../../../../pic32mx/lib/libpic32.a(xc32_uart.o)
 .reginfo       0x00000000       0x18 /opt/microchip/xc32/v1.33/bin/bin/../../lib/gcc/pic32mx/4.5.2/../../../../pic32mx/lib/libpic32.a(xc32_uart.o)
 .text          0x00000000        0x0 /opt/microchip/xc32/v1.33/bin/bin/../../lib/gcc/pic32mx/4.5.2/../../../../pic32mx/lib/libpic32.a(_mon_putc.o)
 .data          0x00000000        0x0 /opt/microchip/xc32/v1.33/bin/bin/../../lib/gcc/pic32mx/4.5.2/../../../../pic32mx/lib/libpic32.a(_mon_putc.o)
 .bss           0x00000000        0x0 /opt/microchip/xc32/v1.33/bin/bin/../../lib/gcc/pic32mx/4.5.2/../../../../pic32mx/lib/libpic32.a(_mon_putc.o)
 .reginfo       0x00000000       0x18 /opt/microchip/xc32/v1.33/bin/bin/../../lib/gcc/pic32mx/4.5.2/../../../../pic32mx/lib/libpic32.a(_mon_putc.o)
 .text          0x00000000        0x0 /opt/microchip/xc32/v1.33/bin/bin/../../lib/gcc/pic32mx/4.5.2/../../../../pic32mx/lib/libm.a(dptofp.o)
 .data          0x00000000        0x0 /opt/microchip/xc32/v1.33/bin/bin/../../lib/gcc/pic32mx/4.5.2/../../../../pic32mx/lib/libm.a(dptofp.o)
 .bss           0x00000000        0x0 /opt/microchip/xc32/v1.33/bin/bin/../../lib/gcc/pic32mx/4.5.2/../../../../pic32mx/lib/libm.a(dptofp.o)
 .reginfo       0x00000000       0x18 /opt/microchip/xc32/v1.33/bin/bin/../../lib/gcc/pic32mx/4.5.2/../../../../pic32mx/lib/libm.a(dptofp.o)
 .text          0x00000000        0x0 /opt/microchip/xc32/v1.33/bin/bin/../../lib/gcc/pic32mx/4.5.2/../../../../pic32mx/lib/libm.a(fpfrexp.o)
 .data          0x00000000        0x0 /opt/microchip/xc32/v1.33/bin/bin/../../lib/gcc/pic32mx/4.5.2/../../../../pic32mx/lib/libm.a(fpfrexp.o)
 .bss           0x00000000        0x0 /opt/microchip/xc32/v1.33/bin/bin/../../lib/gcc/pic32mx/4.5.2/../../../../pic32mx/lib/libm.a(fpfrexp.o)
 .reginfo       0x00000000       0x18 /opt/microchip/xc32/v1.33/bin/bin/../../lib/gcc/pic32mx/4.5.2/../../../../pic32mx/lib/libm.a(fpfrexp.o)
 .text          0x00000000        0x0 /opt/microchip/xc32/v1.33/bin/bin/../../lib/gcc/pic32mx/4.5.2/../../../../pic32mx/lib/libm.a(fptodp.o)
 .data          0x00000000        0x0 /opt/microchip/xc32/v1.33/bin/bin/../../lib/gcc/pic32mx/4.5.2/../../../../pic32mx/lib/libm.a(fptodp.o)
 .bss           0x00000000        0x0 /opt/microchip/xc32/v1.33/bin/bin/../../lib/gcc/pic32mx/4.5.2/../../../../pic32mx/lib/libm.a(fptodp.o)
 .reginfo       0x00000000       0x18 /opt/microchip/xc32/v1.33/bin/bin/../../lib/gcc/pic32mx/4.5.2/../../../../pic32mx/lib/libm.a(fptodp.o)
 .text          0x00000000        0x0 /opt/microchip/xc32/v1.33/bin/bin/../../lib/gcc/pic32mx/4.5.2/../../../../pic32mx/lib/libm.a(__strtod.o)
 .data          0x00000000        0x0 /opt/microchip/xc32/v1.33/bin/bin/../../lib/gcc/pic32mx/4.5.2/../../../../pic32mx/lib/libm.a(__strtod.o)
 .bss           0x00000000        0x0 /opt/microchip/xc32/v1.33/bin/bin/../../lib/gcc/pic32mx/4.5.2/../../../../pic32mx/lib/libm.a(__strtod.o)
 .reginfo       0x00000000       0x18 /opt/microchip/xc32/v1.33/bin/bin/../../lib/gcc/pic32mx/4.5.2/../../../../pic32mx/lib/libm.a(__strtod.o)
 .text          0x00000000        0x0 /opt/microchip/xc32/v1.33/bin/bin/../../lib/gcc/pic32mx/4.5.2/../../../../pic32mx/lib/libm.a(__strtof.o)
 .data          0x00000000        0x0 /opt/microchip/xc32/v1.33/bin/bin/../../lib/gcc/pic32mx/4.5.2/../../../../pic32mx/lib/libm.a(__strtof.o)
 .bss           0x00000000        0x0 /opt/microchip/xc32/v1.33/bin/bin/../../lib/gcc/pic32mx/4.5.2/../../../../pic32mx/lib/libm.a(__strtof.o)
 .reginfo       0x00000000       0x18 /opt/microchip/xc32/v1.33/bin/bin/../../lib/gcc/pic32mx/4.5.2/../../../../pic32mx/lib/libm.a(__strtof.o)
 .text          0x00000000        0x0 /opt/microchip/xc32/v1.33/bin/bin/../../lib/gcc/pic32mx/4.5.2/../../../../pic32mx/lib/libm.a(dp32div.o)
 .data          0x00000000        0x0 /opt/microchip/xc32/v1.33/bin/bin/../../lib/gcc/pic32mx/4.5.2/../../../../pic32mx/lib/libm.a(dp32div.o)
 .bss           0x00000000        0x0 /opt/microchip/xc32/v1.33/bin/bin/../../lib/gcc/pic32mx/4.5.2/../../../../pic32mx/lib/libm.a(dp32div.o)
 .reginfo       0x00000000       0x18 /opt/microchip/xc32/v1.33/bin/bin/../../lib/gcc/pic32mx/4.5.2/../../../../pic32mx/lib/libm.a(dp32div.o)
 .text          0x00000000        0x0 /opt/microchip/xc32/v1.33/bin/bin/../../lib/gcc/pic32mx/4.5.2/../../../../pic32mx/lib/libm.a(dp32mul.o)
 .data          0x00000000        0x0 /opt/microchip/xc32/v1.33/bin/bin/../../lib/gcc/pic32mx/4.5.2/../../../../pic32mx/lib/libm.a(dp32mul.o)
 .bss           0x00000000        0x0 /opt/microchip/xc32/v1.33/bin/bin/../../lib/gcc/pic32mx/4.5.2/../../../../pic32mx/lib/libm.a(dp32mul.o)
 .reginfo       0x00000000       0x18 /opt/microchip/xc32/v1.33/bin/bin/../../lib/gcc/pic32mx/4.5.2/../../../../pic32mx/lib/libm.a(dp32mul.o)
 .text          0x00000000        0x0 /opt/microchip/xc32/v1.33/bin/bin/../../lib/gcc/pic32mx/4.5.2/../../../../pic32mx/lib/libm.a(dp32subadd.o)
 .data          0x00000000        0x0 /opt/microchip/xc32/v1.33/bin/bin/../../lib/gcc/pic32mx/4.5.2/../../../../pic32mx/lib/libm.a(dp32subadd.o)
 .bss           0x00000000        0x0 /opt/microchip/xc32/v1.33/bin/bin/../../lib/gcc/pic32mx/4.5.2/../../../../pic32mx/lib/libm.a(dp32subadd.o)
 .reginfo       0x00000000       0x18 /opt/microchip/xc32/v1.33/bin/bin/../../lib/gcc/pic32mx/4.5.2/../../../../pic32mx/lib/libm.a(dp32subadd.o)
 .text          0x00000000        0x0 /opt/microchip/xc32/v1.33/bin/bin/../../lib/gcc/pic32mx/4.5.2/../../../../pic32mx/lib/libm.a(litodp.o)
 .data          0x00000000        0x0 /opt/microchip/xc32/v1.33/bin/bin/../../lib/gcc/pic32mx/4.5.2/../../../../pic32mx/lib/libm.a(litodp.o)
 .bss           0x00000000        0x0 /opt/microchip/xc32/v1.33/bin/bin/../../lib/gcc/pic32mx/4.5.2/../../../../pic32mx/lib/libm.a(litodp.o)
 .reginfo       0x00000000       0x18 /opt/microchip/xc32/v1.33/bin/bin/../../lib/gcc/pic32mx/4.5.2/../../../../pic32mx/lib/libm.a(litodp.o)
 .text          0x00000000        0x0 /opt/microchip/xc32/v1.33/bin/bin/../../lib/gcc/pic32mx/4.5.2/../../../../pic32mx/lib/libm.a(negdf2.o)
 .data          0x00000000        0x0 /opt/microchip/xc32/v1.33/bin/bin/../../lib/gcc/pic32mx/4.5.2/../../../../pic32mx/lib/libm.a(negdf2.o)
 .bss           0x00000000        0x0 /opt/microchip/xc32/v1.33/bin/bin/../../lib/gcc/pic32mx/4.5.2/../../../../pic32mx/lib/libm.a(negdf2.o)
 .reginfo       0x00000000       0x18 /opt/microchip/xc32/v1.33/bin/bin/../../lib/gcc/pic32mx/4.5.2/../../../../pic32mx/lib/libm.a(negdf2.o)
 .text          0x00000000        0x0 /opt/microchip/xc32/v1.33/bin/bin/../../lib/gcc/pic32mx/4.5.2/../../../../pic32mx/lib/libm.a(negsf2.o)
 .data          0x00000000        0x0 /opt/microchip/xc32/v1.33/bin/bin/../../lib/gcc/pic32mx/4.5.2/../../../../pic32mx/lib/libm.a(negsf2.o)
 .bss           0x00000000        0x0 /opt/microchip/xc32/v1.33/bin/bin/../../lib/gcc/pic32mx/4.5.2/../../../../pic32mx/lib/libm.a(negsf2.o)
 .reginfo       0x00000000       0x18 /opt/microchip/xc32/v1.33/bin/bin/../../lib/gcc/pic32mx/4.5.2/../../../../pic32mx/lib/libm.a(negsf2.o)
 .text          0x00000000        0x0 /opt/microchip/xc32/v1.33/bin/bin/../../lib/gcc/pic32mx/4.5.2/../../../../pic32mx/lib/libm.a(sitofp.o)
 .data          0x00000000        0x0 /opt/microchip/xc32/v1.33/bin/bin/../../lib/gcc/pic32mx/4.5.2/../../../../pic32mx/lib/libm.a(sitofp.o)
 .bss           0x00000000        0x0 /opt/microchip/xc32/v1.33/bin/bin/../../lib/gcc/pic32mx/4.5.2/../../../../pic32mx/lib/libm.a(sitofp.o)
 .reginfo       0x00000000       0x18 /opt/microchip/xc32/v1.33/bin/bin/../../lib/gcc/pic32mx/4.5.2/../../../../pic32mx/lib/libm.a(sitofp.o)
 .text          0x00000000        0x0 /opt/microchip/xc32/v1.33/bin/bin/../../lib/gcc/pic32mx/4.5.2/../../../../pic32mx/lib/libe.a(_floatdisf.o)
 .data          0x00000000        0x0 /opt/microchip/xc32/v1.33/bin/bin/../../lib/gcc/pic32mx/4.5.2/../../../../pic32mx/lib/libe.a(_floatdisf.o)
 .bss           0x00000000        0x0 /opt/microchip/xc32/v1.33/bin/bin/../../lib/gcc/pic32mx/4.5.2/../../../../pic32mx/lib/libe.a(_floatdisf.o)
 .reginfo       0x00000000       0x18 /opt/microchip/xc32/v1.33/bin/bin/../../lib/gcc/pic32mx/4.5.2/../../../../pic32mx/lib/libe.a(_floatdisf.o)
 .text          0x00000000        0x0 /opt/microchip/xc32/v1.33/bin/bin/../../lib/gcc/pic32mx/4.5.2/../../../../pic32mx/lib/libe.a(_ldexp.o)
 .data          0x00000000        0x0 /opt/microchip/xc32/v1.33/bin/bin/../../lib/gcc/pic32mx/4.5.2/../../../../pic32mx/lib/libe.a(_ldexp.o)
 .bss           0x00000000        0x0 /opt/microchip/xc32/v1.33/bin/bin/../../lib/gcc/pic32mx/4.5.2/../../../../pic32mx/lib/libe.a(_ldexp.o)
 .reginfo       0x00000000       0x18 /opt/microchip/xc32/v1.33/bin/bin/../../lib/gcc/pic32mx/4.5.2/../../../../pic32mx/lib/libe.a(_ldexp.o)
 .text          0x00000000        0x0 /opt/microchip/xc32/v1.33/bin/bin/../../lib/gcc/pic32mx/4.5.2/../../../../pic32mx/lib/libe.a(_ldexpf.o)
 .data          0x00000000        0x0 /opt/microchip/xc32/v1.33/bin/bin/../../lib/gcc/pic32mx/4.5.2/../../../../pic32mx/lib/libe.a(_ldexpf.o)
 .bss           0x00000000        0x0 /opt/microchip/xc32/v1.33/bin/bin/../../lib/gcc/pic32mx/4.5.2/../../../../pic32mx/lib/libe.a(_ldexpf.o)
 .reginfo       0x00000000       0x18 /opt/microchip/xc32/v1.33/bin/bin/../../lib/gcc/pic32mx/4.5.2/../../../../pic32mx/lib/libe.a(_ldexpf.o)
 .data          0x00000000        0x0 /opt/microchip/xc32/v1.33/bin/bin/../../lib/gcc/pic32mx/4.5.2/libgcc.a(_lshrdi3.o)
 .bss           0x00000000        0x0 /opt/microchip/xc32/v1.33/bin/bin/../../lib/gcc/pic32mx/4.5.2/libgcc.a(_lshrdi3.o)
 .reginfo       0x00000000       0x18 /opt/microchip/xc32/v1.33/bin/bin/../../lib/gcc/pic32mx/4.5.2/libgcc.a(_lshrdi3.o)
 .data          0x00000000        0x0 /opt/microchip/xc32/v1.33/bin/bin/../../lib/gcc/pic32mx/4.5.2/libgcc.a(_ashldi3.o)
 .bss           0x00000000        0x0 /opt/microchip/xc32/v1.33/bin/bin/../../lib/gcc/pic32mx/4.5.2/libgcc.a(_ashldi3.o)
 .reginfo       0x00000000       0x18 /opt/microchip/xc32/v1.33/bin/bin/../../lib/gcc/pic32mx/4.5.2/libgcc.a(_ashldi3.o)
 .data          0x00000000        0x0 /opt/microchip/xc32/v1.33/bin/bin/../../lib/gcc/pic32mx/4.5.2/libgcc.a(_floatundisf.o)
 .bss           0x00000000        0x0 /opt/microchip/xc32/v1.33/bin/bin/../../lib/gcc/pic32mx/4.5.2/libgcc.a(_floatundisf.o)
 .reginfo       0x00000000       0x18 /opt/microchip/xc32/v1.33/bin/bin/../../lib/gcc/pic32mx/4.5.2/libgcc.a(_floatundisf.o)
 .data          0x00000000        0x0 /opt/microchip/xc32/v1.33/bin/bin/../../lib/gcc/pic32mx/4.5.2/libgcc.a(_umoddi3.o)
 .bss           0x00000000        0x0 /opt/microchip/xc32/v1.33/bin/bin/../../lib/gcc/pic32mx/4.5.2/libgcc.a(_umoddi3.o)
 .reginfo       0x00000000       0x18 /opt/microchip/xc32/v1.33/bin/bin/../../lib/gcc/pic32mx/4.5.2/libgcc.a(_umoddi3.o)
 .data          0x00000000        0x0 /opt/microchip/xc32/v1.33/bin/bin/../../lib/gcc/pic32mx/4.5.2/libgcc.a(floatunsisf.o)
 .bss           0x00000000        0x0 /opt/microchip/xc32/v1.33/bin/bin/../../lib/gcc/pic32mx/4.5.2/libgcc.a(floatunsisf.o)
 .reginfo       0x00000000       0x18 /opt/microchip/xc32/v1.33/bin/bin/../../lib/gcc/pic32mx/4.5.2/libgcc.a(floatunsisf.o)
 .text          0x00000000        0x0 /opt/microchip/xc32/v1.33/bin/bin/../../lib/gcc/pic32mx/4.5.2/../../../../pic32mx/lib/libc.a(errno.o)
 .data          0x00000000        0x0 /opt/microchip/xc32/v1.33/bin/bin/../../lib/gcc/pic32mx/4.5.2/../../../../pic32mx/lib/libc.a(errno.o)
 .bss           0x00000000        0x0 /opt/microchip/xc32/v1.33/bin/bin/../../lib/gcc/pic32mx/4.5.2/../../../../pic32mx/lib/libc.a(errno.o)
 .reginfo       0x00000000       0x18 /opt/microchip/xc32/v1.33/bin/bin/../../lib/gcc/pic32mx/4.5.2/../../../../pic32mx/lib/libc.a(errno.o)

Memory Configuration

Name             Origin             Length             Attributes
kseg0_program_mem 0x9d006e00         0x00079200         xr
kseg0_boot_mem   0x9d006490         0x00000970
exception_mem    0x9d005000         0x00001000
kseg1_boot_mem   0x9d006000         0x00000490
debug_exec_mem   0xbfc02000         0x00000ff0
config3          0xbfc02ff0         0x00000004
config2          0xbfc02ff4         0x00000004
config1          0xbfc02ff8         0x00000004
config0          0xbfc02ffc         0x00000004
boot_software_key 0xa0000000         0x00000004
kseg1_data_mem   0xa0000004         0x00007f00         w !x
sfrs             0xbf800000         0x00100000
configsfrs       0xbfc02ff0         0x00000010
*default*        0x00000000         0xffffffff

Linker script and memory map

LOAD /opt/microchip/xc32/v1.33/bin/bin/../../lib/gcc/pic32mx/4.5.2/../../../../pic32mx/lib/./proc/32MX795F512L/crt0_mips32r2.o
LOAD /opt/microchip/xc32/v1.33/bin/bin/../../lib/gcc/pic32mx/4.5.2/../../../../pic32mx/lib/debug-exception-return.o
LOAD build/debug/production/_ext/1209914024/FSIO.o
LOAD build/debug/production/_ext/1209914024/SD-SPI.o
LOAD build/debug/production/_ext/1019771169/SClib.o
LOAD build/debug/production/_ext/1019771169/SCpic32.o
LOAD build/debug/production/_ext/631258897/usb_function_cdc.o
LOAD build/debug/production/_ext/186742988/usb_device.o
LOAD build/debug/production/src/indala.o
LOAD build/debug/production/src/main.o
LOAD build/debug/production/src/psk.o
LOAD build/debug/production/src/usb_descriptors.o
LOAD build/debug/production/src/util.o
LOAD build/debug/production/src/emulate.o
LOAD build/debug/production/src/ask.o
LOAD build/debug/production/src/fsk.o
LOAD build/debug/production/src/clock.o
LOAD build/debug/production/src/rwd.o
LOAD build/debug/production/src/detect.o
LOAD build/debug/production/src/hitagcrypto.o
LOAD build/debug/production/src/wiegand.o
LOAD build/debug/production/src/comms.o
LOAD build/debug/production/src/nvm.o
LOAD build/debug/production/src/mcp414x.o
LOAD build/debug/production/src/spi.o
LOAD build/debug/production/src/uart3.o
LOAD build/debug/production/src/tags.o
LOAD build/debug/production/src/unique.o
LOAD build/debug/production/src/led.o
LOAD build/debug/production/src/em.o
LOAD build/debug/production/src/hid.o
LOAD build/debug/production/src/read.o
LOAD build/debug/production/src/isr.o
LOAD build/debug/production/src/auto.o
LOAD build/debug/production/src/fdxb.o
LOAD build/debug/production/src/hitag.o
LOAD build/debug/production/src/uid.o
LOAD build/debug/production/src/login.o
LOAD build/debug/production/src/write.o
LOAD build/debug/production/src/auth.o
LOAD build/debug/production/src/q5.o
LOAD build/debug/production/src/vtag.o
LOAD build/debug/production/src/config.o
LOAD build/debug/production/src/select.o
LOAD build/debug/production/src/sdcard.o
LOAD build/debug/production/src/debug_pins.o
LOAD build/debug/production/src/awid.o
LOAD build/debug/production/src/analogue.o
LOAD build/debug/production/src/iso7816.o
LOAD build/debug/production/src/t55x7.o
LOAD build/debug/production/src/sniff.o
LOAD /opt/microchip/xc32/v1.33/pic32mx/lib/libmchp_peripheral_32MX795F512L.a
                0x00000001                __MPLAB_BUILD = 0x1
LOAD /opt/microchip/xc32/v1.33/bin/bin/../../lib/gcc/pic32mx/4.5.2/../../../../pic32mx/lib/./proc/32MX795F512L/default_isr_vectors.o
LOAD /opt/microchip/xc32/v1.33/bin/bin/../../lib/gcc/pic32mx/4.5.2/../../../../pic32mx/lib/pic32_software_reset.o
                0x00000400                PROVIDE (_min_stack_size, 0x400)
LOAD /opt/microchip/xc32/v1.33/bin/bin/../../lib/gcc/pic32mx/4.5.2/../../../../pic32mx/lib/./proc/32MX795F512L/processor.o
                0x00000000                _ramfunc_begin = 0x0
                0x00000001                PROVIDE (_vector_spacing, 0x1)
                0x9d005000                _ebase_address = 0x9d005000
                0x9d006000                _RESET_ADDR = 0x9d006000
                0x9d006380                _BEV_EXCPT_ADDR = 0x9d006380
                0x9d006480                _DBG_EXCPT_ADDR = 0x9d006480
                0xbfc02000                _DBG_CODE_ADDR = 0xbfc02000
                0x00000ff0                _DBG_CODE_SIZE = 0xff0
                0x9d005180                _GEN_EXCPT_ADDR = (_ebase_address + 0x180)

.boot_software_key
 *(.boot_software_key)

.config_BFC02FF0
 *(.config_BFC02FF0)

.config_BFC02FF4
 *(.config_BFC02FF4)

.config_BFC02FF8
 *(.config_BFC02FF8)

.config_BFC02FFC
                0xbfc02ffc        0x4
 *(.config_BFC02FFC)
 .config_BFC02FFC
                0xbfc02ffc        0x4 build/debug/production/src/main.o
                0xbfc02000                PROVIDE (_DBG_CODE_ADDR, 0xbfc02000)
                0x00000ff0                PROVIDE (_DBG_CODE_SIZE, 0xff0)

.reset          0x9d006000      0x1f0
 *(.reset)
 .reset         0x9d006000        0x8 /opt/microchip/xc32/v1.33/bin/bin/../../lib/gcc/pic32mx/4.5.2/../../../../pic32mx/lib/./proc/32MX795F512L/crt0_mips32r2.o
                0x9d006000                _reset
 *(.reset.startup)
 .reset.startup
                0x9d006008      0x1e8 /opt/microchip/xc32/v1.33/bin/bin/../../lib/gcc/pic32mx/4.5.2/../../../../pic32mx/lib/./proc/32MX795F512L/crt0_mips32r2.o

.bev_excpt      0x9d006380       0x10
 *(.bev_handler)
 .bev_handler   0x9d006380       0x10 /opt/microchip/xc32/v1.33/bin/bin/../../lib/gcc/pic32mx/4.5.2/../../../../pic32mx/lib/./proc/32MX795F512L/crt0_mips32r2.o

.dbg_excpt      0x9d006480        0x0
                0x9d006480                . = (. + DEFINED (_DEBUGGER)?0x8:0x0)

.dbg_code       0xbfc02000        0x0
                0xbfc02000                . = (. + DEFINED (_DEBUGGER)?_DBG_CODE_SIZE:0x0)

.app_excpt      0x9d005180       0x10
 *(.gen_handler)
 .gen_handler   0x9d005180       0x10 /opt/microchip/xc32/v1.33/bin/bin/../../lib/gcc/pic32mx/4.5.2/../../../../pic32mx/lib/./proc/32MX795F512L/crt0_mips32r2.o

.vector_0       0x9d005200        0x8
 *(.vector_0)
 .vector_0      0x9d005200        0x8 /opt/microchip/xc32/v1.33/bin/bin/../../lib/gcc/pic32mx/4.5.2/../../../../pic32mx/lib/libpic32.a(vector0.o)
                0x9d005200                __vector_dispatch_0
                0x00000001                ASSERT (((_vector_spacing == 0x0) || (SIZEOF (.vector_0) <= (_vector_spacing << 0x5))), function at exception vector 0 too large)

.vector_1       0x9d005220        0x8
 *(.vector_1)
 .vector_1      0x9d005220        0x8 /opt/microchip/xc32/v1.33/bin/bin/../../lib/gcc/pic32mx/4.5.2/../../../../pic32mx/lib/libpic32.a(vector1.o)
                0x9d005220                __vector_dispatch_1
                0x00000001                ASSERT (((_vector_spacing == 0x0) || (SIZEOF (.vector_1) <= (_vector_spacing << 0x5))), function at exception vector 1 too large)

.vector_2       0x9d005240        0x8
 *(.vector_2)
 .vector_2      0x9d005240        0x8 /opt/microchip/xc32/v1.33/bin/bin/../../lib/gcc/pic32mx/4.5.2/../../../../pic32mx/lib/libpic32.a(vector2.o)
                0x9d005240                __vector_dispatch_2
                0x00000001                ASSERT (((_vector_spacing == 0x0) || (SIZEOF (.vector_2) <= (_vector_spacing << 0x5))), function at exception vector 2 too large)

.vector_3       0x9d005260        0x8
 *(.vector_3)
 .vector_3      0x9d005260        0x8 /opt/microchip/xc32/v1.33/bin/bin/../../lib/gcc/pic32mx/4.5.2/../../../../pic32mx/lib/libpic32.a(vector3.o)
                0x9d005260                __vector_dispatch_3
                0x00000001                ASSERT (((_vector_spacing == 0x0) || (SIZEOF (.vector_3) <= (_vector_spacing << 0x5))), function at exception vector 3 too large)

.vector_4       0x9d005280        0x8
 *(.vector_4)
 .vector_4      0x9d005280        0x8 build/debug/production/_ext/1019771169/SCpic32.o
                0x9d005280                __vector_dispatch_4
                0x00000001                ASSERT (((_vector_spacing == 0x0) || (SIZEOF (.vector_4) <= (_vector_spacing << 0x5))), function at exception vector 4 too large)

.vector_5       0x9d0052a0        0x8
 *(.vector_5)
 .vector_5      0x9d0052a0        0x8 /opt/microchip/xc32/v1.33/bin/bin/../../lib/gcc/pic32mx/4.5.2/../../../../pic32mx/lib/libpic32.a(vector5.o)
                0x9d0052a0                __vector_dispatch_5
                0x00000001                ASSERT (((_vector_spacing == 0x0) || (SIZEOF (.vector_5) <= (_vector_spacing << 0x5))), function at exception vector 5 too large)

.vector_6       0x9d0052c0        0x8
 *(.vector_6)
 .vector_6      0x9d0052c0        0x8 /opt/microchip/xc32/v1.33/bin/bin/../../lib/gcc/pic32mx/4.5.2/../../../../pic32mx/lib/libpic32.a(vector6.o)
                0x9d0052c0                __vector_dispatch_6
                0x00000001                ASSERT (((_vector_spacing == 0x0) || (SIZEOF (.vector_6) <= (_vector_spacing << 0x5))), function at exception vector 6 too large)

.vector_7       0x9d0052e0        0x8
 *(.vector_7)
 .vector_7      0x9d0052e0        0x8 /opt/microchip/xc32/v1.33/bin/bin/../../lib/gcc/pic32mx/4.5.2/../../../../pic32mx/lib/libpic32.a(vector7.o)
                0x9d0052e0                __vector_dispatch_7
                0x00000001                ASSERT (((_vector_spacing == 0x0) || (SIZEOF (.vector_7) <= (_vector_spacing << 0x5))), function at exception vector 7 too large)

.vector_8       0x9d005300        0x8
 *(.vector_8)
 .vector_8      0x9d005300        0x8 /opt/microchip/xc32/v1.33/bin/bin/../../lib/gcc/pic32mx/4.5.2/../../../../pic32mx/lib/libpic32.a(vector8.o)
                0x9d005300                __vector_dispatch_8
                0x00000001                ASSERT (((_vector_spacing == 0x0) || (SIZEOF (.vector_8) <= (_vector_spacing << 0x5))), function at exception vector 8 too large)

.vector_9       0x9d005320        0x8
 *(.vector_9)
 .vector_9      0x9d005320        0x8 /opt/microchip/xc32/v1.33/bin/bin/../../lib/gcc/pic32mx/4.5.2/../../../../pic32mx/lib/libpic32.a(vector9.o)
                0x9d005320                __vector_dispatch_9
                0x00000001                ASSERT (((_vector_spacing == 0x0) || (SIZEOF (.vector_9) <= (_vector_spacing << 0x5))), function at exception vector 9 too large)

.vector_10      0x9d005340        0x8
 *(.vector_10)
 .vector_10     0x9d005340        0x8 /opt/microchip/xc32/v1.33/bin/bin/../../lib/gcc/pic32mx/4.5.2/../../../../pic32mx/lib/libpic32.a(vector10.o)
                0x9d005340                __vector_dispatch_10
                0x00000001                ASSERT (((_vector_spacing == 0x0) || (SIZEOF (.vector_10) <= (_vector_spacing << 0x5))), function at exception vector 10 too large)

.vector_11      0x9d005360        0x8
 *(.vector_11)
 .vector_11     0x9d005360        0x8 /opt/microchip/xc32/v1.33/bin/bin/../../lib/gcc/pic32mx/4.5.2/../../../../pic32mx/lib/libpic32.a(vector11.o)
                0x9d005360                __vector_dispatch_11
                0x00000001                ASSERT (((_vector_spacing == 0x0) || (SIZEOF (.vector_11) <= (_vector_spacing << 0x5))), function at exception vector 11 too large)

.vector_12      0x9d005380        0x8
 *(.vector_12)
 .vector_12     0x9d005380        0x8 build/debug/production/src/isr.o
                0x9d005380                __vector_dispatch_12
                0x00000001                ASSERT (((_vector_spacing == 0x0) || (SIZEOF (.vector_12) <= (_vector_spacing << 0x5))), function at exception vector 12 too large)

.vector_13      0x9d0053a0        0x8
 *(.vector_13)
 .vector_13     0x9d0053a0        0x8 /opt/microchip/xc32/v1.33/bin/bin/../../lib/gcc/pic32mx/4.5.2/../../../../pic32mx/lib/libpic32.a(vector13.o)
                0x9d0053a0                __vector_dispatch_13
                0x00000001                ASSERT (((_vector_spacing == 0x0) || (SIZEOF (.vector_13) <= (_vector_spacing << 0x5))), function at exception vector 13 too large)

.vector_14      0x9d0053c0        0x8
 *(.vector_14)
 .vector_14     0x9d0053c0        0x8 /opt/microchip/xc32/v1.33/bin/bin/../../lib/gcc/pic32mx/4.5.2/../../../../pic32mx/lib/libpic32.a(vector14.o)
                0x9d0053c0                __vector_dispatch_14
                0x00000001                ASSERT (((_vector_spacing == 0x0) || (SIZEOF (.vector_14) <= (_vector_spacing << 0x5))), function at exception vector 14 too large)

.vector_15      0x9d0053e0        0x8
 *(.vector_15)
 .vector_15     0x9d0053e0        0x8 /opt/microchip/xc32/v1.33/bin/bin/../../lib/gcc/pic32mx/4.5.2/../../../../pic32mx/lib/libpic32.a(vector15.o)
                0x9d0053e0                __vector_dispatch_15
                0x00000001                ASSERT (((_vector_spacing == 0x0) || (SIZEOF (.vector_15) <= (_vector_spacing << 0x5))), function at exception vector 15 too large)

.vector_16      0x9d005400        0x8
 *(.vector_16)
 .vector_16     0x9d005400        0x8 build/debug/production/src/isr.o
                0x9d005400                __vector_dispatch_16
                0x00000001                ASSERT (((_vector_spacing == 0x0) || (SIZEOF (.vector_16) <= (_vector_spacing << 0x5))), function at exception vector 16 too large)

.vector_17      0x9d005420        0x8
 *(.vector_17)
 .vector_17     0x9d005420        0x8 /opt/microchip/xc32/v1.33/bin/bin/../../lib/gcc/pic32mx/4.5.2/../../../../pic32mx/lib/libpic32.a(vector17.o)
                0x9d005420                __vector_dispatch_17
                0x00000001                ASSERT (((_vector_spacing == 0x0) || (SIZEOF (.vector_17) <= (_vector_spacing << 0x5))), function at exception vector 17 too large)

.vector_18      0x9d005440        0x8
 *(.vector_18)
 .vector_18     0x9d005440        0x8 /opt/microchip/xc32/v1.33/bin/bin/../../lib/gcc/pic32mx/4.5.2/../../../../pic32mx/lib/libpic32.a(vector18.o)
                0x9d005440                __vector_dispatch_18
                0x00000001                ASSERT (((_vector_spacing == 0x0) || (SIZEOF (.vector_18) <= (_vector_spacing << 0x5))), function at exception vector 18 too large)

.vector_19      0x9d005460        0x8
 *(.vector_19)
 .vector_19     0x9d005460        0x8 /opt/microchip/xc32/v1.33/bin/bin/../../lib/gcc/pic32mx/4.5.2/../../../../pic32mx/lib/libpic32.a(vector19.o)
                0x9d005460                __vector_dispatch_19
                0x00000001                ASSERT (((_vector_spacing == 0x0) || (SIZEOF (.vector_19) <= (_vector_spacing << 0x5))), function at exception vector 19 too large)

.vector_20      0x9d005480        0x8
 *(.vector_20)
 .vector_20     0x9d005480        0x8 /opt/microchip/xc32/v1.33/bin/bin/../../lib/gcc/pic32mx/4.5.2/../../../../pic32mx/lib/libpic32.a(vector20.o)
                0x9d005480                __vector_dispatch_20
                0x00000001                ASSERT (((_vector_spacing == 0x0) || (SIZEOF (.vector_20) <= (_vector_spacing << 0x5))), function at exception vector 20 too large)

.vector_21      0x9d0054a0        0x8
 *(.vector_21)
 .vector_21     0x9d0054a0        0x8 /opt/microchip/xc32/v1.33/bin/bin/../../lib/gcc/pic32mx/4.5.2/../../../../pic32mx/lib/libpic32.a(vector21.o)
                0x9d0054a0                __vector_dispatch_21
                0x00000001                ASSERT (((_vector_spacing == 0x0) || (SIZEOF (.vector_21) <= (_vector_spacing << 0x5))), function at exception vector 21 too large)

.vector_22      0x9d0054c0        0x8
 *(.vector_22)
 .vector_22     0x9d0054c0        0x8 build/debug/production/src/isr.o
                0x9d0054c0                __vector_dispatch_22
                0x00000001                ASSERT (((_vector_spacing == 0x0) || (SIZEOF (.vector_22) <= (_vector_spacing << 0x5))), function at exception vector 22 too large)

.vector_23      0x9d0054e0        0x8
 *(.vector_23)
 .vector_23     0x9d0054e0        0x8 /opt/microchip/xc32/v1.33/bin/bin/../../lib/gcc/pic32mx/4.5.2/../../../../pic32mx/lib/libpic32.a(vector23.o)
                0x9d0054e0                __vector_dispatch_23
                0x00000001                ASSERT (((_vector_spacing == 0x0) || (SIZEOF (.vector_23) <= (_vector_spacing << 0x5))), function at exception vector 23 too large)

.vector_24      0x9d005500        0x8
 *(.vector_24)
 .vector_24     0x9d005500        0x8 /opt/microchip/xc32/v1.33/bin/bin/../../lib/gcc/pic32mx/4.5.2/../../../../pic32mx/lib/libpic32.a(vector24.o)
                0x9d005500                __vector_dispatch_24
                0x00000001                ASSERT (((_vector_spacing == 0x0) || (SIZEOF (.vector_24) <= (_vector_spacing << 0x5))), function at exception vector 24 too large)

.vector_25      0x9d005520        0x8
 *(.vector_25)
 .vector_25     0x9d005520        0x8 /opt/microchip/xc32/v1.33/bin/bin/../../lib/gcc/pic32mx/4.5.2/../../../../pic32mx/lib/libpic32.a(vector25.o)
                0x9d005520                __vector_dispatch_25
                0x00000001                ASSERT (((_vector_spacing == 0x0) || (SIZEOF (.vector_25) <= (_vector_spacing << 0x5))), function at exception vector 25 too large)

.vector_26      0x9d005540        0x8
 *(.vector_26)
 .vector_26     0x9d005540        0x8 /opt/microchip/xc32/v1.33/bin/bin/../../lib/gcc/pic32mx/4.5.2/../../../../pic32mx/lib/libpic32.a(vector26.o)
                0x9d005540                __vector_dispatch_26
                0x00000001                ASSERT (((_vector_spacing == 0x0) || (SIZEOF (.vector_26) <= (_vector_spacing << 0x5))), function at exception vector 26 too large)

.vector_27      0x9d005560        0x8
 *(.vector_27)
 .vector_27     0x9d005560        0x8 /opt/microchip/xc32/v1.33/bin/bin/../../lib/gcc/pic32mx/4.5.2/../../../../pic32mx/lib/libpic32.a(vector27.o)
                0x9d005560                __vector_dispatch_27
                0x00000001                ASSERT (((_vector_spacing == 0x0) || (SIZEOF (.vector_27) <= (_vector_spacing << 0x5))), function at exception vector 27 too large)

.vector_28      0x9d005580        0x8
 *(.vector_28)
 .vector_28     0x9d005580        0x8 /opt/microchip/xc32/v1.33/bin/bin/../../lib/gcc/pic32mx/4.5.2/../../../../pic32mx/lib/libpic32.a(vector28.o)
                0x9d005580                __vector_dispatch_28
                0x00000001                ASSERT (((_vector_spacing == 0x0) || (SIZEOF (.vector_28) <= (_vector_spacing << 0x5))), function at exception vector 28 too large)

.vector_29      0x9d0055a0        0x8
 *(.vector_29)
 .vector_29     0x9d0055a0        0x8 /opt/microchip/xc32/v1.33/bin/bin/../../lib/gcc/pic32mx/4.5.2/../../../../pic32mx/lib/libpic32.a(vector29.o)
                0x9d0055a0                __vector_dispatch_29
                0x00000001                ASSERT (((_vector_spacing == 0x0) || (SIZEOF (.vector_29) <= (_vector_spacing << 0x5))), function at exception vector 29 too large)

.vector_30      0x9d0055c0        0x8
 *(.vector_30)
 .vector_30     0x9d0055c0        0x8 /opt/microchip/xc32/v1.33/bin/bin/../../lib/gcc/pic32mx/4.5.2/../../../../pic32mx/lib/libpic32.a(vector30.o)
                0x9d0055c0                __vector_dispatch_30
                0x00000001                ASSERT (((_vector_spacing == 0x0) || (SIZEOF (.vector_30) <= (_vector_spacing << 0x5))), function at exception vector 30 too large)

.vector_31      0x9d0055e0        0x8
 *(.vector_31)
 .vector_31     0x9d0055e0        0x8 /opt/microchip/xc32/v1.33/bin/bin/../../lib/gcc/pic32mx/4.5.2/../../../../pic32mx/lib/libpic32.a(vector31.o)
                0x9d0055e0                __vector_dispatch_31
                0x00000001                ASSERT (((_vector_spacing == 0x0) || (SIZEOF (.vector_31) <= (_vector_spacing << 0x5))), function at exception vector 31 too large)

.vector_32      0x9d005600        0x8
 *(.vector_32)
 .vector_32     0x9d005600        0x8 /opt/microchip/xc32/v1.33/bin/bin/../../lib/gcc/pic32mx/4.5.2/../../../../pic32mx/lib/libpic32.a(vector32.o)
                0x9d005600                __vector_dispatch_32
                0x00000001                ASSERT (((_vector_spacing == 0x0) || (SIZEOF (.vector_32) <= (_vector_spacing << 0x5))), function at exception vector 32 too large)

.vector_33      0x9d005620        0x8
 *(.vector_33)
 .vector_33     0x9d005620        0x8 /opt/microchip/xc32/v1.33/bin/bin/../../lib/gcc/pic32mx/4.5.2/../../../../pic32mx/lib/libpic32.a(vector33.o)
                0x9d005620                __vector_dispatch_33
                0x00000001                ASSERT (((_vector_spacing == 0x0) || (SIZEOF (.vector_33) <= (_vector_spacing << 0x5))), function at exception vector 33 too large)

.vector_34      0x9d005640        0x8
 *(.vector_34)
 .vector_34     0x9d005640        0x8 /opt/microchip/xc32/v1.33/bin/bin/../../lib/gcc/pic32mx/4.5.2/../../../../pic32mx/lib/libpic32.a(vector34.o)
                0x9d005640                __vector_dispatch_34
                0x00000001                ASSERT (((_vector_spacing == 0x0) || (SIZEOF (.vector_34) <= (_vector_spacing << 0x5))), function at exception vector 34 too large)

.vector_35      0x9d005660        0x8
 *(.vector_35)
 .vector_35     0x9d005660        0x8 /opt/microchip/xc32/v1.33/bin/bin/../../lib/gcc/pic32mx/4.5.2/../../../../pic32mx/lib/libpic32.a(vector35.o)
                0x9d005660                __vector_dispatch_35
                0x00000001                ASSERT (((_vector_spacing == 0x0) || (SIZEOF (.vector_35) <= (_vector_spacing << 0x5))), function at exception vector 35 too large)

.vector_36      0x9d005680        0x8
 *(.vector_36)
 .vector_36     0x9d005680        0x8 /opt/microchip/xc32/v1.33/bin/bin/../../lib/gcc/pic32mx/4.5.2/../../../../pic32mx/lib/libpic32.a(vector36.o)
                0x9d005680                __vector_dispatch_36
                0x00000001                ASSERT (((_vector_spacing == 0x0) || (SIZEOF (.vector_36) <= (_vector_spacing << 0x5))), function at exception vector 36 too large)

.vector_37      0x9d0056a0        0x8
 *(.vector_37)
 .vector_37     0x9d0056a0        0x8 /opt/microchip/xc32/v1.33/bin/bin/../../lib/gcc/pic32mx/4.5.2/../../../../pic32mx/lib/libpic32.a(vector37.o)
                0x9d0056a0                __vector_dispatch_37
                0x00000001                ASSERT (((_vector_spacing == 0x0) || (SIZEOF (.vector_37) <= (_vector_spacing << 0x5))), function at exception vector 37 too large)

.vector_38      0x9d0056c0        0x8
 *(.vector_38)
 .vector_38     0x9d0056c0        0x8 /opt/microchip/xc32/v1.33/bin/bin/../../lib/gcc/pic32mx/4.5.2/../../../../pic32mx/lib/libpic32.a(vector38.o)
                0x9d0056c0                __vector_dispatch_38
                0x00000001                ASSERT (((_vector_spacing == 0x0) || (SIZEOF (.vector_38) <= (_vector_spacing << 0x5))), function at exception vector 38 too large)

.vector_39      0x9d0056e0        0x8
 *(.vector_39)
 .vector_39     0x9d0056e0        0x8 /opt/microchip/xc32/v1.33/bin/bin/../../lib/gcc/pic32mx/4.5.2/../../../../pic32mx/lib/libpic32.a(vector39.o)
                0x9d0056e0                __vector_dispatch_39
                0x00000001                ASSERT (((_vector_spacing == 0x0) || (SIZEOF (.vector_39) <= (_vector_spacing << 0x5))), function at exception vector 39 too large)

.vector_40      0x9d005700        0x8
 *(.vector_40)
 .vector_40     0x9d005700        0x8 /opt/microchip/xc32/v1.33/bin/bin/../../lib/gcc/pic32mx/4.5.2/../../../../pic32mx/lib/libpic32.a(vector40.o)
                0x9d005700                __vector_dispatch_40
                0x00000001                ASSERT (((_vector_spacing == 0x0) || (SIZEOF (.vector_40) <= (_vector_spacing << 0x5))), function at exception vector 40 too large)

.vector_41      0x9d005720        0x8
 *(.vector_41)
 .vector_41     0x9d005720        0x8 /opt/microchip/xc32/v1.33/bin/bin/../../lib/gcc/pic32mx/4.5.2/../../../../pic32mx/lib/libpic32.a(vector41.o)
                0x9d005720                __vector_dispatch_41
                0x00000001                ASSERT (((_vector_spacing == 0x0) || (SIZEOF (.vector_41) <= (_vector_spacing << 0x5))), function at exception vector 41 too large)

.vector_42      0x9d005740        0x8
 *(.vector_42)
 .vector_42     0x9d005740        0x8 /opt/microchip/xc32/v1.33/bin/bin/../../lib/gcc/pic32mx/4.5.2/../../../../pic32mx/lib/libpic32.a(vector42.o)
                0x9d005740                __vector_dispatch_42
                0x00000001                ASSERT (((_vector_spacing == 0x0) || (SIZEOF (.vector_42) <= (_vector_spacing << 0x5))), function at exception vector 42 too large)

.vector_43      0x9d005760        0x8
 *(.vector_43)
 .vector_43     0x9d005760        0x8 /opt/microchip/xc32/v1.33/bin/bin/../../lib/gcc/pic32mx/4.5.2/../../../../pic32mx/lib/libpic32.a(vector43.o)
                0x9d005760                __vector_dispatch_43
                0x00000001                ASSERT (((_vector_spacing == 0x0) || (SIZEOF (.vector_43) <= (_vector_spacing << 0x5))), function at exception vector 43 too large)

.vector_44      0x9d005780        0x8
 *(.vector_44)
 .vector_44     0x9d005780        0x8 /opt/microchip/xc32/v1.33/bin/bin/../../lib/gcc/pic32mx/4.5.2/../../../../pic32mx/lib/libpic32.a(vector44.o)
                0x9d005780                __vector_dispatch_44
                0x00000001                ASSERT (((_vector_spacing == 0x0) || (SIZEOF (.vector_44) <= (_vector_spacing << 0x5))), function at exception vector 44 too large)

.vector_45      0x9d0057a0        0x8
 *(.vector_45)
 .vector_45     0x9d0057a0        0x8 build/debug/production/_ext/186742988/usb_device.o
                0x9d0057a0                __vector_dispatch_45
                0x00000001                ASSERT (((_vector_spacing == 0x0) || (SIZEOF (.vector_45) <= (_vector_spacing << 0x5))), function at exception vector 45 too large)

.vector_46      0x9d0057c0        0x8
 *(.vector_46)
 .vector_46     0x9d0057c0        0x8 /opt/microchip/xc32/v1.33/bin/bin/../../lib/gcc/pic32mx/4.5.2/../../../../pic32mx/lib/libpic32.a(vector46.o)
                0x9d0057c0                __vector_dispatch_46
                0x00000001                ASSERT (((_vector_spacing == 0x0) || (SIZEOF (.vector_46) <= (_vector_spacing << 0x5))), function at exception vector 46 too large)

.vector_47      0x9d0057e0        0x8
 *(.vector_47)
 .vector_47     0x9d0057e0        0x8 /opt/microchip/xc32/v1.33/bin/bin/../../lib/gcc/pic32mx/4.5.2/../../../../pic32mx/lib/libpic32.a(vector47.o)
                0x9d0057e0                __vector_dispatch_47
                0x00000001                ASSERT (((_vector_spacing == 0x0) || (SIZEOF (.vector_47) <= (_vector_spacing << 0x5))), function at exception vector 47 too large)

.vector_48      0x9d005800        0x8
 *(.vector_48)
 .vector_48     0x9d005800        0x8 /opt/microchip/xc32/v1.33/bin/bin/../../lib/gcc/pic32mx/4.5.2/../../../../pic32mx/lib/libpic32.a(vector48.o)
                0x9d005800                __vector_dispatch_48
                0x00000001                ASSERT (((_vector_spacing == 0x0) || (SIZEOF (.vector_48) <= (_vector_spacing << 0x5))), function at exception vector 48 too large)

.vector_49      0x9d005820        0x8
 *(.vector_49)
 .vector_49     0x9d005820        0x8 /opt/microchip/xc32/v1.33/bin/bin/../../lib/gcc/pic32mx/4.5.2/../../../../pic32mx/lib/libpic32.a(vector49.o)
                0x9d005820                __vector_dispatch_49
                0x00000001                ASSERT (((_vector_spacing == 0x0) || (SIZEOF (.vector_49) <= (_vector_spacing << 0x5))), function at exception vector 49 too large)

.vector_50      0x9d005840        0x8
 *(.vector_50)
 .vector_50     0x9d005840        0x8 /opt/microchip/xc32/v1.33/bin/bin/../../lib/gcc/pic32mx/4.5.2/../../../../pic32mx/lib/libpic32.a(vector50.o)
                0x9d005840                __vector_dispatch_50
                0x00000001                ASSERT (((_vector_spacing == 0x0) || (SIZEOF (.vector_50) <= (_vector_spacing << 0x5))), function at exception vector 50 too large)

.vector_51      0x9d005860        0x8
 *(.vector_51)
 .vector_51     0x9d005860        0x8 /opt/microchip/xc32/v1.33/bin/bin/../../lib/gcc/pic32mx/4.5.2/../../../../pic32mx/lib/libpic32.a(vector51.o)
                0x9d005860                __vector_dispatch_51
                0x00000001                ASSERT (((_vector_spacing == 0x0) || (SIZEOF (.vector_51) <= (_vector_spacing << 0x5))), function at exception vector 51 too large)

.vector_52      0x9d005880        0x8
 *(.vector_52)
 .vector_52     0x9d005880        0x8 /opt/microchip/xc32/v1.33/bin/bin/../../lib/gcc/pic32mx/4.5.2/../../../../pic32mx/lib/libpic32.a(vector52.o)
                0x9d005880                __vector_dispatch_52
                0x00000001                ASSERT (((_vector_spacing == 0x0) || (SIZEOF (.vector_52) <= (_vector_spacing << 0x5))), function at exception vector 52 too large)

.vector_53      0x9d0058a0        0x8
 *(.vector_53)
 .vector_53     0x9d0058a0        0x8 /opt/microchip/xc32/v1.33/bin/bin/../../lib/gcc/pic32mx/4.5.2/../../../../pic32mx/lib/libpic32.a(vector53.o)
                0x9d0058a0                __vector_dispatch_53
                0x00000001                ASSERT (((_vector_spacing == 0x0) || (SIZEOF (.vector_53) <= (_vector_spacing << 0x5))), function at exception vector 53 too large)

.vector_54      0x9d0058c0        0x8
 *(.vector_54)
 .vector_54     0x9d0058c0        0x8 /opt/microchip/xc32/v1.33/bin/bin/../../lib/gcc/pic32mx/4.5.2/../../../../pic32mx/lib/libpic32.a(vector54.o)
                0x9d0058c0                __vector_dispatch_54
                0x00000001                ASSERT (((_vector_spacing == 0x0) || (SIZEOF (.vector_54) <= (_vector_spacing << 0x5))), function at exception vector 54 too large)

.vector_55      0x9d0058e0        0x8
 *(.vector_55)
 .vector_55     0x9d0058e0        0x8 /opt/microchip/xc32/v1.33/bin/bin/../../lib/gcc/pic32mx/4.5.2/../../../../pic32mx/lib/libpic32.a(vector55.o)
                0x9d0058e0                __vector_dispatch_55
                0x00000001                ASSERT (((_vector_spacing == 0x0) || (SIZEOF (.vector_55) <= (_vector_spacing << 0x5))), function at exception vector 55 too large)

.vector_56      0x9d005900        0x8
 *(.vector_56)
 .vector_56     0x9d005900        0x8 /opt/microchip/xc32/v1.33/bin/bin/../../lib/gcc/pic32mx/4.5.2/../../../../pic32mx/lib/libpic32.a(vector56.o)
                0x9d005900                __vector_dispatch_56
                0x00000001                ASSERT (((_vector_spacing == 0x0) || (SIZEOF (.vector_56) <= (_vector_spacing << 0x5))), function at exception vector 56 too large)

.vector_57      0x9d005920        0x8
 *(.vector_57)
 .vector_57     0x9d005920        0x8 /opt/microchip/xc32/v1.33/bin/bin/../../lib/gcc/pic32mx/4.5.2/../../../../pic32mx/lib/libpic32.a(vector57.o)
                0x9d005920                __vector_dispatch_57
                0x00000001                ASSERT (((_vector_spacing == 0x0) || (SIZEOF (.vector_57) <= (_vector_spacing << 0x5))), function at exception vector 57 too large)

.vector_58      0x9d005940        0x8
 *(.vector_58)
 .vector_58     0x9d005940        0x8 /opt/microchip/xc32/v1.33/bin/bin/../../lib/gcc/pic32mx/4.5.2/../../../../pic32mx/lib/libpic32.a(vector58.o)
                0x9d005940                __vector_dispatch_58
                0x00000001                ASSERT (((_vector_spacing == 0x0) || (SIZEOF (.vector_58) <= (_vector_spacing << 0x5))), function at exception vector 58 too large)

.vector_59      0x9d005960        0x8
 *(.vector_59)
 .vector_59     0x9d005960        0x8 /opt/microchip/xc32/v1.33/bin/bin/../../lib/gcc/pic32mx/4.5.2/../../../../pic32mx/lib/libpic32.a(vector59.o)
                0x9d005960                __vector_dispatch_59
                0x00000001                ASSERT (((_vector_spacing == 0x0) || (SIZEOF (.vector_59) <= (_vector_spacing << 0x5))), function at exception vector 59 too large)

.vector_60      0x9d005980        0x8
 *(.vector_60)
 .vector_60     0x9d005980        0x8 /opt/microchip/xc32/v1.33/bin/bin/../../lib/gcc/pic32mx/4.5.2/../../../../pic32mx/lib/libpic32.a(vector60.o)
                0x9d005980                __vector_dispatch_60
                0x00000001                ASSERT (((_vector_spacing == 0x0) || (SIZEOF (.vector_60) <= (_vector_spacing << 0x5))), function at exception vector 60 too large)

.vector_61      0x9d0059a0        0x8
 *(.vector_61)
 .vector_61     0x9d0059a0        0x8 /opt/microchip/xc32/v1.33/bin/bin/../../lib/gcc/pic32mx/4.5.2/../../../../pic32mx/lib/libpic32.a(vector61.o)
                0x9d0059a0                __vector_dispatch_61
                0x00000001                ASSERT (((_vector_spacing == 0x0) || (SIZEOF (.vector_61) <= (_vector_spacing << 0x5))), function at exception vector 61 too large)

.vector_62      0x9d0059c0        0x8
 *(.vector_62)
 .vector_62     0x9d0059c0        0x8 /opt/microchip/xc32/v1.33/bin/bin/../../lib/gcc/pic32mx/4.5.2/../../../../pic32mx/lib/libpic32.a(vector62.o)
                0x9d0059c0                __vector_dispatch_62
                0x00000001                ASSERT (((_vector_spacing == 0x0) || (SIZEOF (.vector_62) <= (_vector_spacing << 0x5))), function at exception vector 62 too large)

.vector_63      0x9d0059e0        0x8
 *(.vector_63)
 .vector_63     0x9d0059e0        0x8 /opt/microchip/xc32/v1.33/bin/bin/../../lib/gcc/pic32mx/4.5.2/../../../../pic32mx/lib/libpic32.a(vector63.o)
                0x9d0059e0                __vector_dispatch_63
                0x00000001                ASSERT (((_vector_spacing == 0x0) || (SIZEOF (.vector_63) <= (_vector_spacing << 0x5))), function at exception vector 63 too large)

.startup
 *(.startup)

.text           0x9d006e00        0x0
 *(.stub .gnu.linkonce.t.*)
 *(.text.*personality*)
 *(.mips16.fn.*)
 *(.mips16.call.*)
 *(.gnu.warning)
                0x9d006e00                . = ALIGN (0x4)

.init           0x9d006e00        0x0
 *crti.o(.init)
 *crtbegin.o(.init)
 *(EXCLUDE_FILE(*crtn.o *crtend?.o *crtend.o) .init)
 *crtend.o(.init)
 *crtn.o(.init)
                0x9d006e00                . = ALIGN (0x4)

.fini           0x9d006e00        0x0
 *(.fini)
                0x9d006e00                . = ALIGN (0x4)

.preinit_array  0x9d006e00        0x0
                0x9d006e00                PROVIDE (__preinit_array_start, .)
 *(.preinit_array)
                0x9d006e00                PROVIDE (__preinit_array_end, .)
                0x9d006e00                . = ALIGN (0x4)

.init_array     0x9d006e00        0x0
                0x9d006e00                PROVIDE (__init_array_start, .)
 *(SORT(.init_array.*))
 *(.init_array)
                0x9d006e00                PROVIDE (__init_array_end, .)
                0x9d006e00                . = ALIGN (0x4)

.fini_array     0x9d006e00        0x0
                0x9d006e00                PROVIDE (__fini_array_start, .)
 *(SORT(.fini_array.*))
 *(.fini_array)
                0x9d006e00                PROVIDE (__fini_array_end, .)
                0x9d006e00                . = ALIGN (0x4)

.ctors          0x9d006e00        0x0
 *crtbegin.o(.ctors)
 *crtbegin?.o(.ctors)
 *(EXCLUDE_FILE(*crtend?.o *crtend.o) .ctors)
 *(SORT(.ctors.*))
 *(.ctors)
                0x9d006e00                . = ALIGN (0x4)

.dtors          0x9d006e00        0x0
 *crtbegin.o(.dtors)
 *crtbegin?.o(.dtors)
 *(EXCLUDE_FILE(*crtend?.o *crtend.o) .dtors)
 *(SORT(.dtors.*))
 *(.dtors)
                0x9d006e00                . = ALIGN (0x4)

.rodata         0x9d006e00        0x0
 *(.gnu.linkonce.r.*)
 *(.rodata1)
                0x9d006e00                . = ALIGN (0x4)

.sdata2         0x9d006490        0x0
 *(.sdata2 .sdata2.* .gnu.linkonce.s2.*)
                0x9d006490                . = ALIGN (0x4)

.sbss2          0x9d006490        0x0
 *(.sbss2 .sbss2.* .gnu.linkonce.sb2.*)
                0x9d006490                . = ALIGN (0x4)

.eh_frame_hdr
 *(.eh_frame_hdr)
                0x9d006490                . = ALIGN (0x4)

.eh_frame
 *(.eh_frame)
                0x9d006490                . = ALIGN (0x4)

.gcc_except_table
 *(.gcc_except_table .gcc_except_table.*)
                0x9d006490                . = ALIGN (0x4)

.dbg_data       0xa0000004        0x0
                0xa0000004                . = (. + DEFINED (_DEBUGGER)?0x200:0x0)

.jcr            0xa0000004        0x0
 *(.jcr)
                0xa0000004                . = ALIGN (0x4)

.eh_frame       0xa0000004       0x30
 *(.eh_frame)
 .eh_frame      0xa0000004       0x20 /opt/microchip/xc32/v1.33/bin/bin/../../lib/gcc/pic32mx/4.5.2/libgcc.a(_udivdi3.o)
 .eh_frame      0xa0000024       0x10 /opt/microchip/xc32/v1.33/bin/bin/../../lib/gcc/pic32mx/4.5.2/libgcc.a(_umoddi3.o)
                0xa0000034                . = ALIGN (0x4)

.gcc_except_table
 *(.gcc_except_table .gcc_except_table.*)
                0xa0000034                . = ALIGN (0x4)

.persist        0xa0000034        0x0
                0xa0000034                _persist_begin = .
 *(.persist .persist.*)
 *(.pbss .pbss.*)
                0xa0000034                . = ALIGN (0x4)
                0xa0000034                _persist_end = .

.data           0xa0000034        0x0
 *(.gnu.linkonce.d.*)
 *(.data1)
                0xa0000034                . = ALIGN (0x4)
                0xa0000034                . = .
                0xa0008030                _gp = (ALIGN (0x10) + 0x7ff0)

.got            0xa0000034        0x0
 *(.got.plt)
 *(.got)
                0xa0000034                . = ALIGN (0x4)

.sdata          0xa0000034       0x3c
                0xa0000034                _sdata_begin = .
 *(.sdata .sdata.* .gnu.linkonce.s.*)
 .sdata.gLastFATSectorRead.gLastFATSectorRead
                0xa0000034        0x4 build/debug/production/_ext/1209914024/FSIO.o
                0xa0000034                gLastFATSectorRead
 .sdata.gLastDataSectorRead.gLastDataSectorRead
                0xa0000038        0x4 build/debug/production/_ext/1209914024/FSIO.o
                0xa0000038                gLastDataSectorRead
 .sdata.cwdptr.cwdptr
                0xa000003c        0x4 build/debug/production/_ext/1209914024/FSIO.o
                0xa000003c                cwdptr
 .sdata.factorF.factorF
                0xa0000040        0x4 build/debug/production/_ext/1019771169/SClib.o
                0xa0000040                factorF
 .sdata.factorDNumerator.factorDNumerator
                0xa0000044        0x1 build/debug/production/_ext/1019771169/SClib.o
                0xa0000044                factorDNumerator
 .sdata.factorDdenominator.factorDdenominator
                0xa0000045        0x1 build/debug/production/_ext/1019771169/SClib.o
                0xa0000045                factorDdenominator
 *fill*         0xa0000046        0x2 
 .sdata.RWD_Command_ThisBit.RWD_Command_ThisBit
                0xa0000048        0x4 build/debug/production/src/main.o
                0xa0000048                RWD_Command_ThisBit
 .sdata.OnOff.OnOff
                0xa000004c        0x8 build/debug/production/src/main.o
                0xa000004c                OnOff
 .sdata.HighLow.HighLow
                0xa0000054        0x8 build/debug/production/src/main.o
                0xa0000054                HighLow
 .sdata.prompt.24045.prompt
                0xa000005c        0x4 build/debug/production/src/main.o
 .sdata.Clock_Tick_Counter_Reset.Clock_Tick_Counter_Reset
                0xa0000060        0x4 build/debug/production/src/isr.o
                0xa0000060                Clock_Tick_Counter_Reset
 .sdata.previous.22766.previous
                0xa0000064        0x1 build/debug/production/src/isr.o
 *fill*         0xa0000065        0x3 
 .sdata         0xa0000068        0x4 /opt/microchip/xc32/v1.33/bin/bin/../../lib/gcc/pic32mx/4.5.2/../../../../pic32mx/lib/libc.a(_iob.o)
                0xa0000068                _Files
 .sdata         0xa000006c        0x4 /opt/microchip/xc32/v1.33/bin/bin/../../lib/gcc/pic32mx/4.5.2/../../../../pic32mx/lib/libpic32.a(xc32_uart.o)
                0xa000006c                __XC_UART
                0xa0000070                . = ALIGN (0x4)
                0xa0000070                _sdata_end = .

.lit8
 *(.lit8)

.lit4
 *(.lit4)
                0xa0000070                . = ALIGN (0x4)
                0xa0000070                _data_end = .
                0xa0000070                _bss_begin = .

.sbss           0xa0000070      0x21c
                0xa0000070                _sbss_begin = .
 *(.dynsbss)
 *(.sbss .sbss.* .gnu.linkonce.sb.*)
 .sbss.gNeedFATWrite.gNeedFATWrite
                0xa0000070        0x1 build/debug/production/_ext/1209914024/FSIO.o
                0xa0000070                gNeedFATWrite
 *fill*         0xa0000071        0x3 
 .sbss.gBufferOwner.gBufferOwner
                0xa0000074        0x4 build/debug/production/_ext/1209914024/FSIO.o
                0xa0000074                gBufferOwner
 .sbss.gNeedDataWrite.gNeedDataWrite
                0xa0000078        0x1 build/debug/production/_ext/1209914024/FSIO.o
                0xa0000078                gNeedDataWrite
 .sbss.nextClusterIsLast.nextClusterIsLast
                0xa0000079        0x1 build/debug/production/_ext/1209914024/FSIO.o
                0xa0000079                nextClusterIsLast
 .sbss.gBufferZeroed.gBufferZeroed
                0xa000007a        0x1 build/debug/production/_ext/1209914024/FSIO.o
                0xa000007a                gBufferZeroed
 .sbss.recache.recache
                0xa000007b        0x1 build/debug/production/_ext/1209914024/FSIO.o
                0xa000007b                recache
 .sbss.utfModeFileName.utfModeFileName
                0xa000007c        0x4 build/debug/production/_ext/1209914024/FSIO.o
                0xa000007c                utfModeFileName
 .sbss.twoByteMode.twoByteMode
                0xa0000080        0x4 build/debug/production/_ext/1209914024/FSIO.o
                0xa0000080                twoByteMode
 .sbss.mediaInformation.mediaInformation
                0xa0000084        0x8 build/debug/production/_ext/1209914024/SD-SPI.o
 .sbss.blockCounter.23237.blockCounter
                0xa000008c        0x2 build/debug/production/_ext/1209914024/SD-SPI.o
 .sbss.command.23239.command
                0xa000008e        0x1 build/debug/production/_ext/1209914024/SD-SPI.o
 .sbss.data_byte.23236.data_byte
                0xa000008f        0x1 build/debug/production/_ext/1209914024/SD-SPI.o
 .sbss.WriteTimeout.23238.WriteTimeout
                0xa0000090        0x4 build/debug/production/_ext/1209914024/SD-SPI.o
 .sbss.blockCounter.23213.blockCounter
                0xa0000094        0x2 build/debug/production/_ext/1209914024/SD-SPI.o
 *fill*         0xa0000096        0x2 
 .sbss.SingleBlockRead.23215.SingleBlockRead
                0xa0000098        0x4 build/debug/production/_ext/1209914024/SD-SPI.o
 .sbss.longTimeoutCounter.23214.longTimeoutCounter
                0xa000009c        0x4 build/debug/production/_ext/1209914024/SD-SPI.o
 .sbss.scATRLength.scATRLength
                0xa00000a0        0x1 build/debug/production/_ext/1019771169/SClib.o
                0xa00000a0                scATRLength
 *fill*         0xa00000a1        0x3 
 .sbss.scATR_HistoryBuffer.scATR_HistoryBuffer
                0xa00000a4        0x4 build/debug/production/_ext/1019771169/SClib.o
                0xa00000a4                scATR_HistoryBuffer
 .sbss.scATR_HistoryLength.scATR_HistoryLength
                0xa00000a8        0x1 build/debug/production/_ext/1019771169/SClib.o
                0xa00000a8                scATR_HistoryLength
 *fill*         0xa00000a9        0x3 
 .sbss.gCardState.gCardState
                0xa00000ac        0x4 build/debug/production/_ext/1019771169/SClib.o
                0xa00000ac                gCardState
 .sbss.scLastError.scLastError
                0xa00000b0        0x4 build/debug/production/_ext/1019771169/SClib.o
                0xa00000b0                scLastError
 .sbss.delayLapsedFlag.delayLapsedFlag
                0xa00000b4        0x4 build/debug/production/_ext/1019771169/SCpic32.o
                0xa00000b4                delayLapsedFlag
 .sbss.EmulationMode.EmulationMode
                0xa00000b8        0x1 build/debug/production/src/main.o
                0xa00000b8                EmulationMode
 *fill*         0xa00000b9        0x3 
 .sbss.SnifferMode.SnifferMode
                0xa00000bc        0x4 build/debug/production/src/main.o
                0xa00000bc                SnifferMode
 .sbss.WiegandOutput.WiegandOutput
                0xa00000c0        0x4 build/debug/production/src/main.o
                0xa00000c0                WiegandOutput
 .sbss.EMU_Background.EMU_Background
                0xa00000c4        0x4 build/debug/production/src/main.o
                0xa00000c4                EMU_Background
 .sbss.ReaderPeriod.ReaderPeriod
                0xa00000c8        0x1 build/debug/production/src/main.o
                0xa00000c8                ReaderPeriod
 *fill*         0xa00000c9        0x3 
 .sbss.FakeRead.FakeRead
                0xa00000cc        0x4 build/debug/production/src/main.o
                0xa00000cc                FakeRead
 .sbss.PWD_Mode.PWD_Mode
                0xa00000d0        0x4 build/debug/production/src/main.o
                0xa00000d0                PWD_Mode
 .sbss.RWD_State.RWD_State
                0xa00000d4        0x1 build/debug/production/src/main.o
                0xa00000d4                RWD_State
 *fill*         0xa00000d5        0x3 
 .sbss.RWD_Fc.RWD_Fc
                0xa00000d8        0x4 build/debug/production/src/main.o
                0xa00000d8                RWD_Fc
 .sbss.RWD_Gap_Period.RWD_Gap_Period
                0xa00000dc        0x4 build/debug/production/src/main.o
                0xa00000dc                RWD_Gap_Period
 .sbss.RWD_Zero_Period.RWD_Zero_Period
                0xa00000e0        0x4 build/debug/production/src/main.o
                0xa00000e0                RWD_Zero_Period
 .sbss.RWD_One_Period.RWD_One_Period
                0xa00000e4        0x4 build/debug/production/src/main.o
                0xa00000e4                RWD_One_Period
 .sbss.RWD_Sleep_Period.RWD_Sleep_Period
                0xa00000e8        0x4 build/debug/production/src/main.o
                0xa00000e8                RWD_Sleep_Period
 .sbss.RWD_Wake_Period.RWD_Wake_Period
                0xa00000ec        0x4 build/debug/production/src/main.o
                0xa00000ec                RWD_Wake_Period
 .sbss.RWD_Wait_Switch_TX_RX.RWD_Wait_Switch_TX_RX
                0xa00000f0        0x4 build/debug/production/src/main.o
                0xa00000f0                RWD_Wait_Switch_TX_RX
 .sbss.RWD_Wait_Switch_RX_TX.RWD_Wait_Switch_RX_TX
                0xa00000f4        0x4 build/debug/production/src/main.o
                0xa00000f4                RWD_Wait_Switch_RX_TX
 .sbss.RWD_Post_Wait.RWD_Post_Wait
                0xa00000f8        0x4 build/debug/production/src/main.o
                0xa00000f8                RWD_Post_Wait
 .sbss.RWD_OC5_config.RWD_OC5_config
                0xa00000fc        0x4 build/debug/production/src/main.o
                0xa00000fc                RWD_OC5_config
 .sbss.RWD_OC5_r.RWD_OC5_r
                0xa0000100        0x4 build/debug/production/src/main.o
                0xa0000100                RWD_OC5_r
 .sbss.RWD_OC5_rs.RWD_OC5_rs
                0xa0000104        0x4 build/debug/production/src/main.o
                0xa0000104                RWD_OC5_rs
 .sbss.DataBuffCount.DataBuffCount
                0xa0000108        0x4 build/debug/production/src/main.o
                0xa0000108                DataBuffCount
 .sbss.Interface.Interface
                0xa000010c        0x1 build/debug/production/src/main.o
                0xa000010c                Interface
 .sbss.CommsChannel.CommsChannel
                0xa000010d        0x1 build/debug/production/src/main.o
                0xa000010d                CommsChannel
 *fill*         0xa000010e        0x2 
 .sbss.SoftwareKey.SoftwareKey
                0xa0000110        0x4 build/debug/production/src/main.o
                0xa0000110                SoftwareKey
 .sbss.tmplong.24041.tmplong
                0xa0000114        0x4 build/debug/production/src/main.o
 .sbss.delay_count.23986.delay_count
                0xa0000118        0x2 build/debug/production/src/main.o
 .sbss.commandbytes.23950.commandbytes
                0xa000011a        0x1 build/debug/production/src/main.o
 .sbss.going_up.23955.going_up
                0xa000011b        0x1 build/debug/production/src/main.o
 .sbss.history_pos.23953.history_pos
                0xa000011c        0x1 build/debug/production/src/main.o
 .sbss.history_peak.23954.history_peak
                0xa000011d        0x1 build/debug/production/src/main.o
 *fill*         0xa000011e        0x2 
 .sbss.x.23578.x
                0xa0000120        0x4 build/debug/production/src/util.o
 .sbss.Led_Count.Led_Count
                0xa0000124        0x4 build/debug/production/src/comms.o
                0xa0000124                Led_Count
 .sbss.PSK_Read_Error.PSK_Read_Error
                0xa0000128        0x4 build/debug/production/src/isr.o
                0xa0000128                PSK_Read_Error
 .sbss.Manchester_Error.Manchester_Error
                0xa000012c        0x4 build/debug/production/src/isr.o
                0xa000012c                Manchester_Error
 .sbss.out.22765.out
                0xa0000130        0x1 build/debug/production/src/isr.o
 *fill*         0xa0000131        0x3 
 .sbss.count.22763.count
                0xa0000134        0x4 build/debug/production/src/isr.o
 .sbss.count.22753.count
                0xa0000138        0x4 build/debug/production/src/isr.o
 .sbss.count.22738.count
                0xa000013c        0x4 build/debug/production/src/isr.o
 .sbss.CryptoActive.CryptoActive
                0xa0000140        0x4 build/debug/production/src/hitag.o
                0xa0000140                CryptoActive
 .sbss          0xa0000144        0x1 /opt/microchip/xc32/v1.33/bin/bin/../../lib/gcc/pic32mx/4.5.2/../../../../pic32mx/lib/libc.a(_iob.o)
                0xa0000144                _outdone
 *fill*         0xa0000145        0x3 
 .sbss          0xa0000148        0x4 /opt/microchip/xc32/v1.33/bin/bin/../../lib/gcc/pic32mx/4.5.2/../../../../pic32mx/lib/libc.a(errno.o)
                0xa0000148                errno
 *(.scommon)
 .scommon       0xa000014c       0x28 build/debug/production/_ext/1209914024/FSIO.o
                0xa000014c                fileNameLength
                0xa000014e                gTimeCrtMS
                0xa0000150                asciiFilename
                0xa0000154                gFileSlotOpen
                0xa0000158                utf16Filename
                0xa000015c                TempClusterCalc
                0xa0000160                FatRootDirClusterValue
                0xa0000164                gTimeCrtTime
                0xa0000166                dirCleared
                0xa0000168                recordSearchLength
                0xa000016a                gTimeWrtTime
                0xa000016c                gTimeAccDate
                0xa000016e                gTimeWrtDate
                0xa0000170                FSerrno
                0xa0000172                gTimeCrtDate
 .scommon       0xa0000174        0x8 build/debug/production/_ext/1209914024/SD-SPI.o
                0xa0000174                MDD_SDSPI_finalLBA
                0xa0000178                gSDMode
                0xa000017a                gMediaSectorSize
 .scommon       0xa000017c       0x24 build/debug/production/_ext/1019771169/SClib.o
                0xa000017c                scPPSresponseLength
                0xa000017e                cgtETU
                0xa0000180                scTA3
                0xa0000181                scTA2
                0xa0000182                scTA1
                0xa0000183                scTD1
                0xa0000184                scTD2
                0xa0000185                scTD3
                0xa0000188                scPPSresponse
                0xa0000190                cgtInMicroSeconds
                0xa0000194                scTC1
                0xa0000195                scTC2
                0xa0000196                scTC3
                0xa0000197                scTB1
                0xa0000198                scTB3
                0xa0000199                scTB2
                0xa000019c                t0WWTetu
 .scommon       0xa00001a0        0xc build/debug/production/_ext/1019771169/SCpic32.o
                0xa00001a0                baudRate
                0xa00001a4                oneETUtimeinMicroSeconds
                0xa00001a6                rxETUtimeDivisorFactor
                0xa00001a8                scReferenceClock
 .scommon       0xa00001ac       0x39 build/debug/production/_ext/631258897/usb_function_cdc.o
                0xa00001ac                CDCDataInHandle
                0xa00001b0                BaudRateGen
                0xa00001b4                pCDCSrc
                0xa00001b8                pCDCDst
                0xa00001bc                CDCDataOutHandle
                0xa00001c0                line_coding
                0xa00001c8                cdc_tx_len
                0xa00001cc                dummy_encapsulated_cmd_response
                0xa00001d4                cdc_notice
                0xa00001dc                cdc_rx_len
                0xa00001dd                cdc_trf_state
                0xa00001e0                control_signal_bitmap
                0xa00001e4                cdc_mem_type
 *fill*         0xa00001e5        0x3 
 .scommon       0xa00001e8       0x5c build/debug/production/_ext/186742988/usb_device.o
                0xa00001e8                BothEP0OutUOWNsSet
                0xa00001ec                USBDeferStatusStagePacket
                0xa00001f0                USBStatusStageEnabledFlag1
                0xa00001f4                USBActiveConfiguration
                0xa00001f8                USBStatusStageEnabledFlag2
                0xa00001fc                shortPacketStatus
                0xa0000200                USTATcopy
                0xa0000204                SetupPkt
                0xa000020c                USBBusIsSuspended
                0xa0000210                ep_data_out
                0xa0000214                pBDTEntryEP0OutNext
                0xa0000218                controlTransferState
                0xa000021c                pBDTEntryEP0OutCurrent
                0xa0000220                pDst
                0xa0000224                endpoint_number
                0xa0000228                USBDeferINDataStagePackets
                0xa000022c                USBDeferOUTDataStagePackets
                0xa0000230                USBDeviceState
                0xa0000234                USBStatusStageTimeoutCounter
                0xa0000238                RemoteWakeup
                0xa000023c                USBAlternateInterface
                0xa0000240                ep_data_in
 .scommon       0xa0000244       0x24 build/debug/production/src/main.o
                0xa0000244                EMU_ThisBit
                0xa0000245                EMU_SubCarrier_T0
                0xa0000248                buttonPressed
                0xa000024c                EMU_SubCarrier_T1
                0xa0000250                EMU_Data
                0xa0000254                buttonCount
                0xa0000258                EMU_Reset_Data
                0xa000025c                EMU_Repeat
                0xa0000260                stringPrinted
                0xa0000264                EMU_DataBitRate
 .scommon       0xa0000268        0x8 build/debug/production/src/util.o
                0xa0000268                RTC_date
                0xa000026c                RTC_time
 .scommon       0xa0000270        0xd build/debug/production/src/isr.o
                0xa0000270                HW_Bits
                0xa0000274                Clock_Tick_Counter
                0xa0000278                PSK_Min_Pulse
                0xa000027c                HW_Skip_Bits
 *fill*         0xa000027d        0x3 
 .scommon       0xa0000280        0xa build/debug/production/src/iso7816.o
                0xa0000280                cardResponse
                0xa0000284                cardCommand
                0xa000028a                _sbss_end = .
                0xa000028c                . = ALIGN (0x4)
 *fill*         0xa000028a        0x2 

.bss            0xa0000400     0x66f0
 *(.dynbss)
 *(COMMON)
 COMMON         0xa0000400     0x13f2 build/debug/production/_ext/1209914024/FSIO.o
                0xa0000400                gDataBuffer
                0xa0000600                tempCWDobj
                0xa0000644                fileFoundString
                0xa0000850                gFATBuffer
                0xa0000a50                lfnData
                0xa0001058                gDiskData
                0xa0001080                cwd
                0xa00010c4                gFileArray
                0xa0001190                recordSearchName
                0xa0001394                defaultArray
                0xa00013a0                gFileTemp
                0xa00013e4                recordFoundName
                0xa00015e8                tempDirectoryString
 *fill*         0xa00017f2        0x2 
 COMMON         0xa00017f4       0x21 build/debug/production/_ext/1019771169/SClib.o
                0xa00017f4                scCardATR
 *fill*         0xa0001815        0x3 
 COMMON         0xa0001818       0x80 build/debug/production/_ext/631258897/usb_function_cdc.o
                0xa0001818                cdc_data_rx
                0xa0001858                cdc_data_tx
 *fill*         0xa0001898      0x168 
 COMMON         0xa0001a00      0x2db build/debug/production/_ext/186742988/usb_device.o
                0xa0001a00                pBDTEntryOut
                0xa0001a10                pBDTEntryIn
                0xa0001c00                BDT
                0xa0001c80                inPipes
                0xa0001c90                CtrlTrfData
                0xa0001cd0                outPipes
 *fill*         0xa0001cdb        0x1 
 COMMON         0xa0001cdc     0x4d00 build/debug/production/src/main.o
                0xa0001cdc                TmpBits
                0xa00024dc                DataBuff
                0xa00044dc                Comms_Out_Buffer
                0xa000455c                TmpBuff
                0xa000555c                RWD_Command_Buff
                0xa000565c                Comms_In_Buffer
                0xa00056dc                RFIDlerConfig
                0xa00057d4                RFIDlerVTag
 *fill*         0xa00069dc        0x4 
 COMMON         0xa00069e0       0x10 build/debug/production/src/hitag.o
                0xa00069e0                Hitag_Crypto_State
 COMMON         0xa00069f0       0xff build/debug/production/src/iso7816.o
                0xa00069f0                apduData
                0xa0006af0                . = ALIGN ((. != 0x0)?0x4:0x1)
 *fill*         0xa0006aef        0x1 
                0xa0006af0                . = ALIGN (0x4)
                0xa0006af0                _end = .
                0xa0006af0                _bss_end = .
                0x00007f00                _bmxdudba_address = 0x7f00
                0x00007f00                _bmxdupba_address = 0x7f00

/DISCARD/
 *(.pdr)
 *(.rel.dyn)
 *(.note.GNU-stack)
 *(.note.GNU-stack)
 *(.gnu_debuglink)
 *(.gnu.lto_*)
 *(.discard)

.gptab.sdata
 *(.gptab.data)
 *(.gptab.sdata)

.gptab.sbss
 *(.gptab.bss)
 *(.gptab.sbss)

.mdebug.abi32   0xa0006af0        0x0
 *(.mdebug.abi32)
 .mdebug.abi32  0xa0006af0        0x0 build/debug/production/_ext/1209914024/FSIO.o
 .mdebug.abi32  0xa0006af0        0x0 build/debug/production/_ext/1209914024/SD-SPI.o
 .mdebug.abi32  0xa0006af0        0x0 build/debug/production/_ext/1019771169/SClib.o
 .mdebug.abi32  0xa0006af0        0x0 build/debug/production/_ext/1019771169/SCpic32.o
 .mdebug.abi32  0xa0006af0        0x0 build/debug/production/_ext/631258897/usb_function_cdc.o
 .mdebug.abi32  0xa0006af0        0x0 build/debug/production/_ext/186742988/usb_device.o
 .mdebug.abi32  0xa0006af0        0x0 build/debug/production/src/indala.o
 .mdebug.abi32  0xa0006af0        0x0 build/debug/production/src/main.o
 .mdebug.abi32  0xa0006af0        0x0 build/debug/production/src/psk.o
 .mdebug.abi32  0xa0006af0        0x0 build/debug/production/src/usb_descriptors.o
 .mdebug.abi32  0xa0006af0        0x0 build/debug/production/src/util.o
 .mdebug.abi32  0xa0006af0        0x0 build/debug/production/src/emulate.o
 .mdebug.abi32  0xa0006af0        0x0 build/debug/production/src/ask.o
 .mdebug.abi32  0xa0006af0        0x0 build/debug/production/src/fsk.o
 .mdebug.abi32  0xa0006af0        0x0 build/debug/production/src/clock.o
 .mdebug.abi32  0xa0006af0        0x0 build/debug/production/src/rwd.o
 .mdebug.abi32  0xa0006af0        0x0 build/debug/production/src/detect.o
 .mdebug.abi32  0xa0006af0        0x0 build/debug/production/src/hitagcrypto.o
 .mdebug.abi32  0xa0006af0        0x0 build/debug/production/src/wiegand.o
 .mdebug.abi32  0xa0006af0        0x0 build/debug/production/src/comms.o
 .mdebug.abi32  0xa0006af0        0x0 build/debug/production/src/nvm.o
 .mdebug.abi32  0xa0006af0        0x0 build/debug/production/src/mcp414x.o
 .mdebug.abi32  0xa0006af0        0x0 build/debug/production/src/spi.o
 .mdebug.abi32  0xa0006af0        0x0 build/debug/production/src/uart3.o
 .mdebug.abi32  0xa0006af0        0x0 build/debug/production/src/tags.o
 .mdebug.abi32  0xa0006af0        0x0 build/debug/production/src/unique.o
 .mdebug.abi32  0xa0006af0        0x0 build/debug/production/src/led.o
 .mdebug.abi32  0xa0006af0        0x0 build/debug/production/src/em.o
 .mdebug.abi32  0xa0006af0        0x0 build/debug/production/src/hid.o
 .mdebug.abi32  0xa0006af0        0x0 build/debug/production/src/read.o
 .mdebug.abi32  0xa0006af0        0x0 build/debug/production/src/isr.o
 .mdebug.abi32  0xa0006af0        0x0 build/debug/production/src/auto.o
 .mdebug.abi32  0xa0006af0        0x0 build/debug/production/src/fdxb.o
 .mdebug.abi32  0xa0006af0        0x0 build/debug/production/src/hitag.o
 .mdebug.abi32  0xa0006af0        0x0 build/debug/production/src/uid.o
 .mdebug.abi32  0xa0006af0        0x0 build/debug/production/src/login.o
 .mdebug.abi32  0xa0006af0        0x0 build/debug/production/src/write.o
 .mdebug.abi32  0xa0006af0        0x0 build/debug/production/src/auth.o
 .mdebug.abi32  0xa0006af0        0x0 build/debug/production/src/q5.o
 .mdebug.abi32  0xa0006af0        0x0 build/debug/production/src/vtag.o
 .mdebug.abi32  0xa0006af0        0x0 build/debug/production/src/config.o
 .mdebug.abi32  0xa0006af0        0x0 build/debug/production/src/select.o
 .mdebug.abi32  0xa0006af0        0x0 build/debug/production/src/sdcard.o
 .mdebug.abi32  0xa0006af0        0x0 build/debug/production/src/debug_pins.o
 .mdebug.abi32  0xa0006af0        0x0 build/debug/production/src/awid.o
 .mdebug.abi32  0xa0006af0        0x0 build/debug/production/src/analogue.o
 .mdebug.abi32  0xa0006af0        0x0 build/debug/production/src/iso7816.o
 .mdebug.abi32  0xa0006af0        0x0 build/debug/production/src/t55x7.o
 .mdebug.abi32  0xa0006af0        0x0 build/debug/production/src/sniff.o
 .mdebug.abi32  0xa0006af0        0x0 /opt/microchip/xc32/v1.33/pic32mx/lib/libmchp_peripheral_32MX795F512L.a(soft_reset_lib.o)
 .mdebug.abi32  0xa0006af0        0x0 /opt/microchip/xc32/v1.33/pic32mx/lib/libmchp_peripheral_32MX795F512L.a(pcache.o)
 .mdebug.abi32  0xa0006af0        0x0 /opt/microchip/xc32/v1.33/pic32mx/lib/libmchp_peripheral_32MX795F512L.a(int_configure_system_lib.o)
 .mdebug.abi32  0xa0006af0        0x0 /opt/microchip/xc32/v1.33/pic32mx/lib/libmchp_peripheral_32MX795F512L.a(int_enable_interrupts_lib.o)
 .mdebug.abi32  0xa0006af0        0x0 /opt/microchip/xc32/v1.33/pic32mx/lib/libmchp_peripheral_32MX795F512L.a(int_disable_interrupts_lib.o)
 .mdebug.abi32  0xa0006af0        0x0 /opt/microchip/xc32/v1.33/pic32mx/lib/libmchp_peripheral_32MX795F512L.a(int_restore_interrupts_lib.o)
 .mdebug.abi32  0xa0006af0        0x0 /opt/microchip/xc32/v1.33/pic32mx/lib/libmchp_peripheral_32MX795F512L.a(int_enable_mv_int_lib.o)
 .mdebug.abi32  0xa0006af0        0x0 /opt/microchip/xc32/v1.33/pic32mx/lib/libmchp_peripheral_32MX795F512L.a(int_tbl_lib.o)
 .mdebug.abi32  0xa0006af0        0x0 /opt/microchip/xc32/v1.33/pic32mx/lib/libmchp_peripheral_32MX795F512L.a(spi_chn_close_lib.o)
 .mdebug.abi32  0xa0006af0        0x0 /opt/microchip/xc32/v1.33/pic32mx/lib/libmchp_peripheral_32MX795F512L.a(spi_chn_open_lib.o)
 .mdebug.abi32  0xa0006af0        0x0 /opt/microchip/xc32/v1.33/pic32mx/lib/libmchp_peripheral_32MX795F512L.a(spi_io_tbl_libp.o)
 .mdebug.abi32  0xa0006af0        0x0 /opt/microchip/xc32/v1.33/pic32mx/lib/libmchp_peripheral_32MX795F512L.a(spi_map_tbl_libp.o)
 .mdebug.abi32  0xa0006af0        0x0 /opt/microchip/xc32/v1.33/pic32mx/lib/libmchp_peripheral_32MX795F512L.a(spi_getc_spi1_lib_legacy.o)
 .mdebug.abi32  0xa0006af0        0x0 /opt/microchip/xc32/v1.33/pic32mx/lib/libmchp_peripheral_32MX795F512L.a(spi_open_spi1_lib_legacy.o)
 .mdebug.abi32  0xa0006af0        0x0 /opt/microchip/xc32/v1.33/pic32mx/lib/libmchp_peripheral_32MX795F512L.a(spi_brg_tbl_lib_legacy.o)
 .mdebug.abi32  0xa0006af0        0x0 /opt/microchip/xc32/v1.33/pic32mx/lib/libmchp_peripheral_32MX795F512L.a(nvm_erase_page_lib.o)
 .mdebug.abi32  0xa0006af0        0x0 /opt/microchip/xc32/v1.33/pic32mx/lib/libmchp_peripheral_32MX795F512L.a(nvm_operation_lib.o)
 .mdebug.abi32  0xa0006af0        0x0 /opt/microchip/xc32/v1.33/pic32mx/lib/libmchp_peripheral_32MX795F512L.a(nvm_program_lib.o)
 .mdebug.abi32  0xa0006af0        0x0 /opt/microchip/xc32/v1.33/pic32mx/lib/libmchp_peripheral_32MX795F512L.a(nvm_write_row_lib.o)
 .mdebug.abi32  0xa0006af0        0x0 /opt/microchip/xc32/v1.33/pic32mx/lib/libmchp_peripheral_32MX795F512L.a(port_reset_pins_lib.o)
 .mdebug.abi32  0xa0006af0        0x0 /opt/microchip/xc32/v1.33/pic32mx/lib/libmchp_peripheral_32MX795F512L.a(port_set_pins_digital_in_lib.o)
 .mdebug.abi32  0xa0006af0        0x0 /opt/microchip/xc32/v1.33/pic32mx/lib/libmchp_peripheral_32MX795F512L.a(port_set_pins_digital_out_lib.o)
 .mdebug.abi32  0xa0006af0        0x0 /opt/microchip/xc32/v1.33/pic32mx/lib/libmchp_peripheral_32MX795F512L.a(_ports_tbl_libp.o)
 .mdebug.abi32  0xa0006af0        0x0 /opt/microchip/xc32/v1.33/bin/bin/../../lib/gcc/pic32mx/4.5.2/libgcc.a(_udivdi3.o)
 .mdebug.abi32  0xa0006af0        0x0 /opt/microchip/xc32/v1.33/bin/bin/../../lib/gcc/pic32mx/4.5.2/../../../../pic32mx/lib/libpic32.a(default-bootstrap-exception-handler.o)
 .mdebug.abi32  0xa0006af0        0x0 /opt/microchip/xc32/v1.33/bin/bin/../../lib/gcc/pic32mx/4.5.2/../../../../pic32mx/lib/libpic32.a(default-on-reset.o)
 .mdebug.abi32  0xa0006af0        0x0 /opt/microchip/xc32/v1.33/bin/bin/../../lib/gcc/pic32mx/4.5.2/../../../../pic32mx/lib/libpic32.a(default-on-bootstrap.o)
 .mdebug.abi32  0xa0006af0        0x0 /opt/microchip/xc32/v1.33/bin/bin/../../lib/gcc/pic32mx/4.5.2/../../../../pic32mx/lib/libpic32.a(default-general-exception-handler.o)
 .mdebug.abi32  0xa0006af0        0x0 /opt/microchip/xc32/v1.33/bin/bin/../../lib/gcc/pic32mx/4.5.2/../../../../pic32mx/lib/libpic32.a(defaultinterrupt.o)
 .mdebug.abi32  0xa0006af0        0x0 /opt/microchip/xc32/v1.33/bin/bin/../../lib/gcc/pic32mx/4.5.2/../../../../pic32mx/lib/libc.a(ctypef.o)
 .mdebug.abi32  0xa0006af0        0x0 /opt/microchip/xc32/v1.33/bin/bin/../../lib/gcc/pic32mx/4.5.2/../../../../pic32mx/lib/libc.a(rand.o)
 .mdebug.abi32  0xa0006af0        0x0 /opt/microchip/xc32/v1.33/bin/bin/../../lib/gcc/pic32mx/4.5.2/../../../../pic32mx/lib/libc.a(strncmp.o)
 .mdebug.abi32  0xa0006af0        0x0 /opt/microchip/xc32/v1.33/bin/bin/../../lib/gcc/pic32mx/4.5.2/../../../../pic32mx/lib/libc.a(strncpy.o)
 .mdebug.abi32  0xa0006af0        0x0 /opt/microchip/xc32/v1.33/bin/bin/../../lib/gcc/pic32mx/4.5.2/../../../../pic32mx/lib/libc.a(snprintf_cdnopuxX.eo)
 .mdebug.abi32  0xa0006af0        0x0 /opt/microchip/xc32/v1.33/bin/bin/../../lib/gcc/pic32mx/4.5.2/../../../../pic32mx/lib/libc.a(snprintf.o)
 .mdebug.abi32  0xa0006af0        0x0 /opt/microchip/xc32/v1.33/bin/bin/../../lib/gcc/pic32mx/4.5.2/../../../../pic32mx/lib/libc.a(sprintf_cdnopuxX.eo)
 .mdebug.abi32  0xa0006af0        0x0 /opt/microchip/xc32/v1.33/bin/bin/../../lib/gcc/pic32mx/4.5.2/../../../../pic32mx/lib/libc.a(sprintf.o)
 .mdebug.abi32  0xa0006af0        0x0 /opt/microchip/xc32/v1.33/bin/bin/../../lib/gcc/pic32mx/4.5.2/../../../../pic32mx/lib/libc.a(sscanf_cdfFnopsuxX.eo)
 .mdebug.abi32  0xa0006af0        0x0 /opt/microchip/xc32/v1.33/bin/bin/../../lib/gcc/pic32mx/4.5.2/../../../../pic32mx/lib/libc.a(vsnprintf_cdnopuxX.eo)
 .mdebug.abi32  0xa0006af0        0x0 /opt/microchip/xc32/v1.33/bin/bin/../../lib/gcc/pic32mx/4.5.2/../../../../pic32mx/lib/libc.a(vsnprintf.o)
 .mdebug.abi32  0xa0006af0        0x0 /opt/microchip/xc32/v1.33/bin/bin/../../lib/gcc/pic32mx/4.5.2/../../../../pic32mx/lib/libc.a(ctype.o)
 .mdebug.abi32  0xa0006af0        0x0 /opt/microchip/xc32/v1.33/bin/bin/../../lib/gcc/pic32mx/4.5.2/../../../../pic32mx/lib/libc.a(doprnt_cdnopuxX.eo)
 .mdebug.abi32  0xa0006af0        0x0 /opt/microchip/xc32/v1.33/bin/bin/../../lib/gcc/pic32mx/4.5.2/../../../../pic32mx/lib/libc.a(doprnt.o)
 .mdebug.abi32  0xa0006af0        0x0 /opt/microchip/xc32/v1.33/bin/bin/../../lib/gcc/pic32mx/4.5.2/../../../../pic32mx/lib/libc.a(doscan_cdfFnopsuxX.eo)
 .mdebug.abi32  0xa0006af0        0x0 /opt/microchip/xc32/v1.33/bin/bin/../../lib/gcc/pic32mx/4.5.2/../../../../pic32mx/lib/libc.a(doscan_cdnopuxX.eo)
 .mdebug.abi32  0xa0006af0        0x0 /opt/microchip/xc32/v1.33/bin/bin/../../lib/gcc/pic32mx/4.5.2/../../../../pic32mx/lib/libc.a(fgetc.o)
 .mdebug.abi32  0xa0006af0        0x0 /opt/microchip/xc32/v1.33/bin/bin/../../lib/gcc/pic32mx/4.5.2/../../../../pic32mx/lib/libc.a(_fputc_simple.o)
 .mdebug.abi32  0xa0006af0        0x0 /opt/microchip/xc32/v1.33/bin/bin/../../lib/gcc/pic32mx/4.5.2/../../../../pic32mx/lib/libc.a(atoi.o)
 .mdebug.abi32  0xa0006af0        0x0 /opt/microchip/xc32/v1.33/bin/bin/../../lib/gcc/pic32mx/4.5.2/../../../../pic32mx/lib/libc.a(powersf.o)
 .mdebug.abi32  0xa0006af0        0x0 /opt/microchip/xc32/v1.33/bin/bin/../../lib/gcc/pic32mx/4.5.2/../../../../pic32mx/lib/libc.a(strtod.o)
 .mdebug.abi32  0xa0006af0        0x0 /opt/microchip/xc32/v1.33/bin/bin/../../lib/gcc/pic32mx/4.5.2/../../../../pic32mx/lib/libc.a(strtof.o)
 .mdebug.abi32  0xa0006af0        0x0 /opt/microchip/xc32/v1.33/bin/bin/../../lib/gcc/pic32mx/4.5.2/../../../../pic32mx/lib/libc.a(ungetc.o)
 .mdebug.abi32  0xa0006af0        0x0 /opt/microchip/xc32/v1.33/bin/bin/../../lib/gcc/pic32mx/4.5.2/../../../../pic32mx/lib/libc.a(_iob.o)
 .mdebug.abi32  0xa0006af0        0x0 /opt/microchip/xc32/v1.33/bin/bin/../../lib/gcc/pic32mx/4.5.2/../../../../pic32mx/lib/libc.a(filbuf.o)
 .mdebug.abi32  0xa0006af0        0x0 /opt/microchip/xc32/v1.33/bin/bin/../../lib/gcc/pic32mx/4.5.2/../../../../pic32mx/lib/libc.a(_flsbuf_simple.o)
 .mdebug.abi32  0xa0006af0        0x0 /opt/microchip/xc32/v1.33/bin/bin/../../lib/gcc/pic32mx/4.5.2/../../../../pic32mx/lib/libc.a(fflush.o)
 .mdebug.abi32  0xa0006af0        0x0 /opt/microchip/xc32/v1.33/bin/bin/../../lib/gcc/pic32mx/4.5.2/../../../../pic32mx/lib/libpic32.a(read.o)
 .mdebug.abi32  0xa0006af0        0x0 /opt/microchip/xc32/v1.33/bin/bin/../../lib/gcc/pic32mx/4.5.2/../../../../pic32mx/lib/libpic32.a(write.o)
 .mdebug.abi32  0xa0006af0        0x0 /opt/microchip/xc32/v1.33/bin/bin/../../lib/gcc/pic32mx/4.5.2/../../../../pic32mx/lib/libpic32.a(xc32_uart.o)
 .mdebug.abi32  0xa0006af0        0x0 /opt/microchip/xc32/v1.33/bin/bin/../../lib/gcc/pic32mx/4.5.2/../../../../pic32mx/lib/libpic32.a(_mon_putc.o)
 .mdebug.abi32  0xa0006af0        0x0 /opt/microchip/xc32/v1.33/bin/bin/../../lib/gcc/pic32mx/4.5.2/../../../../pic32mx/lib/libm.a(__strtod.o)
 .mdebug.abi32  0xa0006af0        0x0 /opt/microchip/xc32/v1.33/bin/bin/../../lib/gcc/pic32mx/4.5.2/../../../../pic32mx/lib/libm.a(__strtof.o)
 .mdebug.abi32  0xa0006af0        0x0 /opt/microchip/xc32/v1.33/bin/bin/../../lib/gcc/pic32mx/4.5.2/../../../../pic32mx/lib/libe.a(_floatdisf.o)
 .mdebug.abi32  0xa0006af0        0x0 /opt/microchip/xc32/v1.33/bin/bin/../../lib/gcc/pic32mx/4.5.2/../../../../pic32mx/lib/libe.a(_ldexp.o)
 .mdebug.abi32  0xa0006af0        0x0 /opt/microchip/xc32/v1.33/bin/bin/../../lib/gcc/pic32mx/4.5.2/../../../../pic32mx/lib/libe.a(_ldexpf.o)
 .mdebug.abi32  0xa0006af0        0x0 /opt/microchip/xc32/v1.33/bin/bin/../../lib/gcc/pic32mx/4.5.2/libgcc.a(_lshrdi3.o)
 .mdebug.abi32  0xa0006af0        0x0 /opt/microchip/xc32/v1.33/bin/bin/../../lib/gcc/pic32mx/4.5.2/libgcc.a(_ashldi3.o)
 .mdebug.abi32  0xa0006af0        0x0 /opt/microchip/xc32/v1.33/bin/bin/../../lib/gcc/pic32mx/4.5.2/libgcc.a(_floatundisf.o)
 .mdebug.abi32  0xa0006af0        0x0 /opt/microchip/xc32/v1.33/bin/bin/../../lib/gcc/pic32mx/4.5.2/libgcc.a(_umoddi3.o)
 .mdebug.abi32  0xa0006af0        0x0 /opt/microchip/xc32/v1.33/bin/bin/../../lib/gcc/pic32mx/4.5.2/libgcc.a(floatunsisf.o)
 .mdebug.abi32  0xa0006af0        0x0 /opt/microchip/xc32/v1.33/bin/bin/../../lib/gcc/pic32mx/4.5.2/../../../../pic32mx/lib/libc.a(errno.o)

.mdebug.abiN32
 *(.mdebug.abiN32)

.mdebug.abi64
 *(.mdebug.abi64)

.mdebug.abiO64
 *(.mdebug.abiO64)

.mdebug.eabi32
 *(.mdebug.eabi32)

.mdebug.eabi64
 *(.mdebug.eabi64)

.gcc_compiled_long32
 *(.gcc_compiled_long32)

.gcc_compiled_long64
 *(.gcc_compiled_long64)

.stab
 *(.stab)

.stabstr
 *(.stabstr)

.stab.excl
 *(.stab.excl)

.stab.exclstr
 *(.stab.exclstr)

.stab.index
 *(.stab.index)

.stab.indexstr
 *(.stab.indexstr)

.comment        0x00000000      0x3a8
 *(.comment)
 .comment       0x00000000       0x3c build/debug/production/_ext/1209914024/FSIO.o
                                 0x3d (size before relaxing)
 .comment       0x00000000       0x3d build/debug/production/_ext/1209914024/SD-SPI.o
 .comment       0x00000000       0x3d build/debug/production/_ext/1019771169/SClib.o
 .comment       0x00000000       0x3d build/debug/production/_ext/1019771169/SCpic32.o
 .comment       0x00000000       0x3d build/debug/production/_ext/631258897/usb_function_cdc.o
 .comment       0x00000000       0x3d build/debug/production/_ext/186742988/usb_device.o
 .comment       0x00000000       0x3d build/debug/production/src/indala.o
 .comment       0x00000000       0x3d build/debug/production/src/main.o
 .comment       0x00000000       0x3d build/debug/production/src/psk.o
 .comment       0x00000000       0x3d build/debug/production/src/usb_descriptors.o
 .comment       0x00000000       0x3d build/debug/production/src/util.o
 .comment       0x00000000       0x3d build/debug/production/src/emulate.o
 .comment       0x00000000       0x3d build/debug/production/src/ask.o
 .comment       0x00000000       0x3d build/debug/production/src/fsk.o
 .comment       0x00000000       0x3d build/debug/production/src/clock.o
 .comment       0x00000000       0x3d build/debug/production/src/rwd.o
 .comment       0x00000000       0x3d build/debug/production/src/detect.o
 .comment       0x00000000       0x3d build/debug/production/src/hitagcrypto.o
 .comment       0x00000000       0x3d build/debug/production/src/wiegand.o
 .comment       0x00000000       0x3d build/debug/production/src/comms.o
 .comment       0x00000000       0x3d build/debug/production/src/nvm.o
 .comment       0x00000000       0x3d build/debug/production/src/mcp414x.o
 .comment       0x00000000       0x3d build/debug/production/src/spi.o
 .comment       0x00000000       0x3d build/debug/production/src/uart3.o
 .comment       0x00000000       0x3d build/debug/production/src/tags.o
 .comment       0x00000000       0x3d build/debug/production/src/unique.o
 .comment       0x00000000       0x3d build/debug/production/src/led.o
 .comment       0x00000000       0x3d build/debug/production/src/em.o
 .comment       0x00000000       0x3d build/debug/production/src/hid.o
 .comment       0x00000000       0x3d build/debug/production/src/read.o
 .comment       0x00000000       0x3d build/debug/production/src/isr.o
 .comment       0x00000000       0x3d build/debug/production/src/auto.o
 .comment       0x00000000       0x3d build/debug/production/src/fdxb.o
 .comment       0x00000000       0x3d build/debug/production/src/hitag.o
 .comment       0x00000000       0x3d build/debug/production/src/uid.o
 .comment       0x00000000       0x3d build/debug/production/src/login.o
 .comment       0x00000000       0x3d build/debug/production/src/write.o
 .comment       0x00000000       0x3d build/debug/production/src/auth.o
 .comment       0x00000000       0x3d build/debug/production/src/q5.o
 .comment       0x00000000       0x3d build/debug/production/src/vtag.o
 .comment       0x00000000       0x3d build/debug/production/src/config.o
 .comment       0x00000000       0x3d build/debug/production/src/select.o
 .comment       0x00000000       0x3d build/debug/production/src/sdcard.o
 .comment       0x00000000       0x3d build/debug/production/src/debug_pins.o
 .comment       0x00000000       0x3d build/debug/production/src/awid.o
 .comment       0x00000000       0x3d build/debug/production/src/analogue.o
 .comment       0x00000000       0x3d build/debug/production/src/iso7816.o
 .comment       0x00000000       0x3d build/debug/production/src/t55x7.o
 .comment       0x00000000       0x3d build/debug/production/src/sniff.o
 .comment       0x0000003c       0x3c /opt/microchip/xc32/v1.33/pic32mx/lib/libmchp_peripheral_32MX795F512L.a(soft_reset_lib.o)
                                 0x3d (size before relaxing)
 .comment       0x00000000       0x3d /opt/microchip/xc32/v1.33/pic32mx/lib/libmchp_peripheral_32MX795F512L.a(pcache.o)
 .comment       0x00000000       0x3d /opt/microchip/xc32/v1.33/pic32mx/lib/libmchp_peripheral_32MX795F512L.a(int_configure_system_lib.o)
 .comment       0x00000000       0x3d /opt/microchip/xc32/v1.33/pic32mx/lib/libmchp_peripheral_32MX795F512L.a(int_enable_interrupts_lib.o)
 .comment       0x00000000       0x3d /opt/microchip/xc32/v1.33/pic32mx/lib/libmchp_peripheral_32MX795F512L.a(int_disable_interrupts_lib.o)
 .comment       0x00000000       0x3d /opt/microchip/xc32/v1.33/pic32mx/lib/libmchp_peripheral_32MX795F512L.a(int_restore_interrupts_lib.o)
 .comment       0x00000000       0x3d /opt/microchip/xc32/v1.33/pic32mx/lib/libmchp_peripheral_32MX795F512L.a(int_enable_mv_int_lib.o)
 .comment       0x00000000       0x3d /opt/microchip/xc32/v1.33/pic32mx/lib/libmchp_peripheral_32MX795F512L.a(int_tbl_lib.o)
 .comment       0x00000000       0x3d /opt/microchip/xc32/v1.33/pic32mx/lib/libmchp_peripheral_32MX795F512L.a(spi_chn_close_lib.o)
 .comment       0x00000000       0x3d /opt/microchip/xc32/v1.33/pic32mx/lib/libmchp_peripheral_32MX795F512L.a(spi_chn_open_lib.o)
 .comment       0x00000000       0x3d /opt/microchip/xc32/v1.33/pic32mx/lib/libmchp_peripheral_32MX795F512L.a(spi_io_tbl_libp.o)
 .comment       0x00000000       0x3d /opt/microchip/xc32/v1.33/pic32mx/lib/libmchp_peripheral_32MX795F512L.a(spi_map_tbl_libp.o)
 .comment       0x00000000       0x3d /opt/microchip/xc32/v1.33/pic32mx/lib/libmchp_peripheral_32MX795F512L.a(spi_getc_spi1_lib_legacy.o)
 .comment       0x00000000       0x3d /opt/microchip/xc32/v1.33/pic32mx/lib/libmchp_peripheral_32MX795F512L.a(spi_open_spi1_lib_legacy.o)
 .comment       0x00000000       0x3d /opt/microchip/xc32/v1.33/pic32mx/lib/libmchp_peripheral_32MX795F512L.a(spi_brg_tbl_lib_legacy.o)
 .comment       0x00000000       0x3d /opt/microchip/xc32/v1.33/pic32mx/lib/libmchp_peripheral_32MX795F512L.a(nvm_erase_page_lib.o)
 .comment       0x00000000       0x3d /opt/microchip/xc32/v1.33/pic32mx/lib/libmchp_peripheral_32MX795F512L.a(nvm_operation_lib.o)
 .comment       0x00000000       0x3d /opt/microchip/xc32/v1.33/pic32mx/lib/libmchp_peripheral_32MX795F512L.a(nvm_program_lib.o)
 .comment       0x00000000       0x3d /opt/microchip/xc32/v1.33/pic32mx/lib/libmchp_peripheral_32MX795F512L.a(nvm_write_row_lib.o)
 .comment       0x00000000       0x3d /opt/microchip/xc32/v1.33/pic32mx/lib/libmchp_peripheral_32MX795F512L.a(port_reset_pins_lib.o)
 .comment       0x00000000       0x3d /opt/microchip/xc32/v1.33/pic32mx/lib/libmchp_peripheral_32MX795F512L.a(port_set_pins_digital_in_lib.o)
 .comment       0x00000000       0x3d /opt/microchip/xc32/v1.33/pic32mx/lib/libmchp_peripheral_32MX795F512L.a(port_set_pins_digital_out_lib.o)
 .comment       0x00000000       0x3d /opt/microchip/xc32/v1.33/pic32mx/lib/libmchp_peripheral_32MX795F512L.a(_ports_tbl_libp.o)
 .comment       0x00000000       0x3d /opt/microchip/xc32/v1.33/bin/bin/../../lib/gcc/pic32mx/4.5.2/libgcc.a(_udivdi3.o)
 .comment       0x00000078       0x18 /opt/microchip/xc32/v1.33/bin/bin/../../lib/gcc/pic32mx/4.5.2/../../../../pic32mx/lib/libpic32.a(memcmp.o)
                                 0x19 (size before relaxing)
 .comment       0x00000090       0x18 /opt/microchip/xc32/v1.33/bin/bin/../../lib/gcc/pic32mx/4.5.2/../../../../pic32mx/lib/libpic32.a(memset.o)
                                 0x19 (size before relaxing)
 .comment       0x000000a8       0x55 /opt/microchip/xc32/v1.33/bin/bin/../../lib/gcc/pic32mx/4.5.2/../../../../pic32mx/lib/libpic32.a(strcmp.o)
                                 0x56 (size before relaxing)
 .comment       0x000000fd       0x19 /opt/microchip/xc32/v1.33/bin/bin/../../lib/gcc/pic32mx/4.5.2/../../../../pic32mx/lib/libpic32.a(strcpy.o)
                                 0x1a (size before relaxing)
 .comment       0x00000116       0x19 /opt/microchip/xc32/v1.33/bin/bin/../../lib/gcc/pic32mx/4.5.2/../../../../pic32mx/lib/libpic32.a(strlen.o)
                                 0x1a (size before relaxing)
 .comment       0x00000000       0x3d /opt/microchip/xc32/v1.33/bin/bin/../../lib/gcc/pic32mx/4.5.2/../../../../pic32mx/lib/libpic32.a(default-bootstrap-exception-handler.o)
 .comment       0x00000000       0x3d /opt/microchip/xc32/v1.33/bin/bin/../../lib/gcc/pic32mx/4.5.2/../../../../pic32mx/lib/libpic32.a(default-on-reset.o)
 .comment       0x00000000       0x3d /opt/microchip/xc32/v1.33/bin/bin/../../lib/gcc/pic32mx/4.5.2/../../../../pic32mx/lib/libpic32.a(default-on-bootstrap.o)
 .comment       0x00000000       0x3d /opt/microchip/xc32/v1.33/bin/bin/../../lib/gcc/pic32mx/4.5.2/../../../../pic32mx/lib/libpic32.a(default-general-exception-handler.o)
 .comment       0x00000000       0x3d /opt/microchip/xc32/v1.33/bin/bin/../../lib/gcc/pic32mx/4.5.2/../../../../pic32mx/lib/libpic32.a(defaultinterrupt.o)
 .comment       0x0000012f       0x4f /opt/microchip/xc32/v1.33/bin/bin/../../lib/gcc/pic32mx/4.5.2/../../../../pic32mx/lib/libc.a(ctypef.o)
                                 0x8c (size before relaxing)
 .comment       0x00000000       0x3d /opt/microchip/xc32/v1.33/bin/bin/../../lib/gcc/pic32mx/4.5.2/../../../../pic32mx/lib/libc.a(rand.o)
 .comment       0x00000000       0x3d /opt/microchip/xc32/v1.33/bin/bin/../../lib/gcc/pic32mx/4.5.2/../../../../pic32mx/lib/libc.a(strncmp.o)
 .comment       0x00000000       0x3d /opt/microchip/xc32/v1.33/bin/bin/../../lib/gcc/pic32mx/4.5.2/../../../../pic32mx/lib/libc.a(strncpy.o)
 .comment       0x00000000       0x3d /opt/microchip/xc32/v1.33/bin/bin/../../lib/gcc/pic32mx/4.5.2/../../../../pic32mx/lib/libc.a(snprintf_cdnopuxX.eo)
 .comment       0x00000000       0x3d /opt/microchip/xc32/v1.33/bin/bin/../../lib/gcc/pic32mx/4.5.2/../../../../pic32mx/lib/libc.a(snprintf.o)
 .comment       0x00000000       0x3d /opt/microchip/xc32/v1.33/bin/bin/../../lib/gcc/pic32mx/4.5.2/../../../../pic32mx/lib/libc.a(sprintf_cdnopuxX.eo)
 .comment       0x00000000       0x3d /opt/microchip/xc32/v1.33/bin/bin/../../lib/gcc/pic32mx/4.5.2/../../../../pic32mx/lib/libc.a(sprintf.o)
 .comment       0x00000000       0x3d /opt/microchip/xc32/v1.33/bin/bin/../../lib/gcc/pic32mx/4.5.2/../../../../pic32mx/lib/libc.a(sscanf_cdfFnopsuxX.eo)
 .comment       0x00000000       0x3d /opt/microchip/xc32/v1.33/bin/bin/../../lib/gcc/pic32mx/4.5.2/../../../../pic32mx/lib/libc.a(vsnprintf_cdnopuxX.eo)
 .comment       0x00000000       0x3d /opt/microchip/xc32/v1.33/bin/bin/../../lib/gcc/pic32mx/4.5.2/../../../../pic32mx/lib/libc.a(vsnprintf.o)
 .comment       0x0000017e       0x4e /opt/microchip/xc32/v1.33/bin/bin/../../lib/gcc/pic32mx/4.5.2/../../../../pic32mx/lib/libc.a(ctype.o)
                                 0x8b (size before relaxing)
 .comment       0x00000000       0x3d /opt/microchip/xc32/v1.33/bin/bin/../../lib/gcc/pic32mx/4.5.2/../../../../pic32mx/lib/libc.a(doprnt_cdnopuxX.eo)
 .comment       0x00000000       0x3d /opt/microchip/xc32/v1.33/bin/bin/../../lib/gcc/pic32mx/4.5.2/../../../../pic32mx/lib/libc.a(doprnt.o)
 .comment       0x00000000       0x3d /opt/microchip/xc32/v1.33/bin/bin/../../lib/gcc/pic32mx/4.5.2/../../../../pic32mx/lib/libc.a(doscan_cdfFnopsuxX.eo)
 .comment       0x00000000       0x3d /opt/microchip/xc32/v1.33/bin/bin/../../lib/gcc/pic32mx/4.5.2/../../../../pic32mx/lib/libc.a(doscan_cdnopuxX.eo)
 .comment       0x00000000       0x3d /opt/microchip/xc32/v1.33/bin/bin/../../lib/gcc/pic32mx/4.5.2/../../../../pic32mx/lib/libc.a(fgetc.o)
 .comment       0x00000000       0x3d /opt/microchip/xc32/v1.33/bin/bin/../../lib/gcc/pic32mx/4.5.2/../../../../pic32mx/lib/libc.a(_fputc_simple.o)
 .comment       0x00000000       0x3d /opt/microchip/xc32/v1.33/bin/bin/../../lib/gcc/pic32mx/4.5.2/../../../../pic32mx/lib/libc.a(atoi.o)
 .comment       0x00000000       0x3d /opt/microchip/xc32/v1.33/bin/bin/../../lib/gcc/pic32mx/4.5.2/../../../../pic32mx/lib/libc.a(powersf.o)
 .comment       0x00000000       0x3d /opt/microchip/xc32/v1.33/bin/bin/../../lib/gcc/pic32mx/4.5.2/../../../../pic32mx/lib/libc.a(strtod.o)
 .comment       0x00000000       0x3d /opt/microchip/xc32/v1.33/bin/bin/../../lib/gcc/pic32mx/4.5.2/../../../../pic32mx/lib/libc.a(strtof.o)
 .comment       0x00000000       0x3d /opt/microchip/xc32/v1.33/bin/bin/../../lib/gcc/pic32mx/4.5.2/../../../../pic32mx/lib/libc.a(ungetc.o)
 .comment       0x00000000       0x3d /opt/microchip/xc32/v1.33/bin/bin/../../lib/gcc/pic32mx/4.5.2/../../../../pic32mx/lib/libc.a(_iob.o)
 .comment       0x00000000       0x3d /opt/microchip/xc32/v1.33/bin/bin/../../lib/gcc/pic32mx/4.5.2/../../../../pic32mx/lib/libc.a(filbuf.o)
 .comment       0x00000000       0x3d /opt/microchip/xc32/v1.33/bin/bin/../../lib/gcc/pic32mx/4.5.2/../../../../pic32mx/lib/libc.a(_flsbuf_simple.o)
 .comment       0x00000000       0x3d /opt/microchip/xc32/v1.33/bin/bin/../../lib/gcc/pic32mx/4.5.2/../../../../pic32mx/lib/libc.a(fflush.o)
 .comment       0x00000000       0x3d /opt/microchip/xc32/v1.33/bin/bin/../../lib/gcc/pic32mx/4.5.2/../../../../pic32mx/lib/libpic32.a(read.o)
 .comment       0x00000000       0x3d /opt/microchip/xc32/v1.33/bin/bin/../../lib/gcc/pic32mx/4.5.2/../../../../pic32mx/lib/libpic32.a(write.o)
 .comment       0x00000000       0x3d /opt/microchip/xc32/v1.33/bin/bin/../../lib/gcc/pic32mx/4.5.2/../../../../pic32mx/lib/libpic32.a(xc32_uart.o)
 .comment       0x00000000       0x3d /opt/microchip/xc32/v1.33/bin/bin/../../lib/gcc/pic32mx/4.5.2/../../../../pic32mx/lib/libpic32.a(_mon_putc.o)
 .comment       0x000001cc       0x9d /opt/microchip/xc32/v1.33/bin/bin/../../lib/gcc/pic32mx/4.5.2/../../../../pic32mx/lib/libm.a(__strtod.o)
                                 0xda (size before relaxing)
 .comment       0x00000269       0x4f /opt/microchip/xc32/v1.33/bin/bin/../../lib/gcc/pic32mx/4.5.2/../../../../pic32mx/lib/libm.a(__strtof.o)
                                 0xda (size before relaxing)
 .comment       0x000002b8       0x50 /opt/microchip/xc32/v1.33/bin/bin/../../lib/gcc/pic32mx/4.5.2/../../../../pic32mx/lib/libe.a(_floatdisf.o)
                                 0xdb (size before relaxing)
 .comment       0x00000308       0x50 /opt/microchip/xc32/v1.33/bin/bin/../../lib/gcc/pic32mx/4.5.2/../../../../pic32mx/lib/libe.a(_ldexp.o)
                                 0xdb (size before relaxing)
 .comment       0x00000358       0x50 /opt/microchip/xc32/v1.33/bin/bin/../../lib/gcc/pic32mx/4.5.2/../../../../pic32mx/lib/libe.a(_ldexpf.o)
                                 0xdb (size before relaxing)
 .comment       0x00000000       0x3d /opt/microchip/xc32/v1.33/bin/bin/../../lib/gcc/pic32mx/4.5.2/libgcc.a(_lshrdi3.o)
 .comment       0x00000000       0x3d /opt/microchip/xc32/v1.33/bin/bin/../../lib/gcc/pic32mx/4.5.2/libgcc.a(_ashldi3.o)
 .comment       0x00000000       0x3d /opt/microchip/xc32/v1.33/bin/bin/../../lib/gcc/pic32mx/4.5.2/libgcc.a(_floatundisf.o)
 .comment       0x00000000       0x3d /opt/microchip/xc32/v1.33/bin/bin/../../lib/gcc/pic32mx/4.5.2/libgcc.a(_umoddi3.o)
 .comment       0x00000000       0x3d /opt/microchip/xc32/v1.33/bin/bin/../../lib/gcc/pic32mx/4.5.2/libgcc.a(floatunsisf.o)
 .comment       0x00000000       0x3d /opt/microchip/xc32/v1.33/bin/bin/../../lib/gcc/pic32mx/4.5.2/../../../../pic32mx/lib/libc.a(errno.o)

.debug
 *(.debug)

.line
 *(.line)

.debug_srcinfo
 *(.debug_srcinfo)

.debug_sfnames
 *(.debug_sfnames)

.debug_aranges  0x00000000      0xef0
 *(.debug_aranges)
 .debug_aranges
                0x00000000       0x20 build/debug/production/_ext/1209914024/FSIO.o
 .debug_aranges
                0x00000020       0x20 build/debug/production/_ext/1209914024/SD-SPI.o
 .debug_aranges
                0x00000040       0x20 build/debug/production/_ext/1019771169/SClib.o
 .debug_aranges
                0x00000060       0x20 build/debug/production/_ext/1019771169/SCpic32.o
 .debug_aranges
                0x00000080       0x20 build/debug/production/_ext/631258897/usb_function_cdc.o
 .debug_aranges
                0x000000a0       0x20 build/debug/production/_ext/186742988/usb_device.o
 .debug_aranges
                0x000000c0       0x20 build/debug/production/src/indala.o
 .debug_aranges
                0x000000e0       0x20 build/debug/production/src/main.o
 .debug_aranges
                0x00000100       0x20 build/debug/production/src/psk.o
 .debug_aranges
                0x00000120       0x20 build/debug/production/src/usb_descriptors.o
 .debug_aranges
                0x00000140       0x20 build/debug/production/src/util.o
 .debug_aranges
                0x00000160       0x20 build/debug/production/src/emulate.o
 .debug_aranges
                0x00000180       0x20 build/debug/production/src/ask.o
 .debug_aranges
                0x000001a0       0x20 build/debug/production/src/fsk.o
 .debug_aranges
                0x000001c0       0x20 build/debug/production/src/clock.o
 .debug_aranges
                0x000001e0       0x20 build/debug/production/src/rwd.o
 .debug_aranges
                0x00000200       0x20 build/debug/production/src/detect.o
 .debug_aranges
                0x00000220       0x20 build/debug/production/src/hitagcrypto.o
 .debug_aranges
                0x00000240       0x20 build/debug/production/src/wiegand.o
 .debug_aranges
                0x00000260       0x20 build/debug/production/src/comms.o
 .debug_aranges
                0x00000280       0x20 build/debug/production/src/nvm.o
 .debug_aranges
                0x000002a0       0x20 build/debug/production/src/mcp414x.o
 .debug_aranges
                0x000002c0       0x20 build/debug/production/src/spi.o
 .debug_aranges
                0x000002e0       0x20 build/debug/production/src/uart3.o
 .debug_aranges
                0x00000300       0x20 build/debug/production/src/tags.o
 .debug_aranges
                0x00000320       0x20 build/debug/production/src/unique.o
 .debug_aranges
                0x00000340       0x20 build/debug/production/src/led.o
 .debug_aranges
                0x00000360       0x20 build/debug/production/src/em.o
 .debug_aranges
                0x00000380       0x20 build/debug/production/src/hid.o
 .debug_aranges
                0x000003a0       0x20 build/debug/production/src/read.o
 .debug_aranges
                0x000003c0       0x20 build/debug/production/src/isr.o
 .debug_aranges
                0x000003e0       0x20 build/debug/production/src/auto.o
 .debug_aranges
                0x00000400       0x20 build/debug/production/src/fdxb.o
 .debug_aranges
                0x00000420       0x20 build/debug/production/src/hitag.o
 .debug_aranges
                0x00000440       0x20 build/debug/production/src/uid.o
 .debug_aranges
                0x00000460       0x20 build/debug/production/src/login.o
 .debug_aranges
                0x00000480       0x20 build/debug/production/src/write.o
 .debug_aranges
                0x000004a0       0x20 build/debug/production/src/auth.o
 .debug_aranges
                0x000004c0       0x20 build/debug/production/src/q5.o
 .debug_aranges
                0x000004e0       0x20 build/debug/production/src/vtag.o
 .debug_aranges
                0x00000500       0x20 build/debug/production/src/config.o
 .debug_aranges
                0x00000520       0x20 build/debug/production/src/select.o
 .debug_aranges
                0x00000540       0x20 build/debug/production/src/sdcard.o
 .debug_aranges
                0x00000560       0x20 build/debug/production/src/debug_pins.o
 .debug_aranges
                0x00000580       0x20 build/debug/production/src/awid.o
 .debug_aranges
                0x000005a0       0x20 build/debug/production/src/analogue.o
 .debug_aranges
                0x000005c0       0x20 build/debug/production/src/iso7816.o
 .debug_aranges
                0x000005e0       0x20 build/debug/production/src/t55x7.o
 .debug_aranges
                0x00000600       0x20 build/debug/production/src/sniff.o
 .debug_aranges
                0x00000620       0x20 /opt/microchip/xc32/v1.33/pic32mx/lib/libmchp_peripheral_32MX795F512L.a(soft_reset_lib.o)
 .debug_aranges
                0x00000640       0x28 /opt/microchip/xc32/v1.33/pic32mx/lib/libmchp_peripheral_32MX795F512L.a(pcache.o)
 .debug_aranges
                0x00000668       0x20 /opt/microchip/xc32/v1.33/pic32mx/lib/libmchp_peripheral_32MX795F512L.a(int_configure_system_lib.o)
 .debug_aranges
                0x00000688       0x20 /opt/microchip/xc32/v1.33/pic32mx/lib/libmchp_peripheral_32MX795F512L.a(int_enable_interrupts_lib.o)
 .debug_aranges
                0x000006a8       0x20 /opt/microchip/xc32/v1.33/pic32mx/lib/libmchp_peripheral_32MX795F512L.a(int_disable_interrupts_lib.o)
 .debug_aranges
                0x000006c8       0x20 /opt/microchip/xc32/v1.33/pic32mx/lib/libmchp_peripheral_32MX795F512L.a(int_restore_interrupts_lib.o)
 .debug_aranges
                0x000006e8       0x20 /opt/microchip/xc32/v1.33/pic32mx/lib/libmchp_peripheral_32MX795F512L.a(int_enable_mv_int_lib.o)
 .debug_aranges
                0x00000708       0x60 /opt/microchip/xc32/v1.33/pic32mx/lib/libmchp_peripheral_32MX795F512L.a(int_tbl_lib.o)
 .debug_aranges
                0x00000768       0x20 /opt/microchip/xc32/v1.33/pic32mx/lib/libmchp_peripheral_32MX795F512L.a(spi_chn_close_lib.o)
 .debug_aranges
                0x00000788       0x20 /opt/microchip/xc32/v1.33/pic32mx/lib/libmchp_peripheral_32MX795F512L.a(spi_chn_open_lib.o)
 .debug_aranges
                0x000007a8       0x20 /opt/microchip/xc32/v1.33/pic32mx/lib/libmchp_peripheral_32MX795F512L.a(spi_getc_spi1_lib_legacy.o)
 .debug_aranges
                0x000007c8       0x20 /opt/microchip/xc32/v1.33/pic32mx/lib/libmchp_peripheral_32MX795F512L.a(spi_open_spi1_lib_legacy.o)
 .debug_aranges
                0x000007e8       0x20 /opt/microchip/xc32/v1.33/pic32mx/lib/libmchp_peripheral_32MX795F512L.a(nvm_erase_page_lib.o)
 .debug_aranges
                0x00000808       0x20 /opt/microchip/xc32/v1.33/pic32mx/lib/libmchp_peripheral_32MX795F512L.a(nvm_operation_lib.o)
 .debug_aranges
                0x00000828       0x20 /opt/microchip/xc32/v1.33/pic32mx/lib/libmchp_peripheral_32MX795F512L.a(nvm_program_lib.o)
 .debug_aranges
                0x00000848       0x20 /opt/microchip/xc32/v1.33/pic32mx/lib/libmchp_peripheral_32MX795F512L.a(nvm_write_row_lib.o)
 .debug_aranges
                0x00000868       0x20 /opt/microchip/xc32/v1.33/pic32mx/lib/libmchp_peripheral_32MX795F512L.a(port_reset_pins_lib.o)
 .debug_aranges
                0x00000888       0x20 /opt/microchip/xc32/v1.33/pic32mx/lib/libmchp_peripheral_32MX795F512L.a(port_set_pins_digital_in_lib.o)
 .debug_aranges
                0x000008a8       0x20 /opt/microchip/xc32/v1.33/pic32mx/lib/libmchp_peripheral_32MX795F512L.a(port_set_pins_digital_out_lib.o)
 .debug_aranges
                0x000008c8       0x20 /opt/microchip/xc32/v1.33/bin/bin/../../lib/gcc/pic32mx/4.5.2/libgcc.a(_udivdi3.o)
 .debug_aranges
                0x000008e8       0x20 /opt/microchip/xc32/v1.33/bin/bin/../../lib/gcc/pic32mx/4.5.2/../../../../pic32mx/lib/libpic32.a(default-bootstrap-exception-handler.o)
 .debug_aranges
                0x00000908       0x20 /opt/microchip/xc32/v1.33/bin/bin/../../lib/gcc/pic32mx/4.5.2/../../../../pic32mx/lib/libpic32.a(default-on-reset.o)
 .debug_aranges
                0x00000928       0x20 /opt/microchip/xc32/v1.33/bin/bin/../../lib/gcc/pic32mx/4.5.2/../../../../pic32mx/lib/libpic32.a(default-on-bootstrap.o)
 .debug_aranges
                0x00000948       0x20 /opt/microchip/xc32/v1.33/bin/bin/../../lib/gcc/pic32mx/4.5.2/../../../../pic32mx/lib/libpic32.a(default-general-exception-handler.o)
 .debug_aranges
                0x00000968       0x20 /opt/microchip/xc32/v1.33/bin/bin/../../lib/gcc/pic32mx/4.5.2/../../../../pic32mx/lib/libpic32.a(defaultinterrupt.o)
 .debug_aranges
                0x00000988       0xa0 /opt/microchip/xc32/v1.33/bin/bin/../../lib/gcc/pic32mx/4.5.2/../../../../pic32mx/lib/libc.a(ctypef.o)
 .debug_aranges
                0x00000a28       0x28 /opt/microchip/xc32/v1.33/bin/bin/../../lib/gcc/pic32mx/4.5.2/../../../../pic32mx/lib/libc.a(rand.o)
 .debug_aranges
                0x00000a50       0x20 /opt/microchip/xc32/v1.33/bin/bin/../../lib/gcc/pic32mx/4.5.2/../../../../pic32mx/lib/libc.a(strncmp.o)
 .debug_aranges
                0x00000a70       0x20 /opt/microchip/xc32/v1.33/bin/bin/../../lib/gcc/pic32mx/4.5.2/../../../../pic32mx/lib/libc.a(strncpy.o)
 .debug_aranges
                0x00000a90       0x20 /opt/microchip/xc32/v1.33/bin/bin/../../lib/gcc/pic32mx/4.5.2/../../../../pic32mx/lib/libc.a(snprintf_cdnopuxX.eo)
 .debug_aranges
                0x00000ab0       0x20 /opt/microchip/xc32/v1.33/bin/bin/../../lib/gcc/pic32mx/4.5.2/../../../../pic32mx/lib/libc.a(snprintf.o)
 .debug_aranges
                0x00000ad0       0x20 /opt/microchip/xc32/v1.33/bin/bin/../../lib/gcc/pic32mx/4.5.2/../../../../pic32mx/lib/libc.a(sprintf_cdnopuxX.eo)
 .debug_aranges
                0x00000af0       0x20 /opt/microchip/xc32/v1.33/bin/bin/../../lib/gcc/pic32mx/4.5.2/../../../../pic32mx/lib/libc.a(sprintf.o)
 .debug_aranges
                0x00000b10       0x20 /opt/microchip/xc32/v1.33/bin/bin/../../lib/gcc/pic32mx/4.5.2/../../../../pic32mx/lib/libc.a(sscanf_cdfFnopsuxX.eo)
 .debug_aranges
                0x00000b30       0x20 /opt/microchip/xc32/v1.33/bin/bin/../../lib/gcc/pic32mx/4.5.2/../../../../pic32mx/lib/libc.a(vsnprintf_cdnopuxX.eo)
 .debug_aranges
                0x00000b50       0x20 /opt/microchip/xc32/v1.33/bin/bin/../../lib/gcc/pic32mx/4.5.2/../../../../pic32mx/lib/libc.a(vsnprintf.o)
 .debug_aranges
                0x00000b70       0x20 /opt/microchip/xc32/v1.33/bin/bin/../../lib/gcc/pic32mx/4.5.2/../../../../pic32mx/lib/libc.a(doprnt_cdnopuxX.eo)
 .debug_aranges
                0x00000b90       0x30 /opt/microchip/xc32/v1.33/bin/bin/../../lib/gcc/pic32mx/4.5.2/../../../../pic32mx/lib/libc.a(doprnt.o)
 .debug_aranges
                0x00000bc0       0x30 /opt/microchip/xc32/v1.33/bin/bin/../../lib/gcc/pic32mx/4.5.2/../../../../pic32mx/lib/libc.a(doscan_cdfFnopsuxX.eo)
 .debug_aranges
                0x00000bf0       0x30 /opt/microchip/xc32/v1.33/bin/bin/../../lib/gcc/pic32mx/4.5.2/../../../../pic32mx/lib/libc.a(doscan_cdnopuxX.eo)
 .debug_aranges
                0x00000c20       0x20 /opt/microchip/xc32/v1.33/bin/bin/../../lib/gcc/pic32mx/4.5.2/../../../../pic32mx/lib/libc.a(fgetc.o)
 .debug_aranges
                0x00000c40       0x20 /opt/microchip/xc32/v1.33/bin/bin/../../lib/gcc/pic32mx/4.5.2/../../../../pic32mx/lib/libc.a(_fputc_simple.o)
 .debug_aranges
                0x00000c60       0x20 /opt/microchip/xc32/v1.33/bin/bin/../../lib/gcc/pic32mx/4.5.2/../../../../pic32mx/lib/libc.a(atoi.o)
 .debug_aranges
                0x00000c80       0x28 /opt/microchip/xc32/v1.33/bin/bin/../../lib/gcc/pic32mx/4.5.2/../../../../pic32mx/lib/libc.a(strtod.o)
 .debug_aranges
                0x00000ca8       0x28 /opt/microchip/xc32/v1.33/bin/bin/../../lib/gcc/pic32mx/4.5.2/../../../../pic32mx/lib/libc.a(strtof.o)
 .debug_aranges
                0x00000cd0       0x20 /opt/microchip/xc32/v1.33/bin/bin/../../lib/gcc/pic32mx/4.5.2/../../../../pic32mx/lib/libc.a(ungetc.o)
 .debug_aranges
                0x00000cf0       0x20 /opt/microchip/xc32/v1.33/bin/bin/../../lib/gcc/pic32mx/4.5.2/../../../../pic32mx/lib/libc.a(filbuf.o)
 .debug_aranges
                0x00000d10       0x20 /opt/microchip/xc32/v1.33/bin/bin/../../lib/gcc/pic32mx/4.5.2/../../../../pic32mx/lib/libc.a(_flsbuf_simple.o)
 .debug_aranges
                0x00000d30       0x20 /opt/microchip/xc32/v1.33/bin/bin/../../lib/gcc/pic32mx/4.5.2/../../../../pic32mx/lib/libc.a(fflush.o)
 .debug_aranges
                0x00000d50       0x20 /opt/microchip/xc32/v1.33/bin/bin/../../lib/gcc/pic32mx/4.5.2/../../../../pic32mx/lib/libpic32.a(read.o)
 .debug_aranges
                0x00000d70       0x20 /opt/microchip/xc32/v1.33/bin/bin/../../lib/gcc/pic32mx/4.5.2/../../../../pic32mx/lib/libpic32.a(write.o)
 .debug_aranges
                0x00000d90       0x20 /opt/microchip/xc32/v1.33/bin/bin/../../lib/gcc/pic32mx/4.5.2/../../../../pic32mx/lib/libpic32.a(_mon_putc.o)
 .debug_aranges
                0x00000db0       0x20 /opt/microchip/xc32/v1.33/bin/bin/../../lib/gcc/pic32mx/4.5.2/../../../../pic32mx/lib/libm.a(__strtod.o)
 .debug_aranges
                0x00000dd0       0x20 /opt/microchip/xc32/v1.33/bin/bin/../../lib/gcc/pic32mx/4.5.2/../../../../pic32mx/lib/libm.a(__strtof.o)
 .debug_aranges
                0x00000df0       0x20 /opt/microchip/xc32/v1.33/bin/bin/../../lib/gcc/pic32mx/4.5.2/../../../../pic32mx/lib/libe.a(_floatdisf.o)
 .debug_aranges
                0x00000e10       0x20 /opt/microchip/xc32/v1.33/bin/bin/../../lib/gcc/pic32mx/4.5.2/../../../../pic32mx/lib/libe.a(_ldexp.o)
 .debug_aranges
                0x00000e30       0x20 /opt/microchip/xc32/v1.33/bin/bin/../../lib/gcc/pic32mx/4.5.2/../../../../pic32mx/lib/libe.a(_ldexpf.o)
 .debug_aranges
                0x00000e50       0x20 /opt/microchip/xc32/v1.33/bin/bin/../../lib/gcc/pic32mx/4.5.2/libgcc.a(_lshrdi3.o)
 .debug_aranges
                0x00000e70       0x20 /opt/microchip/xc32/v1.33/bin/bin/../../lib/gcc/pic32mx/4.5.2/libgcc.a(_ashldi3.o)
 .debug_aranges
                0x00000e90       0x20 /opt/microchip/xc32/v1.33/bin/bin/../../lib/gcc/pic32mx/4.5.2/libgcc.a(_floatundisf.o)
 .debug_aranges
                0x00000eb0       0x20 /opt/microchip/xc32/v1.33/bin/bin/../../lib/gcc/pic32mx/4.5.2/libgcc.a(_umoddi3.o)
 .debug_aranges
                0x00000ed0       0x20 /opt/microchip/xc32/v1.33/bin/bin/../../lib/gcc/pic32mx/4.5.2/libgcc.a(floatunsisf.o)

.debug_pubnames
                0x00000000     0x3a2b
 *(.debug_pubnames)
 .debug_pubnames
                0x00000000      0x730 build/debug/production/_ext/1209914024/FSIO.o
 .debug_pubnames
                0x00000730      0x1fc build/debug/production/_ext/1209914024/SD-SPI.o
 .debug_pubnames
                0x0000092c      0x201 build/debug/production/_ext/1019771169/SClib.o
 .debug_pubnames
                0x00000b2d      0x113 build/debug/production/_ext/1019771169/SCpic32.o
 .debug_pubnames
                0x00000c40      0x1b2 build/debug/production/_ext/631258897/usb_function_cdc.o
 .debug_pubnames
                0x00000df2      0x33a build/debug/production/_ext/186742988/usb_device.o
 .debug_pubnames
                0x0000112c       0x82 build/debug/production/src/indala.o
 .debug_pubnames
                0x000011ae      0x406 build/debug/production/src/main.o
 .debug_pubnames
                0x000015b4       0xa5 build/debug/production/src/psk.o
 .debug_pubnames
                0x00001659       0x93 build/debug/production/src/usb_descriptors.o
 .debug_pubnames
                0x000016ec      0x421 build/debug/production/src/util.o
 .debug_pubnames
                0x00001b0d       0x22 build/debug/production/src/emulate.o
 .debug_pubnames
                0x00001b2f       0x9e build/debug/production/src/ask.o
 .debug_pubnames
                0x00001bcd       0xb8 build/debug/production/src/fsk.o
 .debug_pubnames
                0x00001c85       0xf8 build/debug/production/src/clock.o
 .debug_pubnames
                0x00001d7d       0x3c build/debug/production/src/rwd.o
 .debug_pubnames
                0x00001db9       0x2c build/debug/production/src/detect.o
 .debug_pubnames
                0x00001de5       0x79 build/debug/production/src/hitagcrypto.o
 .debug_pubnames
                0x00001e5e       0xf7 build/debug/production/src/wiegand.o
 .debug_pubnames
                0x00001f55       0xf3 build/debug/production/src/comms.o
 .debug_pubnames
                0x00002048       0x65 build/debug/production/src/nvm.o
 .debug_pubnames
                0x000020ad       0xab build/debug/production/src/mcp414x.o
 .debug_pubnames
                0x00002158       0x71 build/debug/production/src/spi.o
 .debug_pubnames
                0x000021c9       0xa2 build/debug/production/src/uart3.o
 .debug_pubnames
                0x0000226b      0x107 build/debug/production/src/tags.o
 .debug_pubnames
                0x00002372       0x7d build/debug/production/src/unique.o
 .debug_pubnames
                0x000023ef       0x50 build/debug/production/src/led.o
 .debug_pubnames
                0x0000243f      0x14f build/debug/production/src/em.o
 .debug_pubnames
                0x0000258e       0x63 build/debug/production/src/hid.o
 .debug_pubnames
                0x000025f1       0x1f build/debug/production/src/read.o
 .debug_pubnames
                0x00002610       0xda build/debug/production/src/isr.o
 .debug_pubnames
                0x000026ea       0x2b build/debug/production/src/auto.o
 .debug_pubnames
                0x00002715       0x73 build/debug/production/src/fdxb.o
 .debug_pubnames
                0x00002788      0x234 build/debug/production/src/hitag.o
 .debug_pubnames
                0x000029bc       0x50 build/debug/production/src/uid.o
 .debug_pubnames
                0x00002a0c       0x20 build/debug/production/src/login.o
 .debug_pubnames
                0x00002a2c       0x20 build/debug/production/src/write.o
 .debug_pubnames
                0x00002a4c       0x1f build/debug/production/src/auth.o
 .debug_pubnames
                0x00002a6b      0x10b build/debug/production/src/q5.o
 .debug_pubnames
                0x00002b76       0xcc build/debug/production/src/vtag.o
 .debug_pubnames
                0x00002c42       0x90 build/debug/production/src/config.o
 .debug_pubnames
                0x00002cd2       0x21 build/debug/production/src/select.o
 .debug_pubnames
                0x00002cf3       0x22 build/debug/production/src/sdcard.o
 .debug_pubnames
                0x00002d15       0x69 build/debug/production/src/debug_pins.o
 .debug_pubnames
                0x00002d7e       0x67 build/debug/production/src/awid.o
 .debug_pubnames
                0x00002de5       0x5f build/debug/production/src/analogue.o
 .debug_pubnames
                0x00002e44       0x86 build/debug/production/src/iso7816.o
 .debug_pubnames
                0x00002eca      0x10a build/debug/production/src/t55x7.o
 .debug_pubnames
                0x00002fd4       0x46 build/debug/production/src/sniff.o
 .debug_pubnames
                0x0000301a       0x20 /opt/microchip/xc32/v1.33/pic32mx/lib/libmchp_peripheral_32MX795F512L.a(soft_reset_lib.o)
 .debug_pubnames
                0x0000303a       0x3b /opt/microchip/xc32/v1.33/pic32mx/lib/libmchp_peripheral_32MX795F512L.a(pcache.o)
 .debug_pubnames
                0x00003075       0x29 /opt/microchip/xc32/v1.33/pic32mx/lib/libmchp_peripheral_32MX795F512L.a(int_configure_system_lib.o)
 .debug_pubnames
                0x0000309e       0x2a /opt/microchip/xc32/v1.33/pic32mx/lib/libmchp_peripheral_32MX795F512L.a(int_enable_interrupts_lib.o)
 .debug_pubnames
                0x000030c8       0x2b /opt/microchip/xc32/v1.33/pic32mx/lib/libmchp_peripheral_32MX795F512L.a(int_disable_interrupts_lib.o)
 .debug_pubnames
                0x000030f3       0x2b /opt/microchip/xc32/v1.33/pic32mx/lib/libmchp_peripheral_32MX795F512L.a(int_restore_interrupts_lib.o)
 .debug_pubnames
                0x0000311e       0x36 /opt/microchip/xc32/v1.33/pic32mx/lib/libmchp_peripheral_32MX795F512L.a(int_enable_mv_int_lib.o)
 .debug_pubnames
                0x00003154       0xca /opt/microchip/xc32/v1.33/pic32mx/lib/libmchp_peripheral_32MX795F512L.a(int_tbl_lib.o)
 .debug_pubnames
                0x0000321e       0x22 /opt/microchip/xc32/v1.33/pic32mx/lib/libmchp_peripheral_32MX795F512L.a(spi_chn_close_lib.o)
 .debug_pubnames
                0x00003240       0x21 /opt/microchip/xc32/v1.33/pic32mx/lib/libmchp_peripheral_32MX795F512L.a(spi_chn_open_lib.o)
 .debug_pubnames
                0x00003261       0x1f /opt/microchip/xc32/v1.33/pic32mx/lib/libmchp_peripheral_32MX795F512L.a(spi_getc_spi1_lib_legacy.o)
 .debug_pubnames
                0x00003280       0x1f /opt/microchip/xc32/v1.33/pic32mx/lib/libmchp_peripheral_32MX795F512L.a(spi_open_spi1_lib_legacy.o)
 .debug_pubnames
                0x0000329f       0x23 /opt/microchip/xc32/v1.33/pic32mx/lib/libmchp_peripheral_32MX795F512L.a(nvm_erase_page_lib.o)
 .debug_pubnames
                0x000032c2       0x24 /opt/microchip/xc32/v1.33/pic32mx/lib/libmchp_peripheral_32MX795F512L.a(nvm_operation_lib.o)
 .debug_pubnames
                0x000032e6       0x21 /opt/microchip/xc32/v1.33/pic32mx/lib/libmchp_peripheral_32MX795F512L.a(nvm_program_lib.o)
 .debug_pubnames
                0x00003307       0x22 /opt/microchip/xc32/v1.33/pic32mx/lib/libmchp_peripheral_32MX795F512L.a(nvm_write_row_lib.o)
 .debug_pubnames
                0x00003329       0x24 /opt/microchip/xc32/v1.33/pic32mx/lib/libmchp_peripheral_32MX795F512L.a(port_reset_pins_lib.o)
 .debug_pubnames
                0x0000334d       0x2b /opt/microchip/xc32/v1.33/pic32mx/lib/libmchp_peripheral_32MX795F512L.a(port_set_pins_digital_in_lib.o)
 .debug_pubnames
                0x00003378       0x2c /opt/microchip/xc32/v1.33/pic32mx/lib/libmchp_peripheral_32MX795F512L.a(port_set_pins_digital_out_lib.o)
 .debug_pubnames
                0x000033a4       0x20 /opt/microchip/xc32/v1.33/bin/bin/../../lib/gcc/pic32mx/4.5.2/libgcc.a(_udivdi3.o)
 .debug_pubnames
                0x000033c4       0x33 /opt/microchip/xc32/v1.33/bin/bin/../../lib/gcc/pic32mx/4.5.2/../../../../pic32mx/lib/libpic32.a(default-bootstrap-exception-handler.o)
 .debug_pubnames
                0x000033f7       0x20 /opt/microchip/xc32/v1.33/bin/bin/../../lib/gcc/pic32mx/4.5.2/../../../../pic32mx/lib/libpic32.a(default-on-reset.o)
 .debug_pubnames
                0x00003417       0x24 /opt/microchip/xc32/v1.33/bin/bin/../../lib/gcc/pic32mx/4.5.2/../../../../pic32mx/lib/libpic32.a(default-on-bootstrap.o)
 .debug_pubnames
                0x0000343b       0x31 /opt/microchip/xc32/v1.33/bin/bin/../../lib/gcc/pic32mx/4.5.2/../../../../pic32mx/lib/libpic32.a(default-general-exception-handler.o)
 .debug_pubnames
                0x0000346c       0x28 /opt/microchip/xc32/v1.33/bin/bin/../../lib/gcc/pic32mx/4.5.2/../../../../pic32mx/lib/libpic32.a(defaultinterrupt.o)
 .debug_pubnames
                0x00003494       0xe1 /opt/microchip/xc32/v1.33/bin/bin/../../lib/gcc/pic32mx/4.5.2/../../../../pic32mx/lib/libc.a(ctypef.o)
 .debug_pubnames
                0x00003575       0x25 /opt/microchip/xc32/v1.33/bin/bin/../../lib/gcc/pic32mx/4.5.2/../../../../pic32mx/lib/libc.a(rand.o)
 .debug_pubnames
                0x0000359a       0x1e /opt/microchip/xc32/v1.33/bin/bin/../../lib/gcc/pic32mx/4.5.2/../../../../pic32mx/lib/libc.a(strncmp.o)
 .debug_pubnames
                0x000035b8       0x1e /opt/microchip/xc32/v1.33/bin/bin/../../lib/gcc/pic32mx/4.5.2/../../../../pic32mx/lib/libc.a(strncpy.o)
 .debug_pubnames
                0x000035d6       0x29 /opt/microchip/xc32/v1.33/bin/bin/../../lib/gcc/pic32mx/4.5.2/../../../../pic32mx/lib/libc.a(snprintf_cdnopuxX.eo)
 .debug_pubnames
                0x000035ff       0x1f /opt/microchip/xc32/v1.33/bin/bin/../../lib/gcc/pic32mx/4.5.2/../../../../pic32mx/lib/libc.a(snprintf.o)
 .debug_pubnames
                0x0000361e       0x28 /opt/microchip/xc32/v1.33/bin/bin/../../lib/gcc/pic32mx/4.5.2/../../../../pic32mx/lib/libc.a(sprintf_cdnopuxX.eo)
 .debug_pubnames
                0x00003646       0x1e /opt/microchip/xc32/v1.33/bin/bin/../../lib/gcc/pic32mx/4.5.2/../../../../pic32mx/lib/libc.a(sprintf.o)
 .debug_pubnames
                0x00003664       0x2a /opt/microchip/xc32/v1.33/bin/bin/../../lib/gcc/pic32mx/4.5.2/../../../../pic32mx/lib/libc.a(sscanf_cdfFnopsuxX.eo)
 .debug_pubnames
                0x0000368e       0x2a /opt/microchip/xc32/v1.33/bin/bin/../../lib/gcc/pic32mx/4.5.2/../../../../pic32mx/lib/libc.a(vsnprintf_cdnopuxX.eo)
 .debug_pubnames
                0x000036b8       0x20 /opt/microchip/xc32/v1.33/bin/bin/../../lib/gcc/pic32mx/4.5.2/../../../../pic32mx/lib/libc.a(vsnprintf.o)
 .debug_pubnames
                0x000036d8       0x29 /opt/microchip/xc32/v1.33/bin/bin/../../lib/gcc/pic32mx/4.5.2/../../../../pic32mx/lib/libc.a(doprnt_cdnopuxX.eo)
 .debug_pubnames
                0x00003701       0x1f /opt/microchip/xc32/v1.33/bin/bin/../../lib/gcc/pic32mx/4.5.2/../../../../pic32mx/lib/libc.a(doprnt.o)
 .debug_pubnames
                0x00003720       0x2b /opt/microchip/xc32/v1.33/bin/bin/../../lib/gcc/pic32mx/4.5.2/../../../../pic32mx/lib/libc.a(doscan_cdfFnopsuxX.eo)
 .debug_pubnames
                0x0000374b       0x28 /opt/microchip/xc32/v1.33/bin/bin/../../lib/gcc/pic32mx/4.5.2/../../../../pic32mx/lib/libc.a(doscan_cdnopuxX.eo)
 .debug_pubnames
                0x00003773       0x1c /opt/microchip/xc32/v1.33/bin/bin/../../lib/gcc/pic32mx/4.5.2/../../../../pic32mx/lib/libc.a(fgetc.o)
 .debug_pubnames
                0x0000378f       0x1c /opt/microchip/xc32/v1.33/bin/bin/../../lib/gcc/pic32mx/4.5.2/../../../../pic32mx/lib/libc.a(_fputc_simple.o)
 .debug_pubnames
                0x000037ab       0x1b /opt/microchip/xc32/v1.33/bin/bin/../../lib/gcc/pic32mx/4.5.2/../../../../pic32mx/lib/libc.a(atoi.o)
 .debug_pubnames
                0x000037c6       0x2a /opt/microchip/xc32/v1.33/bin/bin/../../lib/gcc/pic32mx/4.5.2/../../../../pic32mx/lib/libc.a(strtod.o)
 .debug_pubnames
                0x000037f0       0x29 /opt/microchip/xc32/v1.33/bin/bin/../../lib/gcc/pic32mx/4.5.2/../../../../pic32mx/lib/libc.a(strtof.o)
 .debug_pubnames
                0x00003819       0x1d /opt/microchip/xc32/v1.33/bin/bin/../../lib/gcc/pic32mx/4.5.2/../../../../pic32mx/lib/libc.a(ungetc.o)
 .debug_pubnames
                0x00003836       0x1e /opt/microchip/xc32/v1.33/bin/bin/../../lib/gcc/pic32mx/4.5.2/../../../../pic32mx/lib/libc.a(filbuf.o)
 .debug_pubnames
                0x00003854       0x1e /opt/microchip/xc32/v1.33/bin/bin/../../lib/gcc/pic32mx/4.5.2/../../../../pic32mx/lib/libc.a(_flsbuf_simple.o)
 .debug_pubnames
                0x00003872       0x1d /opt/microchip/xc32/v1.33/bin/bin/../../lib/gcc/pic32mx/4.5.2/../../../../pic32mx/lib/libc.a(fflush.o)
 .debug_pubnames
                0x0000388f       0x1b /opt/microchip/xc32/v1.33/bin/bin/../../lib/gcc/pic32mx/4.5.2/../../../../pic32mx/lib/libpic32.a(read.o)
 .debug_pubnames
                0x000038aa       0x1c /opt/microchip/xc32/v1.33/bin/bin/../../lib/gcc/pic32mx/4.5.2/../../../../pic32mx/lib/libpic32.a(write.o)
 .debug_pubnames
                0x000038c6       0x20 /opt/microchip/xc32/v1.33/bin/bin/../../lib/gcc/pic32mx/4.5.2/../../../../pic32mx/lib/libpic32.a(_mon_putc.o)
 .debug_pubnames
                0x000038e6       0x1f /opt/microchip/xc32/v1.33/bin/bin/../../lib/gcc/pic32mx/4.5.2/../../../../pic32mx/lib/libm.a(__strtod.o)
 .debug_pubnames
                0x00003905       0x1f /opt/microchip/xc32/v1.33/bin/bin/../../lib/gcc/pic32mx/4.5.2/../../../../pic32mx/lib/libm.a(__strtof.o)
 .debug_pubnames
                0x00003924       0x22 /opt/microchip/xc32/v1.33/bin/bin/../../lib/gcc/pic32mx/4.5.2/../../../../pic32mx/lib/libe.a(_floatdisf.o)
 .debug_pubnames
                0x00003946       0x1e /opt/microchip/xc32/v1.33/bin/bin/../../lib/gcc/pic32mx/4.5.2/../../../../pic32mx/lib/libe.a(_ldexp.o)
 .debug_pubnames
                0x00003964       0x1f /opt/microchip/xc32/v1.33/bin/bin/../../lib/gcc/pic32mx/4.5.2/../../../../pic32mx/lib/libe.a(_ldexpf.o)
 .debug_pubnames
                0x00003983       0x20 /opt/microchip/xc32/v1.33/bin/bin/../../lib/gcc/pic32mx/4.5.2/libgcc.a(_lshrdi3.o)
 .debug_pubnames
                0x000039a3       0x20 /opt/microchip/xc32/v1.33/bin/bin/../../lib/gcc/pic32mx/4.5.2/libgcc.a(_ashldi3.o)
 .debug_pubnames
                0x000039c3       0x24 /opt/microchip/xc32/v1.33/bin/bin/../../lib/gcc/pic32mx/4.5.2/libgcc.a(_floatundisf.o)
 .debug_pubnames
                0x000039e7       0x20 /opt/microchip/xc32/v1.33/bin/bin/../../lib/gcc/pic32mx/4.5.2/libgcc.a(_umoddi3.o)
 .debug_pubnames
                0x00003a07       0x24 /opt/microchip/xc32/v1.33/bin/bin/../../lib/gcc/pic32mx/4.5.2/libgcc.a(floatunsisf.o)

.debug_info     0x00000000    0x60f38
 *(.debug_info .gnu.linkonce.wi.*)
 .debug_info    0x00000000     0x582e build/debug/production/_ext/1209914024/FSIO.o
 .debug_info    0x0000582e     0x2dd4 build/debug/production/_ext/1209914024/SD-SPI.o
 .debug_info    0x00008602     0x226a build/debug/production/_ext/1019771169/SClib.o
 .debug_info    0x0000a86c     0x31a8 build/debug/production/_ext/1019771169/SCpic32.o
 .debug_info    0x0000da14     0x29c5 build/debug/production/_ext/631258897/usb_function_cdc.o
 .debug_info    0x000103d9     0x3c28 build/debug/production/_ext/186742988/usb_device.o
 .debug_info    0x00014001     0x17cf build/debug/production/src/indala.o
 .debug_info    0x000157d0     0x52e9 build/debug/production/src/main.o
 .debug_info    0x0001aab9     0x221e build/debug/production/src/psk.o
 .debug_info    0x0001ccd7     0x191c build/debug/production/src/usb_descriptors.o
 .debug_info    0x0001e5f3     0x2a15 build/debug/production/src/util.o
 .debug_info    0x00021008     0x156a build/debug/production/src/emulate.o
 .debug_info    0x00022572     0x2121 build/debug/production/src/ask.o
 .debug_info    0x00024693     0x223b build/debug/production/src/fsk.o
 .debug_info    0x000268ce     0x257c build/debug/production/src/clock.o
 .debug_info    0x00028e4a     0x1949 build/debug/production/src/rwd.o
 .debug_info    0x0002a793     0x17cb build/debug/production/src/detect.o
 .debug_info    0x0002bf5e     0x1518 build/debug/production/src/hitagcrypto.o
 .debug_info    0x0002d476     0x21c7 build/debug/production/src/wiegand.o
 .debug_info    0x0002f63d     0x1ae1 build/debug/production/src/comms.o
 .debug_info    0x0003111e     0x169b build/debug/production/src/nvm.o
 .debug_info    0x000327b9     0x1436 build/debug/production/src/mcp414x.o
 .debug_info    0x00033bef     0x17e2 build/debug/production/src/spi.o
 .debug_info    0x000353d1     0x1dd4 build/debug/production/src/uart3.o
 .debug_info    0x000371a5     0x19c3 build/debug/production/src/tags.o
 .debug_info    0x00038b68     0x1332 build/debug/production/src/unique.o
 .debug_info    0x00039e9a     0x186b build/debug/production/src/led.o
 .debug_info    0x0003b705     0x1ef0 build/debug/production/src/em.o
 .debug_info    0x0003d5f5     0x133a build/debug/production/src/hid.o
 .debug_info    0x0003e92f     0x150c build/debug/production/src/read.o
 .debug_info    0x0003fe3b     0x2091 build/debug/production/src/isr.o
 .debug_info    0x00041ecc     0x164a build/debug/production/src/auto.o
 .debug_info    0x00043516     0x1416 build/debug/production/src/fdxb.o
 .debug_info    0x0004492c     0x20cc build/debug/production/src/hitag.o
 .debug_info    0x000469f8     0x1646 build/debug/production/src/uid.o
 .debug_info    0x0004803e     0x14f0 build/debug/production/src/login.o
 .debug_info    0x0004952e     0x1530 build/debug/production/src/write.o
 .debug_info    0x0004aa5e     0x1516 build/debug/production/src/auth.o
 .debug_info    0x0004bf74     0x1ce7 build/debug/production/src/q5.o
 .debug_info    0x0004dc5b     0x1aa7 build/debug/production/src/vtag.o
 .debug_info    0x0004f702     0x135d build/debug/production/src/config.o
 .debug_info    0x00050a5f     0x1524 build/debug/production/src/select.o
 .debug_info    0x00051f83     0x1325 build/debug/production/src/sdcard.o
 .debug_info    0x000532a8     0x1569 build/debug/production/src/debug_pins.o
 .debug_info    0x00054811     0x135f build/debug/production/src/awid.o
 .debug_info    0x00055b70     0x21cd build/debug/production/src/analogue.o
 .debug_info    0x00057d3d     0x1494 build/debug/production/src/iso7816.o
 .debug_info    0x000591d1     0x1bbf build/debug/production/src/t55x7.o
 .debug_info    0x0005ad90     0x1cab build/debug/production/src/sniff.o
 .debug_info    0x0005ca3b       0xae /opt/microchip/xc32/v1.33/pic32mx/lib/libmchp_peripheral_32MX795F512L.a(soft_reset_lib.o)
 .debug_info    0x0005cae9       0xbb /opt/microchip/xc32/v1.33/pic32mx/lib/libmchp_peripheral_32MX795F512L.a(pcache.o)
 .debug_info    0x0005cba4       0xae /opt/microchip/xc32/v1.33/pic32mx/lib/libmchp_peripheral_32MX795F512L.a(int_configure_system_lib.o)
 .debug_info    0x0005cc52       0xb0 /opt/microchip/xc32/v1.33/pic32mx/lib/libmchp_peripheral_32MX795F512L.a(int_enable_interrupts_lib.o)
 .debug_info    0x0005cd02       0xb2 /opt/microchip/xc32/v1.33/pic32mx/lib/libmchp_peripheral_32MX795F512L.a(int_disable_interrupts_lib.o)
 .debug_info    0x0005cdb4       0xb2 /opt/microchip/xc32/v1.33/pic32mx/lib/libmchp_peripheral_32MX795F512L.a(int_restore_interrupts_lib.o)
 .debug_info    0x0005ce66       0xb8 /opt/microchip/xc32/v1.33/pic32mx/lib/libmchp_peripheral_32MX795F512L.a(int_enable_mv_int_lib.o)
 .debug_info    0x0005cf1e      0x192 /opt/microchip/xc32/v1.33/pic32mx/lib/libmchp_peripheral_32MX795F512L.a(int_tbl_lib.o)
 .debug_info    0x0005d0b0       0xa0 /opt/microchip/xc32/v1.33/pic32mx/lib/libmchp_peripheral_32MX795F512L.a(spi_chn_close_lib.o)
 .debug_info    0x0005d150       0x9e /opt/microchip/xc32/v1.33/pic32mx/lib/libmchp_peripheral_32MX795F512L.a(spi_chn_open_lib.o)
 .debug_info    0x0005d1ee        0x0 /opt/microchip/xc32/v1.33/pic32mx/lib/libmchp_peripheral_32MX795F512L.a(spi_io_tbl_libp.o)
 .debug_info    0x0005d1ee        0x0 /opt/microchip/xc32/v1.33/pic32mx/lib/libmchp_peripheral_32MX795F512L.a(spi_map_tbl_libp.o)
 .debug_info    0x0005d1ee       0xa4 /opt/microchip/xc32/v1.33/pic32mx/lib/libmchp_peripheral_32MX795F512L.a(spi_getc_spi1_lib_legacy.o)
 .debug_info    0x0005d292       0xa4 /opt/microchip/xc32/v1.33/pic32mx/lib/libmchp_peripheral_32MX795F512L.a(spi_open_spi1_lib_legacy.o)
 .debug_info    0x0005d336        0x0 /opt/microchip/xc32/v1.33/pic32mx/lib/libmchp_peripheral_32MX795F512L.a(spi_brg_tbl_lib_legacy.o)
 .debug_info    0x0005d336       0xa2 /opt/microchip/xc32/v1.33/pic32mx/lib/libmchp_peripheral_32MX795F512L.a(nvm_erase_page_lib.o)
 .debug_info    0x0005d3d8       0xc3 /opt/microchip/xc32/v1.33/pic32mx/lib/libmchp_peripheral_32MX795F512L.a(nvm_operation_lib.o)
 .debug_info    0x0005d49b       0x9d /opt/microchip/xc32/v1.33/pic32mx/lib/libmchp_peripheral_32MX795F512L.a(nvm_program_lib.o)
 .debug_info    0x0005d538       0xa0 /opt/microchip/xc32/v1.33/pic32mx/lib/libmchp_peripheral_32MX795F512L.a(nvm_write_row_lib.o)
 .debug_info    0x0005d5d8       0xa6 /opt/microchip/xc32/v1.33/pic32mx/lib/libmchp_peripheral_32MX795F512L.a(port_reset_pins_lib.o)
 .debug_info    0x0005d67e       0xb6 /opt/microchip/xc32/v1.33/pic32mx/lib/libmchp_peripheral_32MX795F512L.a(port_set_pins_digital_in_lib.o)
 .debug_info    0x0005d734       0xb8 /opt/microchip/xc32/v1.33/pic32mx/lib/libmchp_peripheral_32MX795F512L.a(port_set_pins_digital_out_lib.o)
 .debug_info    0x0005d7ec        0x0 /opt/microchip/xc32/v1.33/pic32mx/lib/libmchp_peripheral_32MX795F512L.a(_ports_tbl_libp.o)
 .debug_info    0x0005d7ec      0x782 /opt/microchip/xc32/v1.33/bin/bin/../../lib/gcc/pic32mx/4.5.2/libgcc.a(_udivdi3.o)
 .debug_info    0x0005df6e       0xe2 /opt/microchip/xc32/v1.33/bin/bin/../../lib/gcc/pic32mx/4.5.2/../../../../pic32mx/lib/libpic32.a(default-bootstrap-exception-handler.o)
 .debug_info    0x0005e050       0xbc /opt/microchip/xc32/v1.33/bin/bin/../../lib/gcc/pic32mx/4.5.2/../../../../pic32mx/lib/libpic32.a(default-on-reset.o)
 .debug_info    0x0005e10c       0xc4 /opt/microchip/xc32/v1.33/bin/bin/../../lib/gcc/pic32mx/4.5.2/../../../../pic32mx/lib/libpic32.a(default-on-bootstrap.o)
 .debug_info    0x0005e1d0       0xde /opt/microchip/xc32/v1.33/bin/bin/../../lib/gcc/pic32mx/4.5.2/../../../../pic32mx/lib/libpic32.a(default-general-exception-handler.o)
 .debug_info    0x0005e2ae       0xd6 /opt/microchip/xc32/v1.33/bin/bin/../../lib/gcc/pic32mx/4.5.2/../../../../pic32mx/lib/libpic32.a(defaultinterrupt.o)
 .debug_info    0x0005e384      0x219 /opt/microchip/xc32/v1.33/bin/bin/../../lib/gcc/pic32mx/4.5.2/../../../../pic32mx/lib/libc.a(ctypef.o)
 .debug_info    0x0005e59d       0xcb /opt/microchip/xc32/v1.33/bin/bin/../../lib/gcc/pic32mx/4.5.2/../../../../pic32mx/lib/libc.a(rand.o)
 .debug_info    0x0005e668       0xb7 /opt/microchip/xc32/v1.33/bin/bin/../../lib/gcc/pic32mx/4.5.2/../../../../pic32mx/lib/libc.a(strncmp.o)
 .debug_info    0x0005e71f       0xb7 /opt/microchip/xc32/v1.33/bin/bin/../../lib/gcc/pic32mx/4.5.2/../../../../pic32mx/lib/libc.a(strncpy.o)
 .debug_info    0x0005e7d6       0xc3 /opt/microchip/xc32/v1.33/bin/bin/../../lib/gcc/pic32mx/4.5.2/../../../../pic32mx/lib/libc.a(snprintf_cdnopuxX.eo)
 .debug_info    0x0005e899       0xb9 /opt/microchip/xc32/v1.33/bin/bin/../../lib/gcc/pic32mx/4.5.2/../../../../pic32mx/lib/libc.a(snprintf.o)
 .debug_info    0x0005e952       0xc1 /opt/microchip/xc32/v1.33/bin/bin/../../lib/gcc/pic32mx/4.5.2/../../../../pic32mx/lib/libc.a(sprintf_cdnopuxX.eo)
 .debug_info    0x0005ea13       0xb7 /opt/microchip/xc32/v1.33/bin/bin/../../lib/gcc/pic32mx/4.5.2/../../../../pic32mx/lib/libc.a(sprintf.o)
 .debug_info    0x0005eaca       0xc2 /opt/microchip/xc32/v1.33/bin/bin/../../lib/gcc/pic32mx/4.5.2/../../../../pic32mx/lib/libc.a(sscanf_cdfFnopsuxX.eo)
 .debug_info    0x0005eb8c       0xc5 /opt/microchip/xc32/v1.33/bin/bin/../../lib/gcc/pic32mx/4.5.2/../../../../pic32mx/lib/libc.a(vsnprintf_cdnopuxX.eo)
 .debug_info    0x0005ec51       0xbb /opt/microchip/xc32/v1.33/bin/bin/../../lib/gcc/pic32mx/4.5.2/../../../../pic32mx/lib/libc.a(vsnprintf.o)
 .debug_info    0x0005ed0c        0x0 /opt/microchip/xc32/v1.33/bin/bin/../../lib/gcc/pic32mx/4.5.2/../../../../pic32mx/lib/libc.a(ctype.o)
 .debug_info    0x0005ed0c       0xc2 /opt/microchip/xc32/v1.33/bin/bin/../../lib/gcc/pic32mx/4.5.2/../../../../pic32mx/lib/libc.a(doprnt_cdnopuxX.eo)
 .debug_info    0x0005edce       0xe1 /opt/microchip/xc32/v1.33/bin/bin/../../lib/gcc/pic32mx/4.5.2/../../../../pic32mx/lib/libc.a(doprnt.o)
 .debug_info    0x0005eeaf       0xea /opt/microchip/xc32/v1.33/bin/bin/../../lib/gcc/pic32mx/4.5.2/../../../../pic32mx/lib/libc.a(doscan_cdfFnopsuxX.eo)
 .debug_info    0x0005ef99       0xe7 /opt/microchip/xc32/v1.33/bin/bin/../../lib/gcc/pic32mx/4.5.2/../../../../pic32mx/lib/libc.a(doscan_cdnopuxX.eo)
 .debug_info    0x0005f080       0xb3 /opt/microchip/xc32/v1.33/bin/bin/../../lib/gcc/pic32mx/4.5.2/../../../../pic32mx/lib/libc.a(fgetc.o)
 .debug_info    0x0005f133       0xb3 /opt/microchip/xc32/v1.33/bin/bin/../../lib/gcc/pic32mx/4.5.2/../../../../pic32mx/lib/libc.a(_fputc_simple.o)
 .debug_info    0x0005f1e6       0xb1 /opt/microchip/xc32/v1.33/bin/bin/../../lib/gcc/pic32mx/4.5.2/../../../../pic32mx/lib/libc.a(atoi.o)
 .debug_info    0x0005f297        0x0 /opt/microchip/xc32/v1.33/bin/bin/../../lib/gcc/pic32mx/4.5.2/../../../../pic32mx/lib/libc.a(powersf.o)
 .debug_info    0x0005f297       0xe4 /opt/microchip/xc32/v1.33/bin/bin/../../lib/gcc/pic32mx/4.5.2/../../../../pic32mx/lib/libc.a(strtod.o)
 .debug_info    0x0005f37b       0xe3 /opt/microchip/xc32/v1.33/bin/bin/../../lib/gcc/pic32mx/4.5.2/../../../../pic32mx/lib/libc.a(strtof.o)
 .debug_info    0x0005f45e       0xb5 /opt/microchip/xc32/v1.33/bin/bin/../../lib/gcc/pic32mx/4.5.2/../../../../pic32mx/lib/libc.a(ungetc.o)
 .debug_info    0x0005f513        0x0 /opt/microchip/xc32/v1.33/bin/bin/../../lib/gcc/pic32mx/4.5.2/../../../../pic32mx/lib/libc.a(_iob.o)
 .debug_info    0x0005f513       0xb6 /opt/microchip/xc32/v1.33/bin/bin/../../lib/gcc/pic32mx/4.5.2/../../../../pic32mx/lib/libc.a(filbuf.o)
 .debug_info    0x0005f5c9       0xb6 /opt/microchip/xc32/v1.33/bin/bin/../../lib/gcc/pic32mx/4.5.2/../../../../pic32mx/lib/libc.a(_flsbuf_simple.o)
 .debug_info    0x0005f67f       0xb5 /opt/microchip/xc32/v1.33/bin/bin/../../lib/gcc/pic32mx/4.5.2/../../../../pic32mx/lib/libc.a(fflush.o)
 .debug_info    0x0005f734       0xab /opt/microchip/xc32/v1.33/bin/bin/../../lib/gcc/pic32mx/4.5.2/../../../../pic32mx/lib/libpic32.a(read.o)
 .debug_info    0x0005f7df       0xad /opt/microchip/xc32/v1.33/bin/bin/../../lib/gcc/pic32mx/4.5.2/../../../../pic32mx/lib/libpic32.a(write.o)
 .debug_info    0x0005f88c        0x0 /opt/microchip/xc32/v1.33/bin/bin/../../lib/gcc/pic32mx/4.5.2/../../../../pic32mx/lib/libpic32.a(xc32_uart.o)
 .debug_info    0x0005f88c       0xb5 /opt/microchip/xc32/v1.33/bin/bin/../../lib/gcc/pic32mx/4.5.2/../../../../pic32mx/lib/libpic32.a(_mon_putc.o)
 .debug_info    0x0005f941       0xc6 /opt/microchip/xc32/v1.33/bin/bin/../../lib/gcc/pic32mx/4.5.2/../../../../pic32mx/lib/libm.a(__strtod.o)
 .debug_info    0x0005fa07       0xc6 /opt/microchip/xc32/v1.33/bin/bin/../../lib/gcc/pic32mx/4.5.2/../../../../pic32mx/lib/libm.a(__strtof.o)
 .debug_info    0x0005facd       0xcb /opt/microchip/xc32/v1.33/bin/bin/../../lib/gcc/pic32mx/4.5.2/../../../../pic32mx/lib/libe.a(_floatdisf.o)
 .debug_info    0x0005fb98       0xc7 /opt/microchip/xc32/v1.33/bin/bin/../../lib/gcc/pic32mx/4.5.2/../../../../pic32mx/lib/libe.a(_ldexp.o)
 .debug_info    0x0005fc5f       0xc8 /opt/microchip/xc32/v1.33/bin/bin/../../lib/gcc/pic32mx/4.5.2/../../../../pic32mx/lib/libe.a(_ldexpf.o)
 .debug_info    0x0005fd27      0x33b /opt/microchip/xc32/v1.33/bin/bin/../../lib/gcc/pic32mx/4.5.2/libgcc.a(_lshrdi3.o)
 .debug_info    0x00060062      0x337 /opt/microchip/xc32/v1.33/bin/bin/../../lib/gcc/pic32mx/4.5.2/libgcc.a(_ashldi3.o)
 .debug_info    0x00060399      0x2c2 /opt/microchip/xc32/v1.33/bin/bin/../../lib/gcc/pic32mx/4.5.2/libgcc.a(_floatundisf.o)
 .debug_info    0x0006065b      0x7b8 /opt/microchip/xc32/v1.33/bin/bin/../../lib/gcc/pic32mx/4.5.2/libgcc.a(_umoddi3.o)
 .debug_info    0x00060e13      0x125 /opt/microchip/xc32/v1.33/bin/bin/../../lib/gcc/pic32mx/4.5.2/libgcc.a(floatunsisf.o)
 .debug_info    0x00060f38        0x0 /opt/microchip/xc32/v1.33/bin/bin/../../lib/gcc/pic32mx/4.5.2/../../../../pic32mx/lib/libc.a(errno.o)

.debug_abbrev   0x00000000     0x7c4a
 *(.debug_abbrev)
 .debug_abbrev  0x00000000      0x2f4 build/debug/production/_ext/1209914024/FSIO.o
 .debug_abbrev  0x000002f4      0x341 build/debug/production/_ext/1209914024/SD-SPI.o
 .debug_abbrev  0x00000635      0x298 build/debug/production/_ext/1019771169/SClib.o
 .debug_abbrev  0x000008cd      0x22c build/debug/production/_ext/1019771169/SCpic32.o
 .debug_abbrev  0x00000af9      0x29d build/debug/production/_ext/631258897/usb_function_cdc.o
 .debug_abbrev  0x00000d96      0x2ec build/debug/production/_ext/186742988/usb_device.o
 .debug_abbrev  0x00001082      0x1f5 build/debug/production/src/indala.o
 .debug_abbrev  0x00001277      0x3d0 build/debug/production/src/main.o
 .debug_abbrev  0x00001647      0x27d build/debug/production/src/psk.o
 .debug_abbrev  0x000018c4      0x214 build/debug/production/src/usb_descriptors.o
 .debug_abbrev  0x00001ad8      0x2d9 build/debug/production/src/util.o
 .debug_abbrev  0x00001db1      0x1ea build/debug/production/src/emulate.o
 .debug_abbrev  0x00001f9b      0x261 build/debug/production/src/ask.o
 .debug_abbrev  0x000021fc      0x261 build/debug/production/src/fsk.o
 .debug_abbrev  0x0000245d      0x24f build/debug/production/src/clock.o
 .debug_abbrev  0x000026ac      0x21f build/debug/production/src/rwd.o
 .debug_abbrev  0x000028cb      0x18c build/debug/production/src/detect.o
 .debug_abbrev  0x00002a57      0x24f build/debug/production/src/hitagcrypto.o
 .debug_abbrev  0x00002ca6      0x248 build/debug/production/src/wiegand.o
 .debug_abbrev  0x00002eee      0x27b build/debug/production/src/comms.o
 .debug_abbrev  0x00003169      0x1fe build/debug/production/src/nvm.o
 .debug_abbrev  0x00003367      0x1ea build/debug/production/src/mcp414x.o
 .debug_abbrev  0x00003551      0x1d9 build/debug/production/src/spi.o
 .debug_abbrev  0x0000372a      0x224 build/debug/production/src/uart3.o
 .debug_abbrev  0x0000394e      0x294 build/debug/production/src/tags.o
 .debug_abbrev  0x00003be2      0x1cd build/debug/production/src/unique.o
 .debug_abbrev  0x00003daf      0x1b5 build/debug/production/src/led.o
 .debug_abbrev  0x00003f64      0x2cd build/debug/production/src/em.o
 .debug_abbrev  0x00004231      0x1cd build/debug/production/src/hid.o
 .debug_abbrev  0x000043fe      0x1be build/debug/production/src/read.o
 .debug_abbrev  0x000045bc      0x24e build/debug/production/src/isr.o
 .debug_abbrev  0x0000480a      0x1f3 build/debug/production/src/auto.o
 .debug_abbrev  0x000049fd      0x229 build/debug/production/src/fdxb.o
 .debug_abbrev  0x00004c26      0x29b build/debug/production/src/hitag.o
 .debug_abbrev  0x00004ec1      0x250 build/debug/production/src/uid.o
 .debug_abbrev  0x00005111      0x1af build/debug/production/src/login.o
 .debug_abbrev  0x000052c0      0x1dd build/debug/production/src/write.o
 .debug_abbrev  0x0000549d      0x1ce build/debug/production/src/auth.o
 .debug_abbrev  0x0000566b      0x278 build/debug/production/src/q5.o
 .debug_abbrev  0x000058e3      0x305 build/debug/production/src/vtag.o
 .debug_abbrev  0x00005be8      0x1c4 build/debug/production/src/config.o
 .debug_abbrev  0x00005dac      0x1e6 build/debug/production/src/select.o
 .debug_abbrev  0x00005f92      0x1eb build/debug/production/src/sdcard.o
 .debug_abbrev  0x0000617d      0x1fe build/debug/production/src/debug_pins.o
 .debug_abbrev  0x0000637b      0x1f5 build/debug/production/src/awid.o
 .debug_abbrev  0x00006570      0x243 build/debug/production/src/analogue.o
 .debug_abbrev  0x000067b3      0x227 build/debug/production/src/iso7816.o
 .debug_abbrev  0x000069da      0x274 build/debug/production/src/t55x7.o
 .debug_abbrev  0x00006c4e      0x1fc build/debug/production/src/sniff.o
 .debug_abbrev  0x00006e4a       0x32 /opt/microchip/xc32/v1.33/pic32mx/lib/libmchp_peripheral_32MX795F512L.a(soft_reset_lib.o)
 .debug_abbrev  0x00006e7c       0x23 /opt/microchip/xc32/v1.33/pic32mx/lib/libmchp_peripheral_32MX795F512L.a(pcache.o)
 .debug_abbrev  0x00006e9f       0x23 /opt/microchip/xc32/v1.33/pic32mx/lib/libmchp_peripheral_32MX795F512L.a(int_configure_system_lib.o)
 .debug_abbrev  0x00006ec2       0x23 /opt/microchip/xc32/v1.33/pic32mx/lib/libmchp_peripheral_32MX795F512L.a(int_enable_interrupts_lib.o)
 .debug_abbrev  0x00006ee5       0x23 /opt/microchip/xc32/v1.33/pic32mx/lib/libmchp_peripheral_32MX795F512L.a(int_disable_interrupts_lib.o)
 .debug_abbrev  0x00006f08       0x23 /opt/microchip/xc32/v1.33/pic32mx/lib/libmchp_peripheral_32MX795F512L.a(int_restore_interrupts_lib.o)
 .debug_abbrev  0x00006f2b       0x23 /opt/microchip/xc32/v1.33/pic32mx/lib/libmchp_peripheral_32MX795F512L.a(int_enable_mv_int_lib.o)
 .debug_abbrev  0x00006f4e       0x23 /opt/microchip/xc32/v1.33/pic32mx/lib/libmchp_peripheral_32MX795F512L.a(int_tbl_lib.o)
 .debug_abbrev  0x00006f71       0x23 /opt/microchip/xc32/v1.33/pic32mx/lib/libmchp_peripheral_32MX795F512L.a(spi_chn_close_lib.o)
 .debug_abbrev  0x00006f94       0x23 /opt/microchip/xc32/v1.33/pic32mx/lib/libmchp_peripheral_32MX795F512L.a(spi_chn_open_lib.o)
 .debug_abbrev  0x00006fb7        0x1 /opt/microchip/xc32/v1.33/pic32mx/lib/libmchp_peripheral_32MX795F512L.a(spi_io_tbl_libp.o)
 .debug_abbrev  0x00006fb8        0x1 /opt/microchip/xc32/v1.33/pic32mx/lib/libmchp_peripheral_32MX795F512L.a(spi_map_tbl_libp.o)
 .debug_abbrev  0x00006fb9       0x23 /opt/microchip/xc32/v1.33/pic32mx/lib/libmchp_peripheral_32MX795F512L.a(spi_getc_spi1_lib_legacy.o)
 .debug_abbrev  0x00006fdc       0x23 /opt/microchip/xc32/v1.33/pic32mx/lib/libmchp_peripheral_32MX795F512L.a(spi_open_spi1_lib_legacy.o)
 .debug_abbrev  0x00006fff        0x1 /opt/microchip/xc32/v1.33/pic32mx/lib/libmchp_peripheral_32MX795F512L.a(spi_brg_tbl_lib_legacy.o)
 .debug_abbrev  0x00007000       0x23 /opt/microchip/xc32/v1.33/pic32mx/lib/libmchp_peripheral_32MX795F512L.a(nvm_erase_page_lib.o)
 .debug_abbrev  0x00007023       0x32 /opt/microchip/xc32/v1.33/pic32mx/lib/libmchp_peripheral_32MX795F512L.a(nvm_operation_lib.o)
 .debug_abbrev  0x00007055       0x23 /opt/microchip/xc32/v1.33/pic32mx/lib/libmchp_peripheral_32MX795F512L.a(nvm_program_lib.o)
 .debug_abbrev  0x00007078       0x23 /opt/microchip/xc32/v1.33/pic32mx/lib/libmchp_peripheral_32MX795F512L.a(nvm_write_row_lib.o)
 .debug_abbrev  0x0000709b       0x23 /opt/microchip/xc32/v1.33/pic32mx/lib/libmchp_peripheral_32MX795F512L.a(port_reset_pins_lib.o)
 .debug_abbrev  0x000070be       0x23 /opt/microchip/xc32/v1.33/pic32mx/lib/libmchp_peripheral_32MX795F512L.a(port_set_pins_digital_in_lib.o)
 .debug_abbrev  0x000070e1       0x23 /opt/microchip/xc32/v1.33/pic32mx/lib/libmchp_peripheral_32MX795F512L.a(port_set_pins_digital_out_lib.o)
 .debug_abbrev  0x00007104        0x1 /opt/microchip/xc32/v1.33/pic32mx/lib/libmchp_peripheral_32MX795F512L.a(_ports_tbl_libp.o)
 .debug_abbrev  0x00007105      0x132 /opt/microchip/xc32/v1.33/bin/bin/../../lib/gcc/pic32mx/4.5.2/libgcc.a(_udivdi3.o)
 .debug_abbrev  0x00007237       0x25 /opt/microchip/xc32/v1.33/bin/bin/../../lib/gcc/pic32mx/4.5.2/../../../../pic32mx/lib/libpic32.a(default-bootstrap-exception-handler.o)
 .debug_abbrev  0x0000725c       0x25 /opt/microchip/xc32/v1.33/bin/bin/../../lib/gcc/pic32mx/4.5.2/../../../../pic32mx/lib/libpic32.a(default-on-reset.o)
 .debug_abbrev  0x00007281       0x25 /opt/microchip/xc32/v1.33/bin/bin/../../lib/gcc/pic32mx/4.5.2/../../../../pic32mx/lib/libpic32.a(default-on-bootstrap.o)
 .debug_abbrev  0x000072a6       0x25 /opt/microchip/xc32/v1.33/bin/bin/../../lib/gcc/pic32mx/4.5.2/../../../../pic32mx/lib/libpic32.a(default-general-exception-handler.o)
 .debug_abbrev  0x000072cb       0x25 /opt/microchip/xc32/v1.33/bin/bin/../../lib/gcc/pic32mx/4.5.2/../../../../pic32mx/lib/libpic32.a(defaultinterrupt.o)
 .debug_abbrev  0x000072f0       0x25 /opt/microchip/xc32/v1.33/bin/bin/../../lib/gcc/pic32mx/4.5.2/../../../../pic32mx/lib/libc.a(ctypef.o)
 .debug_abbrev  0x00007315       0x41 /opt/microchip/xc32/v1.33/bin/bin/../../lib/gcc/pic32mx/4.5.2/../../../../pic32mx/lib/libc.a(rand.o)
 .debug_abbrev  0x00007356       0x25 /opt/microchip/xc32/v1.33/bin/bin/../../lib/gcc/pic32mx/4.5.2/../../../../pic32mx/lib/libc.a(strncmp.o)
 .debug_abbrev  0x0000737b       0x25 /opt/microchip/xc32/v1.33/bin/bin/../../lib/gcc/pic32mx/4.5.2/../../../../pic32mx/lib/libc.a(strncpy.o)
 .debug_abbrev  0x000073a0       0x25 /opt/microchip/xc32/v1.33/bin/bin/../../lib/gcc/pic32mx/4.5.2/../../../../pic32mx/lib/libc.a(snprintf_cdnopuxX.eo)
 .debug_abbrev  0x000073c5       0x25 /opt/microchip/xc32/v1.33/bin/bin/../../lib/gcc/pic32mx/4.5.2/../../../../pic32mx/lib/libc.a(snprintf.o)
 .debug_abbrev  0x000073ea       0x25 /opt/microchip/xc32/v1.33/bin/bin/../../lib/gcc/pic32mx/4.5.2/../../../../pic32mx/lib/libc.a(sprintf_cdnopuxX.eo)
 .debug_abbrev  0x0000740f       0x25 /opt/microchip/xc32/v1.33/bin/bin/../../lib/gcc/pic32mx/4.5.2/../../../../pic32mx/lib/libc.a(sprintf.o)
 .debug_abbrev  0x00007434       0x25 /opt/microchip/xc32/v1.33/bin/bin/../../lib/gcc/pic32mx/4.5.2/../../../../pic32mx/lib/libc.a(sscanf_cdfFnopsuxX.eo)
 .debug_abbrev  0x00007459       0x25 /opt/microchip/xc32/v1.33/bin/bin/../../lib/gcc/pic32mx/4.5.2/../../../../pic32mx/lib/libc.a(vsnprintf_cdnopuxX.eo)
 .debug_abbrev  0x0000747e       0x25 /opt/microchip/xc32/v1.33/bin/bin/../../lib/gcc/pic32mx/4.5.2/../../../../pic32mx/lib/libc.a(vsnprintf.o)
 .debug_abbrev  0x000074a3        0x1 /opt/microchip/xc32/v1.33/bin/bin/../../lib/gcc/pic32mx/4.5.2/../../../../pic32mx/lib/libc.a(ctype.o)
 .debug_abbrev  0x000074a4       0x25 /opt/microchip/xc32/v1.33/bin/bin/../../lib/gcc/pic32mx/4.5.2/../../../../pic32mx/lib/libc.a(doprnt_cdnopuxX.eo)
 .debug_abbrev  0x000074c9       0x36 /opt/microchip/xc32/v1.33/bin/bin/../../lib/gcc/pic32mx/4.5.2/../../../../pic32mx/lib/libc.a(doprnt.o)
 .debug_abbrev  0x000074ff       0x36 /opt/microchip/xc32/v1.33/bin/bin/../../lib/gcc/pic32mx/4.5.2/../../../../pic32mx/lib/libc.a(doscan_cdfFnopsuxX.eo)
 .debug_abbrev  0x00007535       0x36 /opt/microchip/xc32/v1.33/bin/bin/../../lib/gcc/pic32mx/4.5.2/../../../../pic32mx/lib/libc.a(doscan_cdnopuxX.eo)
 .debug_abbrev  0x0000756b       0x25 /opt/microchip/xc32/v1.33/bin/bin/../../lib/gcc/pic32mx/4.5.2/../../../../pic32mx/lib/libc.a(fgetc.o)
 .debug_abbrev  0x00007590       0x25 /opt/microchip/xc32/v1.33/bin/bin/../../lib/gcc/pic32mx/4.5.2/../../../../pic32mx/lib/libc.a(_fputc_simple.o)
 .debug_abbrev  0x000075b5       0x25 /opt/microchip/xc32/v1.33/bin/bin/../../lib/gcc/pic32mx/4.5.2/../../../../pic32mx/lib/libc.a(atoi.o)
 .debug_abbrev  0x000075da        0x1 /opt/microchip/xc32/v1.33/bin/bin/../../lib/gcc/pic32mx/4.5.2/../../../../pic32mx/lib/libc.a(powersf.o)
 .debug_abbrev  0x000075db       0x49 /opt/microchip/xc32/v1.33/bin/bin/../../lib/gcc/pic32mx/4.5.2/../../../../pic32mx/lib/libc.a(strtod.o)
 .debug_abbrev  0x00007624       0x49 /opt/microchip/xc32/v1.33/bin/bin/../../lib/gcc/pic32mx/4.5.2/../../../../pic32mx/lib/libc.a(strtof.o)
 .debug_abbrev  0x0000766d       0x25 /opt/microchip/xc32/v1.33/bin/bin/../../lib/gcc/pic32mx/4.5.2/../../../../pic32mx/lib/libc.a(ungetc.o)
 .debug_abbrev  0x00007692        0x1 /opt/microchip/xc32/v1.33/bin/bin/../../lib/gcc/pic32mx/4.5.2/../../../../pic32mx/lib/libc.a(_iob.o)
 .debug_abbrev  0x00007693       0x25 /opt/microchip/xc32/v1.33/bin/bin/../../lib/gcc/pic32mx/4.5.2/../../../../pic32mx/lib/libc.a(filbuf.o)
 .debug_abbrev  0x000076b8       0x25 /opt/microchip/xc32/v1.33/bin/bin/../../lib/gcc/pic32mx/4.5.2/../../../../pic32mx/lib/libc.a(_flsbuf_simple.o)
 .debug_abbrev  0x000076dd       0x25 /opt/microchip/xc32/v1.33/bin/bin/../../lib/gcc/pic32mx/4.5.2/../../../../pic32mx/lib/libc.a(fflush.o)
 .debug_abbrev  0x00007702       0x25 /opt/microchip/xc32/v1.33/bin/bin/../../lib/gcc/pic32mx/4.5.2/../../../../pic32mx/lib/libpic32.a(read.o)
 .debug_abbrev  0x00007727       0x25 /opt/microchip/xc32/v1.33/bin/bin/../../lib/gcc/pic32mx/4.5.2/../../../../pic32mx/lib/libpic32.a(write.o)
 .debug_abbrev  0x0000774c        0x1 /opt/microchip/xc32/v1.33/bin/bin/../../lib/gcc/pic32mx/4.5.2/../../../../pic32mx/lib/libpic32.a(xc32_uart.o)
 .debug_abbrev  0x0000774d       0x25 /opt/microchip/xc32/v1.33/bin/bin/../../lib/gcc/pic32mx/4.5.2/../../../../pic32mx/lib/libpic32.a(_mon_putc.o)
 .debug_abbrev  0x00007772       0x32 /opt/microchip/xc32/v1.33/bin/bin/../../lib/gcc/pic32mx/4.5.2/../../../../pic32mx/lib/libm.a(__strtod.o)
 .debug_abbrev  0x000077a4       0x32 /opt/microchip/xc32/v1.33/bin/bin/../../lib/gcc/pic32mx/4.5.2/../../../../pic32mx/lib/libm.a(__strtof.o)
 .debug_abbrev  0x000077d6       0x32 /opt/microchip/xc32/v1.33/bin/bin/../../lib/gcc/pic32mx/4.5.2/../../../../pic32mx/lib/libe.a(_floatdisf.o)
 .debug_abbrev  0x00007808       0x32 /opt/microchip/xc32/v1.33/bin/bin/../../lib/gcc/pic32mx/4.5.2/../../../../pic32mx/lib/libe.a(_ldexp.o)
 .debug_abbrev  0x0000783a       0x32 /opt/microchip/xc32/v1.33/bin/bin/../../lib/gcc/pic32mx/4.5.2/../../../../pic32mx/lib/libe.a(_ldexpf.o)
 .debug_abbrev  0x0000786c       0xe3 /opt/microchip/xc32/v1.33/bin/bin/../../lib/gcc/pic32mx/4.5.2/libgcc.a(_lshrdi3.o)
 .debug_abbrev  0x0000794f       0xe3 /opt/microchip/xc32/v1.33/bin/bin/../../lib/gcc/pic32mx/4.5.2/libgcc.a(_ashldi3.o)
 .debug_abbrev  0x00007a32       0x79 /opt/microchip/xc32/v1.33/bin/bin/../../lib/gcc/pic32mx/4.5.2/libgcc.a(_floatundisf.o)
 .debug_abbrev  0x00007aab      0x13f /opt/microchip/xc32/v1.33/bin/bin/../../lib/gcc/pic32mx/4.5.2/libgcc.a(_umoddi3.o)
 .debug_abbrev  0x00007bea       0x5f /opt/microchip/xc32/v1.33/bin/bin/../../lib/gcc/pic32mx/4.5.2/libgcc.a(floatunsisf.o)
 .debug_abbrev  0x00007c49        0x1 /opt/microchip/xc32/v1.33/bin/bin/../../lib/gcc/pic32mx/4.5.2/../../../../pic32mx/lib/libc.a(errno.o)

.debug_line     0x00000000     0xb99c
 *(.debug_line)
 .debug_line    0x00000000     0x1ad7 build/debug/production/_ext/1209914024/FSIO.o
 .debug_line    0x00001ad7      0x45c build/debug/production/_ext/1209914024/SD-SPI.o
 .debug_line    0x00001f33      0x38b build/debug/production/_ext/1019771169/SClib.o
 .debug_line    0x000022be      0x280 build/debug/production/_ext/1019771169/SCpic32.o
 .debug_line    0x0000253e      0x2f1 build/debug/production/_ext/631258897/usb_function_cdc.o
 .debug_line    0x0000282f      0x642 build/debug/production/_ext/186742988/usb_device.o
 .debug_line    0x00002e71      0x1ee build/debug/production/src/indala.o
 .debug_line    0x0000305f      0xa5b build/debug/production/src/main.o
 .debug_line    0x00003aba      0x26d build/debug/production/src/psk.o
 .debug_line    0x00003d27      0x1f5 build/debug/production/src/usb_descriptors.o
 .debug_line    0x00003f1c      0x513 build/debug/production/src/util.o
 .debug_line    0x0000442f      0x1c8 build/debug/production/src/emulate.o
 .debug_line    0x000045f7      0x273 build/debug/production/src/ask.o
 .debug_line    0x0000486a      0x2a7 build/debug/production/src/fsk.o
 .debug_line    0x00004b11      0x2cd build/debug/production/src/clock.o
 .debug_line    0x00004dde      0x1e9 build/debug/production/src/rwd.o
 .debug_line    0x00004fc7      0x18c build/debug/production/src/detect.o
 .debug_line    0x00005153      0x2aa build/debug/production/src/hitagcrypto.o
 .debug_line    0x000053fd      0x2c0 build/debug/production/src/wiegand.o
 .debug_line    0x000056bd      0x2e3 build/debug/production/src/comms.o
 .debug_line    0x000059a0      0x231 build/debug/production/src/nvm.o
 .debug_line    0x00005bd1      0x1c2 build/debug/production/src/mcp414x.o
 .debug_line    0x00005d93      0x1a7 build/debug/production/src/spi.o
 .debug_line    0x00005f3a      0x1b1 build/debug/production/src/uart3.o
 .debug_line    0x000060eb      0x3b0 build/debug/production/src/tags.o
 .debug_line    0x0000649b      0x189 build/debug/production/src/unique.o
 .debug_line    0x00006624      0x1ad build/debug/production/src/led.o
 .debug_line    0x000067d1      0x2e6 build/debug/production/src/em.o
 .debug_line    0x00006ab7      0x191 build/debug/production/src/hid.o
 .debug_line    0x00006c48      0x1c5 build/debug/production/src/read.o
 .debug_line    0x00006e0d      0x33b build/debug/production/src/isr.o
 .debug_line    0x00007148      0x1ea build/debug/production/src/auto.o
 .debug_line    0x00007332      0x1e7 build/debug/production/src/fdxb.o
 .debug_line    0x00007519      0x406 build/debug/production/src/hitag.o
 .debug_line    0x0000791f      0x1fa build/debug/production/src/uid.o
 .debug_line    0x00007b19      0x1aa build/debug/production/src/login.o
 .debug_line    0x00007cc3      0x1ca build/debug/production/src/write.o
 .debug_line    0x00007e8d      0x1a6 build/debug/production/src/auth.o
 .debug_line    0x00008033      0x33f build/debug/production/src/q5.o
 .debug_line    0x00008372      0x2d6 build/debug/production/src/vtag.o
 .debug_line    0x00008648      0x1a3 build/debug/production/src/config.o
 .debug_line    0x000087eb      0x1ad build/debug/production/src/select.o
 .debug_line    0x00008998      0x1e5 build/debug/production/src/sdcard.o
 .debug_line    0x00008b7d      0x1a7 build/debug/production/src/debug_pins.o
 .debug_line    0x00008d24      0x1c1 build/debug/production/src/awid.o
 .debug_line    0x00008ee5      0x25f build/debug/production/src/analogue.o
 .debug_line    0x00009144      0x268 build/debug/production/src/iso7816.o
 .debug_line    0x000093ac      0x359 build/debug/production/src/t55x7.o
 .debug_line    0x00009705      0x233 build/debug/production/src/sniff.o
 .debug_line    0x00009938       0xb1 /opt/microchip/xc32/v1.33/pic32mx/lib/libmchp_peripheral_32MX795F512L.a(soft_reset_lib.o)
 .debug_line    0x000099e9       0x62 /opt/microchip/xc32/v1.33/pic32mx/lib/libmchp_peripheral_32MX795F512L.a(pcache.o)
 .debug_line    0x00009a4b       0x71 /opt/microchip/xc32/v1.33/pic32mx/lib/libmchp_peripheral_32MX795F512L.a(int_configure_system_lib.o)
 .debug_line    0x00009abc       0x72 /opt/microchip/xc32/v1.33/pic32mx/lib/libmchp_peripheral_32MX795F512L.a(int_enable_interrupts_lib.o)
 .debug_line    0x00009b2e       0x73 /opt/microchip/xc32/v1.33/pic32mx/lib/libmchp_peripheral_32MX795F512L.a(int_disable_interrupts_lib.o)
 .debug_line    0x00009ba1       0x73 /opt/microchip/xc32/v1.33/pic32mx/lib/libmchp_peripheral_32MX795F512L.a(int_restore_interrupts_lib.o)
 .debug_line    0x00009c14       0x6e /opt/microchip/xc32/v1.33/pic32mx/lib/libmchp_peripheral_32MX795F512L.a(int_enable_mv_int_lib.o)
 .debug_line    0x00009c82       0x64 /opt/microchip/xc32/v1.33/pic32mx/lib/libmchp_peripheral_32MX795F512L.a(int_tbl_lib.o)
 .debug_line    0x00009ce6       0x6a /opt/microchip/xc32/v1.33/pic32mx/lib/libmchp_peripheral_32MX795F512L.a(spi_chn_close_lib.o)
 .debug_line    0x00009d50       0x69 /opt/microchip/xc32/v1.33/pic32mx/lib/libmchp_peripheral_32MX795F512L.a(spi_chn_open_lib.o)
 .debug_line    0x00009db9        0x0 /opt/microchip/xc32/v1.33/pic32mx/lib/libmchp_peripheral_32MX795F512L.a(spi_io_tbl_libp.o)
 .debug_line    0x00009db9        0x0 /opt/microchip/xc32/v1.33/pic32mx/lib/libmchp_peripheral_32MX795F512L.a(spi_map_tbl_libp.o)
 .debug_line    0x00009db9       0x71 /opt/microchip/xc32/v1.33/pic32mx/lib/libmchp_peripheral_32MX795F512L.a(spi_getc_spi1_lib_legacy.o)
 .debug_line    0x00009e2a       0x71 /opt/microchip/xc32/v1.33/pic32mx/lib/libmchp_peripheral_32MX795F512L.a(spi_open_spi1_lib_legacy.o)
 .debug_line    0x00009e9b        0x0 /opt/microchip/xc32/v1.33/pic32mx/lib/libmchp_peripheral_32MX795F512L.a(spi_brg_tbl_lib_legacy.o)
 .debug_line    0x00009e9b       0x6b /opt/microchip/xc32/v1.33/pic32mx/lib/libmchp_peripheral_32MX795F512L.a(nvm_erase_page_lib.o)
 .debug_line    0x00009f06       0xb2 /opt/microchip/xc32/v1.33/pic32mx/lib/libmchp_peripheral_32MX795F512L.a(nvm_operation_lib.o)
 .debug_line    0x00009fb8       0x68 /opt/microchip/xc32/v1.33/pic32mx/lib/libmchp_peripheral_32MX795F512L.a(nvm_program_lib.o)
 .debug_line    0x0000a020       0x6a /opt/microchip/xc32/v1.33/pic32mx/lib/libmchp_peripheral_32MX795F512L.a(nvm_write_row_lib.o)
 .debug_line    0x0000a08a       0x6e /opt/microchip/xc32/v1.33/pic32mx/lib/libmchp_peripheral_32MX795F512L.a(port_reset_pins_lib.o)
 .debug_line    0x0000a0f8       0x77 /opt/microchip/xc32/v1.33/pic32mx/lib/libmchp_peripheral_32MX795F512L.a(port_set_pins_digital_in_lib.o)
 .debug_line    0x0000a16f       0x78 /opt/microchip/xc32/v1.33/pic32mx/lib/libmchp_peripheral_32MX795F512L.a(port_set_pins_digital_out_lib.o)
 .debug_line    0x0000a1e7        0x0 /opt/microchip/xc32/v1.33/pic32mx/lib/libmchp_peripheral_32MX795F512L.a(_ports_tbl_libp.o)
 .debug_line    0x0000a1e7      0x168 /opt/microchip/xc32/v1.33/bin/bin/../../lib/gcc/pic32mx/4.5.2/libgcc.a(_udivdi3.o)
 .debug_line    0x0000a34f       0x97 /opt/microchip/xc32/v1.33/bin/bin/../../lib/gcc/pic32mx/4.5.2/../../../../pic32mx/lib/libpic32.a(default-bootstrap-exception-handler.o)
 .debug_line    0x0000a3e6       0x84 /opt/microchip/xc32/v1.33/bin/bin/../../lib/gcc/pic32mx/4.5.2/../../../../pic32mx/lib/libpic32.a(default-on-reset.o)
 .debug_line    0x0000a46a       0x88 /opt/microchip/xc32/v1.33/bin/bin/../../lib/gcc/pic32mx/4.5.2/../../../../pic32mx/lib/libpic32.a(default-on-bootstrap.o)
 .debug_line    0x0000a4f2       0x95 /opt/microchip/xc32/v1.33/bin/bin/../../lib/gcc/pic32mx/4.5.2/../../../../pic32mx/lib/libpic32.a(default-general-exception-handler.o)
 .debug_line    0x0000a587       0x96 /opt/microchip/xc32/v1.33/bin/bin/../../lib/gcc/pic32mx/4.5.2/../../../../pic32mx/lib/libpic32.a(defaultinterrupt.o)
 .debug_line    0x0000a61d       0x70 /opt/microchip/xc32/v1.33/bin/bin/../../lib/gcc/pic32mx/4.5.2/../../../../pic32mx/lib/libc.a(ctypef.o)
 .debug_line    0x0000a68d       0x6e /opt/microchip/xc32/v1.33/bin/bin/../../lib/gcc/pic32mx/4.5.2/../../../../pic32mx/lib/libc.a(rand.o)
 .debug_line    0x0000a6fb       0x71 /opt/microchip/xc32/v1.33/bin/bin/../../lib/gcc/pic32mx/4.5.2/../../../../pic32mx/lib/libc.a(strncmp.o)
 .debug_line    0x0000a76c       0x71 /opt/microchip/xc32/v1.33/bin/bin/../../lib/gcc/pic32mx/4.5.2/../../../../pic32mx/lib/libc.a(strncpy.o)
 .debug_line    0x0000a7dd       0x72 /opt/microchip/xc32/v1.33/bin/bin/../../lib/gcc/pic32mx/4.5.2/../../../../pic32mx/lib/libc.a(snprintf_cdnopuxX.eo)
 .debug_line    0x0000a84f       0x72 /opt/microchip/xc32/v1.33/bin/bin/../../lib/gcc/pic32mx/4.5.2/../../../../pic32mx/lib/libc.a(snprintf.o)
 .debug_line    0x0000a8c1       0x71 /opt/microchip/xc32/v1.33/bin/bin/../../lib/gcc/pic32mx/4.5.2/../../../../pic32mx/lib/libc.a(sprintf_cdnopuxX.eo)
 .debug_line    0x0000a932       0x71 /opt/microchip/xc32/v1.33/bin/bin/../../lib/gcc/pic32mx/4.5.2/../../../../pic32mx/lib/libc.a(sprintf.o)
 .debug_line    0x0000a9a3       0x70 /opt/microchip/xc32/v1.33/bin/bin/../../lib/gcc/pic32mx/4.5.2/../../../../pic32mx/lib/libc.a(sscanf_cdfFnopsuxX.eo)
 .debug_line    0x0000aa13       0x73 /opt/microchip/xc32/v1.33/bin/bin/../../lib/gcc/pic32mx/4.5.2/../../../../pic32mx/lib/libc.a(vsnprintf_cdnopuxX.eo)
 .debug_line    0x0000aa86       0x73 /opt/microchip/xc32/v1.33/bin/bin/../../lib/gcc/pic32mx/4.5.2/../../../../pic32mx/lib/libc.a(vsnprintf.o)
 .debug_line    0x0000aaf9        0x0 /opt/microchip/xc32/v1.33/bin/bin/../../lib/gcc/pic32mx/4.5.2/../../../../pic32mx/lib/libc.a(ctype.o)
 .debug_line    0x0000aaf9       0x70 /opt/microchip/xc32/v1.33/bin/bin/../../lib/gcc/pic32mx/4.5.2/../../../../pic32mx/lib/libc.a(doprnt_cdnopuxX.eo)
 .debug_line    0x0000ab69       0x70 /opt/microchip/xc32/v1.33/bin/bin/../../lib/gcc/pic32mx/4.5.2/../../../../pic32mx/lib/libc.a(doprnt.o)
 .debug_line    0x0000abd9       0x70 /opt/microchip/xc32/v1.33/bin/bin/../../lib/gcc/pic32mx/4.5.2/../../../../pic32mx/lib/libc.a(doscan_cdfFnopsuxX.eo)
 .debug_line    0x0000ac49       0x70 /opt/microchip/xc32/v1.33/bin/bin/../../lib/gcc/pic32mx/4.5.2/../../../../pic32mx/lib/libc.a(doscan_cdnopuxX.eo)
 .debug_line    0x0000acb9       0x6f /opt/microchip/xc32/v1.33/bin/bin/../../lib/gcc/pic32mx/4.5.2/../../../../pic32mx/lib/libc.a(fgetc.o)
 .debug_line    0x0000ad28       0x6f /opt/microchip/xc32/v1.33/bin/bin/../../lib/gcc/pic32mx/4.5.2/../../../../pic32mx/lib/libc.a(_fputc_simple.o)
 .debug_line    0x0000ad97       0x6e /opt/microchip/xc32/v1.33/bin/bin/../../lib/gcc/pic32mx/4.5.2/../../../../pic32mx/lib/libc.a(atoi.o)
 .debug_line    0x0000ae05        0x0 /opt/microchip/xc32/v1.33/bin/bin/../../lib/gcc/pic32mx/4.5.2/../../../../pic32mx/lib/libc.a(powersf.o)
 .debug_line    0x0000ae05       0x70 /opt/microchip/xc32/v1.33/bin/bin/../../lib/gcc/pic32mx/4.5.2/../../../../pic32mx/lib/libc.a(strtod.o)
 .debug_line    0x0000ae75       0x70 /opt/microchip/xc32/v1.33/bin/bin/../../lib/gcc/pic32mx/4.5.2/../../../../pic32mx/lib/libc.a(strtof.o)
 .debug_line    0x0000aee5       0x70 /opt/microchip/xc32/v1.33/bin/bin/../../lib/gcc/pic32mx/4.5.2/../../../../pic32mx/lib/libc.a(ungetc.o)
 .debug_line    0x0000af55        0x0 /opt/microchip/xc32/v1.33/bin/bin/../../lib/gcc/pic32mx/4.5.2/../../../../pic32mx/lib/libc.a(_iob.o)
 .debug_line    0x0000af55       0x70 /opt/microchip/xc32/v1.33/bin/bin/../../lib/gcc/pic32mx/4.5.2/../../../../pic32mx/lib/libc.a(filbuf.o)
 .debug_line    0x0000afc5       0x70 /opt/microchip/xc32/v1.33/bin/bin/../../lib/gcc/pic32mx/4.5.2/../../../../pic32mx/lib/libc.a(_flsbuf_simple.o)
 .debug_line    0x0000b035       0x70 /opt/microchip/xc32/v1.33/bin/bin/../../lib/gcc/pic32mx/4.5.2/../../../../pic32mx/lib/libc.a(fflush.o)
 .debug_line    0x0000b0a5       0x78 /opt/microchip/xc32/v1.33/bin/bin/../../lib/gcc/pic32mx/4.5.2/../../../../pic32mx/lib/libpic32.a(read.o)
 .debug_line    0x0000b11d       0x79 /opt/microchip/xc32/v1.33/bin/bin/../../lib/gcc/pic32mx/4.5.2/../../../../pic32mx/lib/libpic32.a(write.o)
 .debug_line    0x0000b196        0x0 /opt/microchip/xc32/v1.33/bin/bin/../../lib/gcc/pic32mx/4.5.2/../../../../pic32mx/lib/libpic32.a(xc32_uart.o)
 .debug_line    0x0000b196       0x7d /opt/microchip/xc32/v1.33/bin/bin/../../lib/gcc/pic32mx/4.5.2/../../../../pic32mx/lib/libpic32.a(_mon_putc.o)
 .debug_line    0x0000b213       0x79 /opt/microchip/xc32/v1.33/bin/bin/../../lib/gcc/pic32mx/4.5.2/../../../../pic32mx/lib/libm.a(__strtod.o)
 .debug_line    0x0000b28c       0x79 /opt/microchip/xc32/v1.33/bin/bin/../../lib/gcc/pic32mx/4.5.2/../../../../pic32mx/lib/libm.a(__strtof.o)
 .debug_line    0x0000b305       0x93 /opt/microchip/xc32/v1.33/bin/bin/../../lib/gcc/pic32mx/4.5.2/../../../../pic32mx/lib/libe.a(_floatdisf.o)
 .debug_line    0x0000b398       0x93 /opt/microchip/xc32/v1.33/bin/bin/../../lib/gcc/pic32mx/4.5.2/../../../../pic32mx/lib/libe.a(_ldexp.o)
 .debug_line    0x0000b42b       0x93 /opt/microchip/xc32/v1.33/bin/bin/../../lib/gcc/pic32mx/4.5.2/../../../../pic32mx/lib/libe.a(_ldexpf.o)
 .debug_line    0x0000b4be       0xfa /opt/microchip/xc32/v1.33/bin/bin/../../lib/gcc/pic32mx/4.5.2/libgcc.a(_lshrdi3.o)
 .debug_line    0x0000b5b8       0xfc /opt/microchip/xc32/v1.33/bin/bin/../../lib/gcc/pic32mx/4.5.2/libgcc.a(_ashldi3.o)
 .debug_line    0x0000b6b4      0x105 /opt/microchip/xc32/v1.33/bin/bin/../../lib/gcc/pic32mx/4.5.2/libgcc.a(_floatundisf.o)
 .debug_line    0x0000b7b9      0x155 /opt/microchip/xc32/v1.33/bin/bin/../../lib/gcc/pic32mx/4.5.2/libgcc.a(_umoddi3.o)
 .debug_line    0x0000b90e       0x8e /opt/microchip/xc32/v1.33/bin/bin/../../lib/gcc/pic32mx/4.5.2/libgcc.a(floatunsisf.o)
 .debug_line    0x0000b99c        0x0 /opt/microchip/xc32/v1.33/bin/bin/../../lib/gcc/pic32mx/4.5.2/../../../../pic32mx/lib/libc.a(errno.o)

.debug_frame    0x00000000     0x4034
 *(.debug_frame)
 .debug_frame   0x00000000      0x7e8 build/debug/production/_ext/1209914024/FSIO.o
 .debug_frame   0x000007e8      0x210 build/debug/production/_ext/1209914024/SD-SPI.o
 .debug_frame   0x000009f8      0x118 build/debug/production/_ext/1019771169/SClib.o
 .debug_frame   0x00000b10       0xf4 build/debug/production/_ext/1019771169/SCpic32.o
 .debug_frame   0x00000c04       0xf0 build/debug/production/_ext/631258897/usb_function_cdc.o
 .debug_frame   0x00000cf4      0x314 build/debug/production/_ext/186742988/usb_device.o
 .debug_frame   0x00001008       0xa4 build/debug/production/src/indala.o
 .debug_frame   0x000010ac      0x180 build/debug/production/src/main.o
 .debug_frame   0x0000122c       0xd8 build/debug/production/src/psk.o
 .debug_frame   0x00001304       0x2c build/debug/production/src/usb_descriptors.o
 .debug_frame   0x00001330      0x624 build/debug/production/src/util.o
 .debug_frame   0x00001954       0x2c build/debug/production/src/emulate.o
 .debug_frame   0x00001980       0xd8 build/debug/production/src/ask.o
 .debug_frame   0x00001a58       0xf4 build/debug/production/src/fsk.o
 .debug_frame   0x00001b4c      0x148 build/debug/production/src/clock.o
 .debug_frame   0x00001c94       0x64 build/debug/production/src/rwd.o
 .debug_frame   0x00001cf8       0x2c build/debug/production/src/detect.o
 .debug_frame   0x00001d24       0xbc build/debug/production/src/hitagcrypto.o
 .debug_frame   0x00001de0      0x148 build/debug/production/src/wiegand.o
 .debug_frame   0x00001f28      0x168 build/debug/production/src/comms.o
 .debug_frame   0x00002090       0x9c build/debug/production/src/nvm.o
 .debug_frame   0x0000212c       0xd4 build/debug/production/src/mcp414x.o
 .debug_frame   0x00002200       0x9c build/debug/production/src/spi.o
 .debug_frame   0x0000229c       0xf0 build/debug/production/src/uart3.o
 .debug_frame   0x0000238c      0x12c build/debug/production/src/tags.o
 .debug_frame   0x000024b8       0xa0 build/debug/production/src/unique.o
 .debug_frame   0x00002558       0x9c build/debug/production/src/led.o
 .debug_frame   0x000025f4      0x180 build/debug/production/src/em.o
 .debug_frame   0x00002774       0x80 build/debug/production/src/hid.o
 .debug_frame   0x000027f4       0x2c build/debug/production/src/read.o
 .debug_frame   0x00002820       0xa8 build/debug/production/src/isr.o
 .debug_frame   0x000028c8       0x48 build/debug/production/src/auto.o
 .debug_frame   0x00002910       0xa4 build/debug/production/src/fdxb.o
 .debug_frame   0x000029b4      0x290 build/debug/production/src/hitag.o
 .debug_frame   0x00002c44       0x64 build/debug/production/src/uid.o
 .debug_frame   0x00002ca8       0x2c build/debug/production/src/login.o
 .debug_frame   0x00002cd4       0x2c build/debug/production/src/write.o
 .debug_frame   0x00002d00       0x2c build/debug/production/src/auth.o
 .debug_frame   0x00002d2c      0x144 build/debug/production/src/q5.o
 .debug_frame   0x00002e70      0x11c build/debug/production/src/vtag.o
 .debug_frame   0x00002f8c       0xb8 build/debug/production/src/config.o
 .debug_frame   0x00003044       0x2c build/debug/production/src/select.o
 .debug_frame   0x00003070       0x30 build/debug/production/src/sdcard.o
 .debug_frame   0x000030a0       0xb8 build/debug/production/src/debug_pins.o
 .debug_frame   0x00003158       0x88 build/debug/production/src/awid.o
 .debug_frame   0x000031e0       0x88 build/debug/production/src/analogue.o
 .debug_frame   0x00003268       0x68 build/debug/production/src/iso7816.o
 .debug_frame   0x000032d0       0xf0 build/debug/production/src/t55x7.o
 .debug_frame   0x000033c0       0x64 build/debug/production/src/sniff.o
 .debug_frame   0x00003424       0x28 /opt/microchip/xc32/v1.33/pic32mx/lib/libmchp_peripheral_32MX795F512L.a(soft_reset_lib.o)
 .debug_frame   0x0000344c       0x30 /opt/microchip/xc32/v1.33/pic32mx/lib/libmchp_peripheral_32MX795F512L.a(pcache.o)
 .debug_frame   0x0000347c       0x20 /opt/microchip/xc32/v1.33/pic32mx/lib/libmchp_peripheral_32MX795F512L.a(int_configure_system_lib.o)
 .debug_frame   0x0000349c       0x20 /opt/microchip/xc32/v1.33/pic32mx/lib/libmchp_peripheral_32MX795F512L.a(int_enable_interrupts_lib.o)
 .debug_frame   0x000034bc       0x20 /opt/microchip/xc32/v1.33/pic32mx/lib/libmchp_peripheral_32MX795F512L.a(int_disable_interrupts_lib.o)
 .debug_frame   0x000034dc       0x20 /opt/microchip/xc32/v1.33/pic32mx/lib/libmchp_peripheral_32MX795F512L.a(int_restore_interrupts_lib.o)
 .debug_frame   0x000034fc       0x28 /opt/microchip/xc32/v1.33/pic32mx/lib/libmchp_peripheral_32MX795F512L.a(int_enable_mv_int_lib.o)
 .debug_frame   0x00003524       0xa0 /opt/microchip/xc32/v1.33/pic32mx/lib/libmchp_peripheral_32MX795F512L.a(int_tbl_lib.o)
 .debug_frame   0x000035c4       0x2c /opt/microchip/xc32/v1.33/pic32mx/lib/libmchp_peripheral_32MX795F512L.a(spi_chn_close_lib.o)
 .debug_frame   0x000035f0       0x38 /opt/microchip/xc32/v1.33/pic32mx/lib/libmchp_peripheral_32MX795F512L.a(spi_chn_open_lib.o)
 .debug_frame   0x00003628       0x20 /opt/microchip/xc32/v1.33/pic32mx/lib/libmchp_peripheral_32MX795F512L.a(spi_getc_spi1_lib_legacy.o)
 .debug_frame   0x00003648       0x20 /opt/microchip/xc32/v1.33/pic32mx/lib/libmchp_peripheral_32MX795F512L.a(spi_open_spi1_lib_legacy.o)
 .debug_frame   0x00003668       0x28 /opt/microchip/xc32/v1.33/pic32mx/lib/libmchp_peripheral_32MX795F512L.a(nvm_erase_page_lib.o)
 .debug_frame   0x00003690       0x28 /opt/microchip/xc32/v1.33/pic32mx/lib/libmchp_peripheral_32MX795F512L.a(nvm_operation_lib.o)
 .debug_frame   0x000036b8       0x38 /opt/microchip/xc32/v1.33/pic32mx/lib/libmchp_peripheral_32MX795F512L.a(nvm_program_lib.o)
 .debug_frame   0x000036f0       0x28 /opt/microchip/xc32/v1.33/pic32mx/lib/libmchp_peripheral_32MX795F512L.a(nvm_write_row_lib.o)
 .debug_frame   0x00003718       0x20 /opt/microchip/xc32/v1.33/pic32mx/lib/libmchp_peripheral_32MX795F512L.a(port_reset_pins_lib.o)
 .debug_frame   0x00003738       0x20 /opt/microchip/xc32/v1.33/pic32mx/lib/libmchp_peripheral_32MX795F512L.a(port_set_pins_digital_in_lib.o)
 .debug_frame   0x00003758       0x20 /opt/microchip/xc32/v1.33/pic32mx/lib/libmchp_peripheral_32MX795F512L.a(port_set_pins_digital_out_lib.o)
 .debug_frame   0x00003778       0x20 /opt/microchip/xc32/v1.33/bin/bin/../../lib/gcc/pic32mx/4.5.2/libgcc.a(_udivdi3.o)
 .debug_frame   0x00003798       0x28 /opt/microchip/xc32/v1.33/bin/bin/../../lib/gcc/pic32mx/4.5.2/../../../../pic32mx/lib/libpic32.a(default-bootstrap-exception-handler.o)
 .debug_frame   0x000037c0       0x20 /opt/microchip/xc32/v1.33/bin/bin/../../lib/gcc/pic32mx/4.5.2/../../../../pic32mx/lib/libpic32.a(default-on-reset.o)
 .debug_frame   0x000037e0       0x20 /opt/microchip/xc32/v1.33/bin/bin/../../lib/gcc/pic32mx/4.5.2/../../../../pic32mx/lib/libpic32.a(default-on-bootstrap.o)
 .debug_frame   0x00003800       0x28 /opt/microchip/xc32/v1.33/bin/bin/../../lib/gcc/pic32mx/4.5.2/../../../../pic32mx/lib/libpic32.a(default-general-exception-handler.o)
 .debug_frame   0x00003828       0x20 /opt/microchip/xc32/v1.33/bin/bin/../../lib/gcc/pic32mx/4.5.2/../../../../pic32mx/lib/libpic32.a(defaultinterrupt.o)
 .debug_frame   0x00003848      0x120 /opt/microchip/xc32/v1.33/bin/bin/../../lib/gcc/pic32mx/4.5.2/../../../../pic32mx/lib/libc.a(ctypef.o)
 .debug_frame   0x00003968       0x30 /opt/microchip/xc32/v1.33/bin/bin/../../lib/gcc/pic32mx/4.5.2/../../../../pic32mx/lib/libc.a(rand.o)
 .debug_frame   0x00003998       0x20 /opt/microchip/xc32/v1.33/bin/bin/../../lib/gcc/pic32mx/4.5.2/../../../../pic32mx/lib/libc.a(strncmp.o)
 .debug_frame   0x000039b8       0x20 /opt/microchip/xc32/v1.33/bin/bin/../../lib/gcc/pic32mx/4.5.2/../../../../pic32mx/lib/libc.a(strncpy.o)
 .debug_frame   0x000039d8       0x28 /opt/microchip/xc32/v1.33/bin/bin/../../lib/gcc/pic32mx/4.5.2/../../../../pic32mx/lib/libc.a(snprintf_cdnopuxX.eo)
 .debug_frame   0x00003a00       0x28 /opt/microchip/xc32/v1.33/bin/bin/../../lib/gcc/pic32mx/4.5.2/../../../../pic32mx/lib/libc.a(snprintf.o)
 .debug_frame   0x00003a28       0x2c /opt/microchip/xc32/v1.33/bin/bin/../../lib/gcc/pic32mx/4.5.2/../../../../pic32mx/lib/libc.a(sprintf_cdnopuxX.eo)
 .debug_frame   0x00003a54       0x2c /opt/microchip/xc32/v1.33/bin/bin/../../lib/gcc/pic32mx/4.5.2/../../../../pic32mx/lib/libc.a(sprintf.o)
 .debug_frame   0x00003a80       0x28 /opt/microchip/xc32/v1.33/bin/bin/../../lib/gcc/pic32mx/4.5.2/../../../../pic32mx/lib/libc.a(sscanf_cdfFnopsuxX.eo)
 .debug_frame   0x00003aa8       0x28 /opt/microchip/xc32/v1.33/bin/bin/../../lib/gcc/pic32mx/4.5.2/../../../../pic32mx/lib/libc.a(vsnprintf_cdnopuxX.eo)
 .debug_frame   0x00003ad0       0x28 /opt/microchip/xc32/v1.33/bin/bin/../../lib/gcc/pic32mx/4.5.2/../../../../pic32mx/lib/libc.a(vsnprintf.o)
 .debug_frame   0x00003af8       0x38 /opt/microchip/xc32/v1.33/bin/bin/../../lib/gcc/pic32mx/4.5.2/../../../../pic32mx/lib/libc.a(doprnt_cdnopuxX.eo)
 .debug_frame   0x00003b30       0x74 /opt/microchip/xc32/v1.33/bin/bin/../../lib/gcc/pic32mx/4.5.2/../../../../pic32mx/lib/libc.a(doprnt.o)
 .debug_frame   0x00003ba4       0x74 /opt/microchip/xc32/v1.33/bin/bin/../../lib/gcc/pic32mx/4.5.2/../../../../pic32mx/lib/libc.a(doscan_cdfFnopsuxX.eo)
 .debug_frame   0x00003c18       0x74 /opt/microchip/xc32/v1.33/bin/bin/../../lib/gcc/pic32mx/4.5.2/../../../../pic32mx/lib/libc.a(doscan_cdnopuxX.eo)
 .debug_frame   0x00003c8c       0x30 /opt/microchip/xc32/v1.33/bin/bin/../../lib/gcc/pic32mx/4.5.2/../../../../pic32mx/lib/libc.a(fgetc.o)
 .debug_frame   0x00003cbc       0x2c /opt/microchip/xc32/v1.33/bin/bin/../../lib/gcc/pic32mx/4.5.2/../../../../pic32mx/lib/libc.a(_fputc_simple.o)
 .debug_frame   0x00003ce8       0x20 /opt/microchip/xc32/v1.33/bin/bin/../../lib/gcc/pic32mx/4.5.2/../../../../pic32mx/lib/libc.a(atoi.o)
 .debug_frame   0x00003d08       0x40 /opt/microchip/xc32/v1.33/bin/bin/../../lib/gcc/pic32mx/4.5.2/../../../../pic32mx/lib/libc.a(strtod.o)
 .debug_frame   0x00003d48       0x40 /opt/microchip/xc32/v1.33/bin/bin/../../lib/gcc/pic32mx/4.5.2/../../../../pic32mx/lib/libc.a(strtof.o)
 .debug_frame   0x00003d88       0x20 /opt/microchip/xc32/v1.33/bin/bin/../../lib/gcc/pic32mx/4.5.2/../../../../pic32mx/lib/libc.a(ungetc.o)
 .debug_frame   0x00003da8       0x30 /opt/microchip/xc32/v1.33/bin/bin/../../lib/gcc/pic32mx/4.5.2/../../../../pic32mx/lib/libc.a(filbuf.o)
 .debug_frame   0x00003dd8       0x28 /opt/microchip/xc32/v1.33/bin/bin/../../lib/gcc/pic32mx/4.5.2/../../../../pic32mx/lib/libc.a(_flsbuf_simple.o)
 .debug_frame   0x00003e00       0x2c /opt/microchip/xc32/v1.33/bin/bin/../../lib/gcc/pic32mx/4.5.2/../../../../pic32mx/lib/libc.a(fflush.o)
 .debug_frame   0x00003e2c       0x2c /opt/microchip/xc32/v1.33/bin/bin/../../lib/gcc/pic32mx/4.5.2/../../../../pic32mx/lib/libpic32.a(read.o)
 .debug_frame   0x00003e58       0x28 /opt/microchip/xc32/v1.33/bin/bin/../../lib/gcc/pic32mx/4.5.2/../../../../pic32mx/lib/libpic32.a(write.o)
 .debug_frame   0x00003e80       0x20 /opt/microchip/xc32/v1.33/bin/bin/../../lib/gcc/pic32mx/4.5.2/../../../../pic32mx/lib/libpic32.a(_mon_putc.o)
 .debug_frame   0x00003ea0       0x38 /opt/microchip/xc32/v1.33/bin/bin/../../lib/gcc/pic32mx/4.5.2/../../../../pic32mx/lib/libm.a(__strtod.o)
 .debug_frame   0x00003ed8       0x38 /opt/microchip/xc32/v1.33/bin/bin/../../lib/gcc/pic32mx/4.5.2/../../../../pic32mx/lib/libm.a(__strtof.o)
 .debug_frame   0x00003f10       0x20 /opt/microchip/xc32/v1.33/bin/bin/../../lib/gcc/pic32mx/4.5.2/../../../../pic32mx/lib/libe.a(_floatdisf.o)
 .debug_frame   0x00003f30       0x30 /opt/microchip/xc32/v1.33/bin/bin/../../lib/gcc/pic32mx/4.5.2/../../../../pic32mx/lib/libe.a(_ldexp.o)
 .debug_frame   0x00003f60       0x20 /opt/microchip/xc32/v1.33/bin/bin/../../lib/gcc/pic32mx/4.5.2/../../../../pic32mx/lib/libe.a(_ldexpf.o)
 .debug_frame   0x00003f80       0x20 /opt/microchip/xc32/v1.33/bin/bin/../../lib/gcc/pic32mx/4.5.2/libgcc.a(_lshrdi3.o)
 .debug_frame   0x00003fa0       0x20 /opt/microchip/xc32/v1.33/bin/bin/../../lib/gcc/pic32mx/4.5.2/libgcc.a(_ashldi3.o)
 .debug_frame   0x00003fc0       0x2c /opt/microchip/xc32/v1.33/bin/bin/../../lib/gcc/pic32mx/4.5.2/libgcc.a(_floatundisf.o)
 .debug_frame   0x00003fec       0x20 /opt/microchip/xc32/v1.33/bin/bin/../../lib/gcc/pic32mx/4.5.2/libgcc.a(_umoddi3.o)
 .debug_frame   0x0000400c       0x28 /opt/microchip/xc32/v1.33/bin/bin/../../lib/gcc/pic32mx/4.5.2/libgcc.a(floatunsisf.o)

.debug_str      0x00000000     0x5662
 *(.debug_str)
 .debug_str     0x00000000      0x692 build/debug/production/_ext/1209914024/FSIO.o
 .debug_str     0x00000692      0x26c build/debug/production/_ext/1209914024/SD-SPI.o
 .debug_str     0x000008fe      0x231 build/debug/production/_ext/1019771169/SClib.o
 .debug_str     0x00000b2f      0x210 build/debug/production/_ext/1019771169/SCpic32.o
 .debug_str     0x00000d3f      0x204 build/debug/production/_ext/631258897/usb_function_cdc.o
 .debug_str     0x00000f43      0x3a6 build/debug/production/_ext/186742988/usb_device.o
 .debug_str     0x000012e9      0x14f build/debug/production/src/indala.o
 .debug_str     0x00001438      0x451 build/debug/production/src/main.o
 .debug_str     0x00001889      0x223 build/debug/production/src/psk.o
 .debug_str     0x00001aac      0x174 build/debug/production/src/usb_descriptors.o
 .debug_str     0x00001c20      0x196 build/debug/production/src/util.o
 .debug_str     0x00001db6      0x13d build/debug/production/src/emulate.o
 .debug_str     0x00001ef3      0x20a build/debug/production/src/ask.o
 .debug_str     0x000020fd      0x212 build/debug/production/src/fsk.o
 .debug_str     0x0000230f      0x1f5 build/debug/production/src/clock.o
 .debug_str     0x00002504      0x1d2 build/debug/production/src/rwd.o
 .debug_str     0x000026d6      0x154 build/debug/production/src/detect.o
 .debug_str     0x0000282a      0x150 build/debug/production/src/hitagcrypto.o
 .debug_str     0x0000297a      0x1b1 build/debug/production/src/wiegand.o
 .debug_str     0x00002b2b      0x199 build/debug/production/src/comms.o
 .debug_str     0x00002cc4      0x179 build/debug/production/src/nvm.o
 .debug_str     0x00002e3d      0x143 build/debug/production/src/mcp414x.o
 .debug_str     0x00002f80      0x14f build/debug/production/src/spi.o
 .debug_str     0x000030cf      0x14d build/debug/production/src/uart3.o
 .debug_str     0x0000321c      0x18a build/debug/production/src/tags.o
 .debug_str     0x000033a6      0x13f build/debug/production/src/unique.o
 .debug_str     0x000034e5      0x153 build/debug/production/src/led.o
 .debug_str     0x00003638      0x17c build/debug/production/src/em.o
 .debug_str     0x000037b4      0x138 build/debug/production/src/hid.o
 .debug_str     0x000038ec      0x13d build/debug/production/src/read.o
 .debug_str     0x00003a29      0x2f6 build/debug/production/src/isr.o
 .debug_str     0x00003d1f      0x167 build/debug/production/src/auto.o
 .debug_str     0x00003e86      0x138 build/debug/production/src/fdxb.o
 .debug_str     0x00003fbe      0x1c5 build/debug/production/src/hitag.o
 .debug_str     0x00004183      0x146 build/debug/production/src/uid.o
 .debug_str     0x000042c9      0x13d build/debug/production/src/login.o
 .debug_str     0x00004406      0x13d build/debug/production/src/write.o
 .debug_str     0x00004543      0x13d build/debug/production/src/auth.o
 .debug_str     0x00004680      0x197 build/debug/production/src/q5.o
 .debug_str     0x00004817      0x1d3 build/debug/production/src/vtag.o
 .debug_str     0x000049ea      0x13d build/debug/production/src/config.o
 .debug_str     0x00004b27      0x13d build/debug/production/src/select.o
 .debug_str     0x00004c64      0x13a build/debug/production/src/sdcard.o
 .debug_str     0x00004d9e      0x141 build/debug/production/src/debug_pins.o
 .debug_str     0x00004edf      0x13f build/debug/production/src/awid.o
 .debug_str     0x0000501e      0x1c9 build/debug/production/src/analogue.o
 .debug_str     0x000051e7      0x151 build/debug/production/src/iso7816.o
 .debug_str     0x00005338      0x1af build/debug/production/src/t55x7.o
 .debug_str     0x000054e7      0x169 build/debug/production/src/sniff.o
 .debug_str     0x00005650        0x0 /opt/microchip/xc32/v1.33/pic32mx/lib/libmchp_peripheral_32MX795F512L.a(soft_reset_lib.o)
 .debug_str     0x00005650        0x0 /opt/microchip/xc32/v1.33/pic32mx/lib/libmchp_peripheral_32MX795F512L.a(pcache.o)
 .debug_str     0x00005650        0x0 /opt/microchip/xc32/v1.33/pic32mx/lib/libmchp_peripheral_32MX795F512L.a(int_configure_system_lib.o)
 .debug_str     0x00005650        0x0 /opt/microchip/xc32/v1.33/pic32mx/lib/libmchp_peripheral_32MX795F512L.a(int_enable_interrupts_lib.o)
 .debug_str     0x00005650        0x0 /opt/microchip/xc32/v1.33/pic32mx/lib/libmchp_peripheral_32MX795F512L.a(int_disable_interrupts_lib.o)
 .debug_str     0x00005650        0x0 /opt/microchip/xc32/v1.33/pic32mx/lib/libmchp_peripheral_32MX795F512L.a(int_restore_interrupts_lib.o)
 .debug_str     0x00005650        0x0 /opt/microchip/xc32/v1.33/pic32mx/lib/libmchp_peripheral_32MX795F512L.a(int_enable_mv_int_lib.o)
 .debug_str     0x00005650        0x0 /opt/microchip/xc32/v1.33/pic32mx/lib/libmchp_peripheral_32MX795F512L.a(int_tbl_lib.o)
 .debug_str     0x00005650        0x0 /opt/microchip/xc32/v1.33/pic32mx/lib/libmchp_peripheral_32MX795F512L.a(spi_chn_close_lib.o)
 .debug_str     0x00005650        0x0 /opt/microchip/xc32/v1.33/pic32mx/lib/libmchp_peripheral_32MX795F512L.a(spi_chn_open_lib.o)
 .debug_str     0x00005650        0x0 /opt/microchip/xc32/v1.33/pic32mx/lib/libmchp_peripheral_32MX795F512L.a(spi_io_tbl_libp.o)
 .debug_str     0x00005650        0x0 /opt/microchip/xc32/v1.33/pic32mx/lib/libmchp_peripheral_32MX795F512L.a(spi_map_tbl_libp.o)
 .debug_str     0x00005650        0x0 /opt/microchip/xc32/v1.33/pic32mx/lib/libmchp_peripheral_32MX795F512L.a(spi_getc_spi1_lib_legacy.o)
 .debug_str     0x00005650        0x0 /opt/microchip/xc32/v1.33/pic32mx/lib/libmchp_peripheral_32MX795F512L.a(spi_open_spi1_lib_legacy.o)
 .debug_str     0x00005650        0x0 /opt/microchip/xc32/v1.33/pic32mx/lib/libmchp_peripheral_32MX795F512L.a(spi_brg_tbl_lib_legacy.o)
 .debug_str     0x00005650        0x0 /opt/microchip/xc32/v1.33/pic32mx/lib/libmchp_peripheral_32MX795F512L.a(nvm_erase_page_lib.o)
 .debug_str     0x00005650        0x0 /opt/microchip/xc32/v1.33/pic32mx/lib/libmchp_peripheral_32MX795F512L.a(nvm_operation_lib.o)
 .debug_str     0x00005650        0x0 /opt/microchip/xc32/v1.33/pic32mx/lib/libmchp_peripheral_32MX795F512L.a(nvm_program_lib.o)
 .debug_str     0x00005650        0x0 /opt/microchip/xc32/v1.33/pic32mx/lib/libmchp_peripheral_32MX795F512L.a(nvm_write_row_lib.o)
 .debug_str     0x00005650        0x0 /opt/microchip/xc32/v1.33/pic32mx/lib/libmchp_peripheral_32MX795F512L.a(port_reset_pins_lib.o)
 .debug_str     0x00005650        0x0 /opt/microchip/xc32/v1.33/pic32mx/lib/libmchp_peripheral_32MX795F512L.a(port_set_pins_digital_in_lib.o)
 .debug_str     0x00005650        0x0 /opt/microchip/xc32/v1.33/pic32mx/lib/libmchp_peripheral_32MX795F512L.a(port_set_pins_digital_out_lib.o)
 .debug_str     0x00005650        0x0 /opt/microchip/xc32/v1.33/pic32mx/lib/libmchp_peripheral_32MX795F512L.a(_ports_tbl_libp.o)
 .debug_str     0x00005650        0x0 /opt/microchip/xc32/v1.33/bin/bin/../../lib/gcc/pic32mx/4.5.2/libgcc.a(_udivdi3.o)
 .debug_str     0x00005650        0x0 /opt/microchip/xc32/v1.33/bin/bin/../../lib/gcc/pic32mx/4.5.2/../../../../pic32mx/lib/libpic32.a(default-bootstrap-exception-handler.o)
 .debug_str     0x00005650        0x0 /opt/microchip/xc32/v1.33/bin/bin/../../lib/gcc/pic32mx/4.5.2/../../../../pic32mx/lib/libpic32.a(default-on-reset.o)
 .debug_str     0x00005650        0x0 /opt/microchip/xc32/v1.33/bin/bin/../../lib/gcc/pic32mx/4.5.2/../../../../pic32mx/lib/libpic32.a(default-on-bootstrap.o)
 .debug_str     0x00005650        0x0 /opt/microchip/xc32/v1.33/bin/bin/../../lib/gcc/pic32mx/4.5.2/../../../../pic32mx/lib/libpic32.a(default-general-exception-handler.o)
 .debug_str     0x00005650        0x0 /opt/microchip/xc32/v1.33/bin/bin/../../lib/gcc/pic32mx/4.5.2/../../../../pic32mx/lib/libpic32.a(defaultinterrupt.o)
 .debug_str     0x00005650        0x0 /opt/microchip/xc32/v1.33/bin/bin/../../lib/gcc/pic32mx/4.5.2/../../../../pic32mx/lib/libc.a(ctypef.o)
 .debug_str     0x00005650        0x0 /opt/microchip/xc32/v1.33/bin/bin/../../lib/gcc/pic32mx/4.5.2/../../../../pic32mx/lib/libc.a(rand.o)
 .debug_str     0x00005650        0x0 /opt/microchip/xc32/v1.33/bin/bin/../../lib/gcc/pic32mx/4.5.2/../../../../pic32mx/lib/libc.a(strncmp.o)
 .debug_str     0x00005650        0x0 /opt/microchip/xc32/v1.33/bin/bin/../../lib/gcc/pic32mx/4.5.2/../../../../pic32mx/lib/libc.a(strncpy.o)
 .debug_str     0x00005650        0x0 /opt/microchip/xc32/v1.33/bin/bin/../../lib/gcc/pic32mx/4.5.2/../../../../pic32mx/lib/libc.a(snprintf_cdnopuxX.eo)
 .debug_str     0x00005650        0x0 /opt/microchip/xc32/v1.33/bin/bin/../../lib/gcc/pic32mx/4.5.2/../../../../pic32mx/lib/libc.a(snprintf.o)
 .debug_str     0x00005650        0x0 /opt/microchip/xc32/v1.33/bin/bin/../../lib/gcc/pic32mx/4.5.2/../../../../pic32mx/lib/libc.a(sprintf_cdnopuxX.eo)
 .debug_str     0x00005650        0x0 /opt/microchip/xc32/v1.33/bin/bin/../../lib/gcc/pic32mx/4.5.2/../../../../pic32mx/lib/libc.a(sprintf.o)
 .debug_str     0x00005650        0x0 /opt/microchip/xc32/v1.33/bin/bin/../../lib/gcc/pic32mx/4.5.2/../../../../pic32mx/lib/libc.a(sscanf_cdfFnopsuxX.eo)
 .debug_str     0x00005650        0x0 /opt/microchip/xc32/v1.33/bin/bin/../../lib/gcc/pic32mx/4.5.2/../../../../pic32mx/lib/libc.a(vsnprintf_cdnopuxX.eo)
 .debug_str     0x00005650        0x0 /opt/microchip/xc32/v1.33/bin/bin/../../lib/gcc/pic32mx/4.5.2/../../../../pic32mx/lib/libc.a(vsnprintf.o)
 .debug_str     0x00005650        0x0 /opt/microchip/xc32/v1.33/bin/bin/../../lib/gcc/pic32mx/4.5.2/../../../../pic32mx/lib/libc.a(ctype.o)
 .debug_str     0x00005650        0x0 /opt/microchip/xc32/v1.33/bin/bin/../../lib/gcc/pic32mx/4.5.2/../../../../pic32mx/lib/libc.a(doprnt_cdnopuxX.eo)
 .debug_str     0x00005650        0x0 /opt/microchip/xc32/v1.33/bin/bin/../../lib/gcc/pic32mx/4.5.2/../../../../pic32mx/lib/libc.a(doprnt.o)
 .debug_str     0x00005650        0x0 /opt/microchip/xc32/v1.33/bin/bin/../../lib/gcc/pic32mx/4.5.2/../../../../pic32mx/lib/libc.a(doscan_cdfFnopsuxX.eo)
 .debug_str     0x00005650        0x0 /opt/microchip/xc32/v1.33/bin/bin/../../lib/gcc/pic32mx/4.5.2/../../../../pic32mx/lib/libc.a(doscan_cdnopuxX.eo)
 .debug_str     0x00005650        0x0 /opt/microchip/xc32/v1.33/bin/bin/../../lib/gcc/pic32mx/4.5.2/../../../../pic32mx/lib/libc.a(fgetc.o)
 .debug_str     0x00005650        0x0 /opt/microchip/xc32/v1.33/bin/bin/../../lib/gcc/pic32mx/4.5.2/../../../../pic32mx/lib/libc.a(_fputc_simple.o)
 .debug_str     0x00005650        0x0 /opt/microchip/xc32/v1.33/bin/bin/../../lib/gcc/pic32mx/4.5.2/../../../../pic32mx/lib/libc.a(atoi.o)
 .debug_str     0x00005650        0x0 /opt/microchip/xc32/v1.33/bin/bin/../../lib/gcc/pic32mx/4.5.2/../../../../pic32mx/lib/libc.a(powersf.o)
 .debug_str     0x00005650        0x9 /opt/microchip/xc32/v1.33/bin/bin/../../lib/gcc/pic32mx/4.5.2/../../../../pic32mx/lib/libc.a(strtod.o)
 .debug_str     0x00005659        0x9 /opt/microchip/xc32/v1.33/bin/bin/../../lib/gcc/pic32mx/4.5.2/../../../../pic32mx/lib/libc.a(strtof.o)
 .debug_str     0x00005662        0x0 /opt/microchip/xc32/v1.33/bin/bin/../../lib/gcc/pic32mx/4.5.2/../../../../pic32mx/lib/libc.a(ungetc.o)
 .debug_str     0x00005662        0x0 /opt/microchip/xc32/v1.33/bin/bin/../../lib/gcc/pic32mx/4.5.2/../../../../pic32mx/lib/libc.a(_iob.o)
 .debug_str     0x00005662        0x0 /opt/microchip/xc32/v1.33/bin/bin/../../lib/gcc/pic32mx/4.5.2/../../../../pic32mx/lib/libc.a(filbuf.o)
 .debug_str     0x00005662        0x0 /opt/microchip/xc32/v1.33/bin/bin/../../lib/gcc/pic32mx/4.5.2/../../../../pic32mx/lib/libc.a(_flsbuf_simple.o)
 .debug_str     0x00005662        0x0 /opt/microchip/xc32/v1.33/bin/bin/../../lib/gcc/pic32mx/4.5.2/../../../../pic32mx/lib/libc.a(fflush.o)
 .debug_str     0x00005662        0x0 /opt/microchip/xc32/v1.33/bin/bin/../../lib/gcc/pic32mx/4.5.2/../../../../pic32mx/lib/libpic32.a(read.o)
 .debug_str     0x00005662        0x0 /opt/microchip/xc32/v1.33/bin/bin/../../lib/gcc/pic32mx/4.5.2/../../../../pic32mx/lib/libpic32.a(write.o)
 .debug_str     0x00005662        0x0 /opt/microchip/xc32/v1.33/bin/bin/../../lib/gcc/pic32mx/4.5.2/../../../../pic32mx/lib/libpic32.a(xc32_uart.o)
 .debug_str     0x00005662        0x0 /opt/microchip/xc32/v1.33/bin/bin/../../lib/gcc/pic32mx/4.5.2/../../../../pic32mx/lib/libpic32.a(_mon_putc.o)
 .debug_str     0x00005662        0x0 /opt/microchip/xc32/v1.33/bin/bin/../../lib/gcc/pic32mx/4.5.2/../../../../pic32mx/lib/libm.a(__strtod.o)
 .debug_str     0x00005662        0x0 /opt/microchip/xc32/v1.33/bin/bin/../../lib/gcc/pic32mx/4.5.2/../../../../pic32mx/lib/libm.a(__strtof.o)
 .debug_str     0x00005662        0x0 /opt/microchip/xc32/v1.33/bin/bin/../../lib/gcc/pic32mx/4.5.2/../../../../pic32mx/lib/libe.a(_floatdisf.o)
 .debug_str     0x00005662        0x0 /opt/microchip/xc32/v1.33/bin/bin/../../lib/gcc/pic32mx/4.5.2/../../../../pic32mx/lib/libe.a(_ldexp.o)
 .debug_str     0x00005662        0x0 /opt/microchip/xc32/v1.33/bin/bin/../../lib/gcc/pic32mx/4.5.2/../../../../pic32mx/lib/libe.a(_ldexpf.o)
 .debug_str     0x00005662        0x0 /opt/microchip/xc32/v1.33/bin/bin/../../lib/gcc/pic32mx/4.5.2/libgcc.a(_lshrdi3.o)
 .debug_str     0x00005662        0x0 /opt/microchip/xc32/v1.33/bin/bin/../../lib/gcc/pic32mx/4.5.2/libgcc.a(_ashldi3.o)
 .debug_str     0x00005662        0x0 /opt/microchip/xc32/v1.33/bin/bin/../../lib/gcc/pic32mx/4.5.2/libgcc.a(_floatundisf.o)
 .debug_str     0x00005662        0x0 /opt/microchip/xc32/v1.33/bin/bin/../../lib/gcc/pic32mx/4.5.2/libgcc.a(_umoddi3.o)
 .debug_str     0x00005662        0x0 /opt/microchip/xc32/v1.33/bin/bin/../../lib/gcc/pic32mx/4.5.2/libgcc.a(floatunsisf.o)
 .debug_str     0x00005662        0x0 /opt/microchip/xc32/v1.33/bin/bin/../../lib/gcc/pic32mx/4.5.2/../../../../pic32mx/lib/libc.a(errno.o)

.debug_loc      0x00000000     0x1514
 *(.debug_loc)
 .debug_loc     0x00000000      0x9c3 /opt/microchip/xc32/v1.33/bin/bin/../../lib/gcc/pic32mx/4.5.2/libgcc.a(_udivdi3.o)
 .debug_loc     0x000009c3       0x4f /opt/microchip/xc32/v1.33/bin/bin/../../lib/gcc/pic32mx/4.5.2/libgcc.a(_lshrdi3.o)
 .debug_loc     0x00000a12       0x3c /opt/microchip/xc32/v1.33/bin/bin/../../lib/gcc/pic32mx/4.5.2/libgcc.a(_ashldi3.o)
 .debug_loc     0x00000a4e       0xc9 /opt/microchip/xc32/v1.33/bin/bin/../../lib/gcc/pic32mx/4.5.2/libgcc.a(_floatundisf.o)
 .debug_loc     0x00000b17      0x995 /opt/microchip/xc32/v1.33/bin/bin/../../lib/gcc/pic32mx/4.5.2/libgcc.a(_umoddi3.o)
 .debug_loc     0x000014ac       0x68 /opt/microchip/xc32/v1.33/bin/bin/../../lib/gcc/pic32mx/4.5.2/libgcc.a(floatunsisf.o)

.debug_macinfo
 *(.debug_macinfo)

.debug_weaknames
 *(.debug_weaknames)

.debug_funcnames
 *(.debug_funcnames)

.debug_typenames
 *(.debug_typenames)

.debug_varnames
 *(.debug_varnames)

.debug_pubtypes
                0x00000000     0x42bf
 *(.debug_pubtypes)
 .debug_pubtypes
                0x00000000      0x261 build/debug/production/_ext/1209914024/FSIO.o
 .debug_pubtypes
                0x00000261      0x220 build/debug/production/_ext/1209914024/SD-SPI.o
 .debug_pubtypes
                0x00000481      0x1aa build/debug/production/_ext/1019771169/SClib.o
 .debug_pubtypes
                0x0000062b      0x203 build/debug/production/_ext/1019771169/SCpic32.o
 .debug_pubtypes
                0x0000082e      0x249 build/debug/production/_ext/631258897/usb_function_cdc.o
 .debug_pubtypes
                0x00000a77      0x2af build/debug/production/_ext/186742988/usb_device.o
 .debug_pubtypes
                0x00000d26      0x125 build/debug/production/src/indala.o
 .debug_pubtypes
                0x00000e4b      0x2c9 build/debug/production/src/main.o
 .debug_pubtypes
                0x00001114      0x159 build/debug/production/src/psk.o
 .debug_pubtypes
                0x0000126d      0x12e build/debug/production/src/usb_descriptors.o
 .debug_pubtypes
                0x0000139b      0x12f build/debug/production/src/util.o
 .debug_pubtypes
                0x000014ca      0x114 build/debug/production/src/emulate.o
 .debug_pubtypes
                0x000015de      0x159 build/debug/production/src/ask.o
 .debug_pubtypes
                0x00001737      0x159 build/debug/production/src/fsk.o
 .debug_pubtypes
                0x00001890      0x158 build/debug/production/src/clock.o
 .debug_pubtypes
                0x000019e8      0x125 build/debug/production/src/rwd.o
 .debug_pubtypes
                0x00001b0d      0x135 build/debug/production/src/detect.o
 .debug_pubtypes
                0x00001c42      0x123 build/debug/production/src/hitagcrypto.o
 .debug_pubtypes
                0x00001d65      0x17d build/debug/production/src/wiegand.o
 .debug_pubtypes
                0x00001ee2      0x13c build/debug/production/src/comms.o
 .debug_pubtypes
                0x0000201e      0x123 build/debug/production/src/nvm.o
 .debug_pubtypes
                0x00002141       0xfa build/debug/production/src/mcp414x.o
 .debug_pubtypes
                0x0000223b      0x105 build/debug/production/src/spi.o
 .debug_pubtypes
                0x00002340      0x11d build/debug/production/src/uart3.o
 .debug_pubtypes
                0x0000245d      0x123 build/debug/production/src/tags.o
 .debug_pubtypes
                0x00002580      0x103 build/debug/production/src/unique.o
 .debug_pubtypes
                0x00002683      0x147 build/debug/production/src/led.o
 .debug_pubtypes
                0x000027ca      0x148 build/debug/production/src/em.o
 .debug_pubtypes
                0x00002912      0x103 build/debug/production/src/hid.o
 .debug_pubtypes
                0x00002a15      0x114 build/debug/production/src/read.o
 .debug_pubtypes
                0x00002b29      0x16a build/debug/production/src/isr.o
 .debug_pubtypes
                0x00002c93      0x123 build/debug/production/src/auto.o
 .debug_pubtypes
                0x00002db6      0x103 build/debug/production/src/fdxb.o
 .debug_pubtypes
                0x00002eb9      0x133 build/debug/production/src/hitag.o
 .debug_pubtypes
                0x00002fec      0x114 build/debug/production/src/uid.o
 .debug_pubtypes
                0x00003100      0x114 build/debug/production/src/login.o
 .debug_pubtypes
                0x00003214      0x114 build/debug/production/src/write.o
 .debug_pubtypes
                0x00003328      0x114 build/debug/production/src/auth.o
 .debug_pubtypes
                0x0000343c      0x135 build/debug/production/src/q5.o
 .debug_pubtypes
                0x00003571      0x123 build/debug/production/src/vtag.o
 .debug_pubtypes
                0x00003694      0x103 build/debug/production/src/config.o
 .debug_pubtypes
                0x00003797      0x114 build/debug/production/src/select.o
 .debug_pubtypes
                0x000038ab      0x108 build/debug/production/src/sdcard.o
 .debug_pubtypes
                0x000039b3      0x125 build/debug/production/src/debug_pins.o
 .debug_pubtypes
                0x00003ad8      0x103 build/debug/production/src/awid.o
 .debug_pubtypes
                0x00003bdb      0x137 build/debug/production/src/analogue.o
 .debug_pubtypes
                0x00003d12      0x135 build/debug/production/src/iso7816.o
 .debug_pubtypes
                0x00003e47      0x135 build/debug/production/src/t55x7.o
 .debug_pubtypes
                0x00003f7c      0x159 build/debug/production/src/sniff.o
 .debug_pubtypes
                0x000040d5       0x59 /opt/microchip/xc32/v1.33/bin/bin/../../lib/gcc/pic32mx/4.5.2/libgcc.a(_udivdi3.o)
 .debug_pubtypes
                0x0000412e       0x62 /opt/microchip/xc32/v1.33/bin/bin/../../lib/gcc/pic32mx/4.5.2/libgcc.a(_lshrdi3.o)
 .debug_pubtypes
                0x00004190       0x62 /opt/microchip/xc32/v1.33/bin/bin/../../lib/gcc/pic32mx/4.5.2/libgcc.a(_ashldi3.o)
 .debug_pubtypes
                0x000041f2       0x40 /opt/microchip/xc32/v1.33/bin/bin/../../lib/gcc/pic32mx/4.5.2/libgcc.a(_floatundisf.o)
 .debug_pubtypes
                0x00004232       0x59 /opt/microchip/xc32/v1.33/bin/bin/../../lib/gcc/pic32mx/4.5.2/libgcc.a(_umoddi3.o)
 .debug_pubtypes
                0x0000428b       0x34 /opt/microchip/xc32/v1.33/bin/bin/../../lib/gcc/pic32mx/4.5.2/libgcc.a(floatunsisf.o)

.debug_ranges   0x00000000      0x318
 *(.debug_ranges)
 .debug_ranges  0x00000000       0x10 /opt/microchip/xc32/v1.33/bin/bin/../../lib/gcc/pic32mx/4.5.2/../../../../pic32mx/lib/libpic32.a(default-bootstrap-exception-handler.o)
 .debug_ranges  0x00000010       0x10 /opt/microchip/xc32/v1.33/bin/bin/../../lib/gcc/pic32mx/4.5.2/../../../../pic32mx/lib/libpic32.a(default-on-reset.o)
 .debug_ranges  0x00000020       0x10 /opt/microchip/xc32/v1.33/bin/bin/../../lib/gcc/pic32mx/4.5.2/../../../../pic32mx/lib/libpic32.a(default-on-bootstrap.o)
 .debug_ranges  0x00000030       0x10 /opt/microchip/xc32/v1.33/bin/bin/../../lib/gcc/pic32mx/4.5.2/../../../../pic32mx/lib/libpic32.a(default-general-exception-handler.o)
 .debug_ranges  0x00000040       0x10 /opt/microchip/xc32/v1.33/bin/bin/../../lib/gcc/pic32mx/4.5.2/../../../../pic32mx/lib/libpic32.a(defaultinterrupt.o)
 .debug_ranges  0x00000050       0x90 /opt/microchip/xc32/v1.33/bin/bin/../../lib/gcc/pic32mx/4.5.2/../../../../pic32mx/lib/libc.a(ctypef.o)
 .debug_ranges  0x000000e0       0x18 /opt/microchip/xc32/v1.33/bin/bin/../../lib/gcc/pic32mx/4.5.2/../../../../pic32mx/lib/libc.a(rand.o)
 .debug_ranges  0x000000f8       0x10 /opt/microchip/xc32/v1.33/bin/bin/../../lib/gcc/pic32mx/4.5.2/../../../../pic32mx/lib/libc.a(strncmp.o)
 .debug_ranges  0x00000108       0x10 /opt/microchip/xc32/v1.33/bin/bin/../../lib/gcc/pic32mx/4.5.2/../../../../pic32mx/lib/libc.a(strncpy.o)
 .debug_ranges  0x00000118       0x10 /opt/microchip/xc32/v1.33/bin/bin/../../lib/gcc/pic32mx/4.5.2/../../../../pic32mx/lib/libc.a(snprintf_cdnopuxX.eo)
 .debug_ranges  0x00000128       0x10 /opt/microchip/xc32/v1.33/bin/bin/../../lib/gcc/pic32mx/4.5.2/../../../../pic32mx/lib/libc.a(snprintf.o)
 .debug_ranges  0x00000138       0x10 /opt/microchip/xc32/v1.33/bin/bin/../../lib/gcc/pic32mx/4.5.2/../../../../pic32mx/lib/libc.a(sprintf_cdnopuxX.eo)
 .debug_ranges  0x00000148       0x10 /opt/microchip/xc32/v1.33/bin/bin/../../lib/gcc/pic32mx/4.5.2/../../../../pic32mx/lib/libc.a(sprintf.o)
 .debug_ranges  0x00000158       0x10 /opt/microchip/xc32/v1.33/bin/bin/../../lib/gcc/pic32mx/4.5.2/../../../../pic32mx/lib/libc.a(sscanf_cdfFnopsuxX.eo)
 .debug_ranges  0x00000168       0x10 /opt/microchip/xc32/v1.33/bin/bin/../../lib/gcc/pic32mx/4.5.2/../../../../pic32mx/lib/libc.a(vsnprintf_cdnopuxX.eo)
 .debug_ranges  0x00000178       0x10 /opt/microchip/xc32/v1.33/bin/bin/../../lib/gcc/pic32mx/4.5.2/../../../../pic32mx/lib/libc.a(vsnprintf.o)
 .debug_ranges  0x00000188       0x10 /opt/microchip/xc32/v1.33/bin/bin/../../lib/gcc/pic32mx/4.5.2/../../../../pic32mx/lib/libc.a(doprnt_cdnopuxX.eo)
 .debug_ranges  0x00000198       0x20 /opt/microchip/xc32/v1.33/bin/bin/../../lib/gcc/pic32mx/4.5.2/../../../../pic32mx/lib/libc.a(doprnt.o)
 .debug_ranges  0x000001b8       0x20 /opt/microchip/xc32/v1.33/bin/bin/../../lib/gcc/pic32mx/4.5.2/../../../../pic32mx/lib/libc.a(doscan_cdfFnopsuxX.eo)
 .debug_ranges  0x000001d8       0x20 /opt/microchip/xc32/v1.33/bin/bin/../../lib/gcc/pic32mx/4.5.2/../../../../pic32mx/lib/libc.a(doscan_cdnopuxX.eo)
 .debug_ranges  0x000001f8       0x10 /opt/microchip/xc32/v1.33/bin/bin/../../lib/gcc/pic32mx/4.5.2/../../../../pic32mx/lib/libc.a(fgetc.o)
 .debug_ranges  0x00000208       0x10 /opt/microchip/xc32/v1.33/bin/bin/../../lib/gcc/pic32mx/4.5.2/../../../../pic32mx/lib/libc.a(_fputc_simple.o)
 .debug_ranges  0x00000218       0x10 /opt/microchip/xc32/v1.33/bin/bin/../../lib/gcc/pic32mx/4.5.2/../../../../pic32mx/lib/libc.a(atoi.o)
 .debug_ranges  0x00000228       0x18 /opt/microchip/xc32/v1.33/bin/bin/../../lib/gcc/pic32mx/4.5.2/../../../../pic32mx/lib/libc.a(strtod.o)
 .debug_ranges  0x00000240       0x18 /opt/microchip/xc32/v1.33/bin/bin/../../lib/gcc/pic32mx/4.5.2/../../../../pic32mx/lib/libc.a(strtof.o)
 .debug_ranges  0x00000258       0x10 /opt/microchip/xc32/v1.33/bin/bin/../../lib/gcc/pic32mx/4.5.2/../../../../pic32mx/lib/libc.a(ungetc.o)
 .debug_ranges  0x00000268       0x10 /opt/microchip/xc32/v1.33/bin/bin/../../lib/gcc/pic32mx/4.5.2/../../../../pic32mx/lib/libc.a(filbuf.o)
 .debug_ranges  0x00000278       0x10 /opt/microchip/xc32/v1.33/bin/bin/../../lib/gcc/pic32mx/4.5.2/../../../../pic32mx/lib/libc.a(_flsbuf_simple.o)
 .debug_ranges  0x00000288       0x10 /opt/microchip/xc32/v1.33/bin/bin/../../lib/gcc/pic32mx/4.5.2/../../../../pic32mx/lib/libc.a(fflush.o)
 .debug_ranges  0x00000298       0x10 /opt/microchip/xc32/v1.33/bin/bin/../../lib/gcc/pic32mx/4.5.2/../../../../pic32mx/lib/libpic32.a(read.o)
 .debug_ranges  0x000002a8       0x10 /opt/microchip/xc32/v1.33/bin/bin/../../lib/gcc/pic32mx/4.5.2/../../../../pic32mx/lib/libpic32.a(write.o)
 .debug_ranges  0x000002b8       0x10 /opt/microchip/xc32/v1.33/bin/bin/../../lib/gcc/pic32mx/4.5.2/../../../../pic32mx/lib/libpic32.a(_mon_putc.o)
 .debug_ranges  0x000002c8       0x10 /opt/microchip/xc32/v1.33/bin/bin/../../lib/gcc/pic32mx/4.5.2/../../../../pic32mx/lib/libm.a(__strtod.o)
 .debug_ranges  0x000002d8       0x10 /opt/microchip/xc32/v1.33/bin/bin/../../lib/gcc/pic32mx/4.5.2/../../../../pic32mx/lib/libm.a(__strtof.o)
 .debug_ranges  0x000002e8       0x10 /opt/microchip/xc32/v1.33/bin/bin/../../lib/gcc/pic32mx/4.5.2/../../../../pic32mx/lib/libe.a(_floatdisf.o)
 .debug_ranges  0x000002f8       0x10 /opt/microchip/xc32/v1.33/bin/bin/../../lib/gcc/pic32mx/4.5.2/../../../../pic32mx/lib/libe.a(_ldexp.o)
 .debug_ranges  0x00000308       0x10 /opt/microchip/xc32/v1.33/bin/bin/../../lib/gcc/pic32mx/4.5.2/../../../../pic32mx/lib/libe.a(_ldexpf.o)

.gnu.attributes
                0x00000000       0x10
 *(.gnu.attributes)
 .gnu.attributes
                0x00000000       0x10 build/debug/production/_ext/1209914024/FSIO.o
 .gnu.attributes
                0x00000010       0x10 build/debug/production/_ext/1209914024/SD-SPI.o
 .gnu.attributes
                0x00000020       0x10 build/debug/production/_ext/1019771169/SClib.o
 .gnu.attributes
                0x00000030       0x10 build/debug/production/_ext/1019771169/SCpic32.o
 .gnu.attributes
                0x00000040       0x10 build/debug/production/_ext/631258897/usb_function_cdc.o
 .gnu.attributes
                0x00000050       0x10 build/debug/production/_ext/186742988/usb_device.o
 .gnu.attributes
                0x00000060       0x10 build/debug/production/src/indala.o
 .gnu.attributes
                0x00000070       0x10 build/debug/production/src/main.o
 .gnu.attributes
                0x00000080       0x10 build/debug/production/src/psk.o
 .gnu.attributes
                0x00000090       0x10 build/debug/production/src/usb_descriptors.o
 .gnu.attributes
                0x000000a0       0x10 build/debug/production/src/util.o
 .gnu.attributes
                0x000000b0       0x10 build/debug/production/src/emulate.o
 .gnu.attributes
                0x000000c0       0x10 build/debug/production/src/ask.o
 .gnu.attributes
                0x000000d0       0x10 build/debug/production/src/fsk.o
 .gnu.attributes
                0x000000e0       0x10 build/debug/production/src/clock.o
 .gnu.attributes
                0x000000f0       0x10 build/debug/production/src/rwd.o
 .gnu.attributes
                0x00000100       0x10 build/debug/production/src/detect.o
 .gnu.attributes
                0x00000110       0x10 build/debug/production/src/hitagcrypto.o
 .gnu.attributes
                0x00000120       0x10 build/debug/production/src/wiegand.o
 .gnu.attributes
                0x00000130       0x10 build/debug/production/src/comms.o
 .gnu.attributes
                0x00000140       0x10 build/debug/production/src/nvm.o
 .gnu.attributes
                0x00000150       0x10 build/debug/production/src/mcp414x.o
 .gnu.attributes
                0x00000160       0x10 build/debug/production/src/spi.o
 .gnu.attributes
                0x00000170       0x10 build/debug/production/src/uart3.o
 .gnu.attributes
                0x00000180       0x10 build/debug/production/src/tags.o
 .gnu.attributes
                0x00000190       0x10 build/debug/production/src/unique.o
 .gnu.attributes
                0x000001a0       0x10 build/debug/production/src/led.o
 .gnu.attributes
                0x000001b0       0x10 build/debug/production/src/em.o
 .gnu.attributes
                0x000001c0       0x10 build/debug/production/src/hid.o
 .gnu.attributes
                0x000001d0       0x10 build/debug/production/src/read.o
 .gnu.attributes
                0x000001e0       0x10 build/debug/production/src/isr.o
 .gnu.attributes
                0x000001f0       0x10 build/debug/production/src/auto.o
 .gnu.attributes
                0x00000200       0x10 build/debug/production/src/fdxb.o
 .gnu.attributes
                0x00000210       0x10 build/debug/production/src/hitag.o
 .gnu.attributes
                0x00000220       0x10 build/debug/production/src/uid.o
 .gnu.attributes
                0x00000230       0x10 build/debug/production/src/login.o
 .gnu.attributes
                0x00000240       0x10 build/debug/production/src/write.o
 .gnu.attributes
                0x00000250       0x10 build/debug/production/src/auth.o
 .gnu.attributes
                0x00000260       0x10 build/debug/production/src/q5.o
 .gnu.attributes
                0x00000270       0x10 build/debug/production/src/vtag.o
 .gnu.attributes
                0x00000280       0x10 build/debug/production/src/config.o
 .gnu.attributes
                0x00000290       0x10 build/debug/production/src/select.o
 .gnu.attributes
                0x000002a0       0x10 build/debug/production/src/sdcard.o
 .gnu.attributes
                0x000002b0       0x10 build/debug/production/src/debug_pins.o
 .gnu.attributes
                0x000002c0       0x10 build/debug/production/src/awid.o
 .gnu.attributes
                0x000002d0       0x10 build/debug/production/src/analogue.o
 .gnu.attributes
                0x000002e0       0x10 build/debug/production/src/iso7816.o
 .gnu.attributes
                0x000002f0       0x10 build/debug/production/src/t55x7.o
 .gnu.attributes
                0x00000300       0x10 build/debug/production/src/sniff.o
 .gnu.attributes
                0x00000310       0x10 /opt/microchip/xc32/v1.33/pic32mx/lib/libmchp_peripheral_32MX795F512L.a(soft_reset_lib.o)
 .gnu.attributes
                0x00000320       0x10 /opt/microchip/xc32/v1.33/pic32mx/lib/libmchp_peripheral_32MX795F512L.a(pcache.o)
 .gnu.attributes
                0x00000330       0x10 /opt/microchip/xc32/v1.33/pic32mx/lib/libmchp_peripheral_32MX795F512L.a(int_configure_system_lib.o)
 .gnu.attributes
                0x00000340       0x10 /opt/microchip/xc32/v1.33/pic32mx/lib/libmchp_peripheral_32MX795F512L.a(int_enable_interrupts_lib.o)
 .gnu.attributes
                0x00000350       0x10 /opt/microchip/xc32/v1.33/pic32mx/lib/libmchp_peripheral_32MX795F512L.a(int_disable_interrupts_lib.o)
 .gnu.attributes
                0x00000360       0x10 /opt/microchip/xc32/v1.33/pic32mx/lib/libmchp_peripheral_32MX795F512L.a(int_restore_interrupts_lib.o)
 .gnu.attributes
                0x00000370       0x10 /opt/microchip/xc32/v1.33/pic32mx/lib/libmchp_peripheral_32MX795F512L.a(int_enable_mv_int_lib.o)
 .gnu.attributes
                0x00000380       0x10 /opt/microchip/xc32/v1.33/pic32mx/lib/libmchp_peripheral_32MX795F512L.a(int_tbl_lib.o)
 .gnu.attributes
                0x00000390       0x10 /opt/microchip/xc32/v1.33/pic32mx/lib/libmchp_peripheral_32MX795F512L.a(spi_chn_close_lib.o)
 .gnu.attributes
                0x000003a0       0x10 /opt/microchip/xc32/v1.33/pic32mx/lib/libmchp_peripheral_32MX795F512L.a(spi_chn_open_lib.o)
 .gnu.attributes
                0x000003b0       0x10 /opt/microchip/xc32/v1.33/pic32mx/lib/libmchp_peripheral_32MX795F512L.a(spi_io_tbl_libp.o)
 .gnu.attributes
                0x000003c0       0x10 /opt/microchip/xc32/v1.33/pic32mx/lib/libmchp_peripheral_32MX795F512L.a(spi_map_tbl_libp.o)
 .gnu.attributes
                0x000003d0       0x10 /opt/microchip/xc32/v1.33/pic32mx/lib/libmchp_peripheral_32MX795F512L.a(spi_getc_spi1_lib_legacy.o)
 .gnu.attributes
                0x000003e0       0x10 /opt/microchip/xc32/v1.33/pic32mx/lib/libmchp_peripheral_32MX795F512L.a(spi_open_spi1_lib_legacy.o)
 .gnu.attributes
                0x000003f0       0x10 /opt/microchip/xc32/v1.33/pic32mx/lib/libmchp_peripheral_32MX795F512L.a(spi_brg_tbl_lib_legacy.o)
 .gnu.attributes
                0x00000400       0x10 /opt/microchip/xc32/v1.33/pic32mx/lib/libmchp_peripheral_32MX795F512L.a(nvm_erase_page_lib.o)
 .gnu.attributes
                0x00000410       0x10 /opt/microchip/xc32/v1.33/pic32mx/lib/libmchp_peripheral_32MX795F512L.a(nvm_operation_lib.o)
 .gnu.attributes
                0x00000420       0x10 /opt/microchip/xc32/v1.33/pic32mx/lib/libmchp_peripheral_32MX795F512L.a(nvm_program_lib.o)
 .gnu.attributes
                0x00000430       0x10 /opt/microchip/xc32/v1.33/pic32mx/lib/libmchp_peripheral_32MX795F512L.a(nvm_write_row_lib.o)
 .gnu.attributes
                0x00000440       0x10 /opt/microchip/xc32/v1.33/pic32mx/lib/libmchp_peripheral_32MX795F512L.a(port_reset_pins_lib.o)
 .gnu.attributes
                0x00000450       0x10 /opt/microchip/xc32/v1.33/pic32mx/lib/libmchp_peripheral_32MX795F512L.a(port_set_pins_digital_in_lib.o)
 .gnu.attributes
                0x00000460       0x10 /opt/microchip/xc32/v1.33/pic32mx/lib/libmchp_peripheral_32MX795F512L.a(port_set_pins_digital_out_lib.o)
 .gnu.attributes
                0x00000470       0x10 /opt/microchip/xc32/v1.33/pic32mx/lib/libmchp_peripheral_32MX795F512L.a(_ports_tbl_libp.o)
 .gnu.attributes
                0x00000480       0x10 /opt/microchip/xc32/v1.33/bin/bin/../../lib/gcc/pic32mx/4.5.2/libgcc.a(_udivdi3.o)
 .gnu.attributes
                0x00000490       0x10 /opt/microchip/xc32/v1.33/bin/bin/../../lib/gcc/pic32mx/4.5.2/../../../../pic32mx/lib/libpic32.a(default-bootstrap-exception-handler.o)
 .gnu.attributes
                0x000004a0       0x10 /opt/microchip/xc32/v1.33/bin/bin/../../lib/gcc/pic32mx/4.5.2/../../../../pic32mx/lib/libpic32.a(default-on-reset.o)
 .gnu.attributes
                0x000004b0       0x10 /opt/microchip/xc32/v1.33/bin/bin/../../lib/gcc/pic32mx/4.5.2/../../../../pic32mx/lib/libpic32.a(default-on-bootstrap.o)
 .gnu.attributes
                0x000004c0       0x10 /opt/microchip/xc32/v1.33/bin/bin/../../lib/gcc/pic32mx/4.5.2/../../../../pic32mx/lib/libpic32.a(default-general-exception-handler.o)
 .gnu.attributes
                0x000004d0       0x10 /opt/microchip/xc32/v1.33/bin/bin/../../lib/gcc/pic32mx/4.5.2/../../../../pic32mx/lib/libpic32.a(defaultinterrupt.o)
 .gnu.attributes
                0x000004e0       0x10 /opt/microchip/xc32/v1.33/bin/bin/../../lib/gcc/pic32mx/4.5.2/../../../../pic32mx/lib/libc.a(ctypef.o)
 .gnu.attributes
                0x000004f0       0x10 /opt/microchip/xc32/v1.33/bin/bin/../../lib/gcc/pic32mx/4.5.2/../../../../pic32mx/lib/libc.a(rand.o)
 .gnu.attributes
                0x00000500       0x10 /opt/microchip/xc32/v1.33/bin/bin/../../lib/gcc/pic32mx/4.5.2/../../../../pic32mx/lib/libc.a(strncmp.o)
 .gnu.attributes
                0x00000510       0x10 /opt/microchip/xc32/v1.33/bin/bin/../../lib/gcc/pic32mx/4.5.2/../../../../pic32mx/lib/libc.a(strncpy.o)
 .gnu.attributes
                0x00000520       0x10 /opt/microchip/xc32/v1.33/bin/bin/../../lib/gcc/pic32mx/4.5.2/../../../../pic32mx/lib/libc.a(snprintf_cdnopuxX.eo)
 .gnu.attributes
                0x00000530       0x10 /opt/microchip/xc32/v1.33/bin/bin/../../lib/gcc/pic32mx/4.5.2/../../../../pic32mx/lib/libc.a(snprintf.o)
 .gnu.attributes
                0x00000540       0x10 /opt/microchip/xc32/v1.33/bin/bin/../../lib/gcc/pic32mx/4.5.2/../../../../pic32mx/lib/libc.a(sprintf_cdnopuxX.eo)
 .gnu.attributes
                0x00000550       0x10 /opt/microchip/xc32/v1.33/bin/bin/../../lib/gcc/pic32mx/4.5.2/../../../../pic32mx/lib/libc.a(sprintf.o)
 .gnu.attributes
                0x00000560       0x10 /opt/microchip/xc32/v1.33/bin/bin/../../lib/gcc/pic32mx/4.5.2/../../../../pic32mx/lib/libc.a(sscanf_cdfFnopsuxX.eo)
 .gnu.attributes
                0x00000570       0x10 /opt/microchip/xc32/v1.33/bin/bin/../../lib/gcc/pic32mx/4.5.2/../../../../pic32mx/lib/libc.a(vsnprintf_cdnopuxX.eo)
 .gnu.attributes
                0x00000580       0x10 /opt/microchip/xc32/v1.33/bin/bin/../../lib/gcc/pic32mx/4.5.2/../../../../pic32mx/lib/libc.a(vsnprintf.o)
 .gnu.attributes
                0x00000590       0x10 /opt/microchip/xc32/v1.33/bin/bin/../../lib/gcc/pic32mx/4.5.2/../../../../pic32mx/lib/libc.a(ctype.o)
 .gnu.attributes
                0x000005a0       0x10 /opt/microchip/xc32/v1.33/bin/bin/../../lib/gcc/pic32mx/4.5.2/../../../../pic32mx/lib/libc.a(doprnt_cdnopuxX.eo)
 .gnu.attributes
                0x000005b0       0x10 /opt/microchip/xc32/v1.33/bin/bin/../../lib/gcc/pic32mx/4.5.2/../../../../pic32mx/lib/libc.a(doprnt.o)
 .gnu.attributes
                0x000005c0       0x10 /opt/microchip/xc32/v1.33/bin/bin/../../lib/gcc/pic32mx/4.5.2/../../../../pic32mx/lib/libc.a(doscan_cdfFnopsuxX.eo)
 .gnu.attributes
                0x000005d0       0x10 /opt/microchip/xc32/v1.33/bin/bin/../../lib/gcc/pic32mx/4.5.2/../../../../pic32mx/lib/libc.a(doscan_cdnopuxX.eo)
 .gnu.attributes
                0x000005e0       0x10 /opt/microchip/xc32/v1.33/bin/bin/../../lib/gcc/pic32mx/4.5.2/../../../../pic32mx/lib/libc.a(fgetc.o)
 .gnu.attributes
                0x000005f0       0x10 /opt/microchip/xc32/v1.33/bin/bin/../../lib/gcc/pic32mx/4.5.2/../../../../pic32mx/lib/libc.a(_fputc_simple.o)
 .gnu.attributes
                0x00000600       0x10 /opt/microchip/xc32/v1.33/bin/bin/../../lib/gcc/pic32mx/4.5.2/../../../../pic32mx/lib/libc.a(atoi.o)
 .gnu.attributes
                0x00000610       0x10 /opt/microchip/xc32/v1.33/bin/bin/../../lib/gcc/pic32mx/4.5.2/../../../../pic32mx/lib/libc.a(powersf.o)
 .gnu.attributes
                0x00000620       0x10 /opt/microchip/xc32/v1.33/bin/bin/../../lib/gcc/pic32mx/4.5.2/../../../../pic32mx/lib/libc.a(strtod.o)
 .gnu.attributes
                0x00000630       0x10 /opt/microchip/xc32/v1.33/bin/bin/../../lib/gcc/pic32mx/4.5.2/../../../../pic32mx/lib/libc.a(strtof.o)
 .gnu.attributes
                0x00000640       0x10 /opt/microchip/xc32/v1.33/bin/bin/../../lib/gcc/pic32mx/4.5.2/../../../../pic32mx/lib/libc.a(ungetc.o)
 .gnu.attributes
                0x00000650       0x10 /opt/microchip/xc32/v1.33/bin/bin/../../lib/gcc/pic32mx/4.5.2/../../../../pic32mx/lib/libc.a(_iob.o)
 .gnu.attributes
                0x00000660       0x10 /opt/microchip/xc32/v1.33/bin/bin/../../lib/gcc/pic32mx/4.5.2/../../../../pic32mx/lib/libc.a(filbuf.o)
 .gnu.attributes
                0x00000670       0x10 /opt/microchip/xc32/v1.33/bin/bin/../../lib/gcc/pic32mx/4.5.2/../../../../pic32mx/lib/libc.a(_flsbuf_simple.o)
 .gnu.attributes
                0x00000680       0x10 /opt/microchip/xc32/v1.33/bin/bin/../../lib/gcc/pic32mx/4.5.2/../../../../pic32mx/lib/libc.a(fflush.o)
 .gnu.attributes
                0x00000690       0x10 /opt/microchip/xc32/v1.33/bin/bin/../../lib/gcc/pic32mx/4.5.2/../../../../pic32mx/lib/libpic32.a(read.o)
 .gnu.attributes
                0x000006a0       0x10 /opt/microchip/xc32/v1.33/bin/bin/../../lib/gcc/pic32mx/4.5.2/../../../../pic32mx/lib/libpic32.a(write.o)
 .gnu.attributes
                0x000006b0       0x10 /opt/microchip/xc32/v1.33/bin/bin/../../lib/gcc/pic32mx/4.5.2/../../../../pic32mx/lib/libpic32.a(xc32_uart.o)
 .gnu.attributes
                0x000006c0       0x10 /opt/microchip/xc32/v1.33/bin/bin/../../lib/gcc/pic32mx/4.5.2/../../../../pic32mx/lib/libpic32.a(_mon_putc.o)
 .gnu.attributes
                0x000006d0       0x10 /opt/microchip/xc32/v1.33/bin/bin/../../lib/gcc/pic32mx/4.5.2/../../../../pic32mx/lib/libm.a(__strtod.o)
 .gnu.attributes
                0x000006e0       0x10 /opt/microchip/xc32/v1.33/bin/bin/../../lib/gcc/pic32mx/4.5.2/../../../../pic32mx/lib/libm.a(__strtof.o)
 .gnu.attributes
                0x000006f0       0x10 /opt/microchip/xc32/v1.33/bin/bin/../../lib/gcc/pic32mx/4.5.2/../../../../pic32mx/lib/libe.a(_floatdisf.o)
 .gnu.attributes
                0x00000700       0x10 /opt/microchip/xc32/v1.33/bin/bin/../../lib/gcc/pic32mx/4.5.2/../../../../pic32mx/lib/libe.a(_ldexp.o)
 .gnu.attributes
                0x00000710       0x10 /opt/microchip/xc32/v1.33/bin/bin/../../lib/gcc/pic32mx/4.5.2/../../../../pic32mx/lib/libe.a(_ldexpf.o)
 .gnu.attributes
                0x00000720       0x10 /opt/microchip/xc32/v1.33/bin/bin/../../lib/gcc/pic32mx/4.5.2/libgcc.a(_lshrdi3.o)
 .gnu.attributes
                0x00000730       0x10 /opt/microchip/xc32/v1.33/bin/bin/../../lib/gcc/pic32mx/4.5.2/libgcc.a(_ashldi3.o)
 .gnu.attributes
                0x00000740       0x10 /opt/microchip/xc32/v1.33/bin/bin/../../lib/gcc/pic32mx/4.5.2/libgcc.a(_floatundisf.o)
 .gnu.attributes
                0x00000750       0x10 /opt/microchip/xc32/v1.33/bin/bin/../../lib/gcc/pic32mx/4.5.2/libgcc.a(_umoddi3.o)
 .gnu.attributes
                0x00000760       0x10 /opt/microchip/xc32/v1.33/bin/bin/../../lib/gcc/pic32mx/4.5.2/libgcc.a(floatunsisf.o)
 .gnu.attributes
                0x00000770       0x10 /opt/microchip/xc32/v1.33/bin/bin/../../lib/gcc/pic32mx/4.5.2/../../../../pic32mx/lib/libc.a(errno.o)
LOAD /opt/microchip/xc32/v1.33/bin/bin/../../lib/gcc/pic32mx/4.5.2/libgcc.a
START GROUP
LOAD /opt/microchip/xc32/v1.33/bin/bin/../../lib/gcc/pic32mx/4.5.2/../../../../pic32mx/lib/libpic32.a
LOAD /opt/microchip/xc32/v1.33/bin/bin/../../lib/gcc/pic32mx/4.5.2/../../../../pic32mx/lib/libdebug.a
LOAD /opt/microchip/xc32/v1.33/bin/bin/../../lib/gcc/pic32mx/4.5.2/../../../../pic32mx/lib/libpic32.a
LOAD /opt/microchip/xc32/v1.33/bin/bin/../../lib/gcc/pic32mx/4.5.2/../../../../pic32mx/lib/libm.a
LOAD /opt/microchip/xc32/v1.33/bin/bin/../../lib/gcc/pic32mx/4.5.2/../../../../pic32mx/lib/libe.a
LOAD /opt/microchip/xc32/v1.33/bin/bin/../../lib/gcc/pic32mx/4.5.2/../../../../pic32mx/lib/libdsp.a
LOAD /opt/microchip/xc32/v1.33/bin/bin/../../lib/gcc/pic32mx/4.5.2/libgcc.a
LOAD /opt/microchip/xc32/v1.33/bin/bin/../../lib/gcc/pic32mx/4.5.2/../../../../pic32mx/lib/libc.a
LOAD /opt/microchip/xc32/v1.33/bin/bin/../../lib/gcc/pic32mx/4.5.2/../../../../pic32mx/lib/libpic32.a
END GROUP
LOAD /opt/microchip/xc32/v1.33/bin/bin/../../lib/gcc/pic32mx/4.5.2/libgcc.a
OUTPUT(dist/debug/production/RFIDler.X.production.elf elf32-tradlittlemips)
LOAD stack
LOAD data_init

.reginfo        0x00000000       0x18
 .reginfo       0x00000000       0x18 /opt/microchip/xc32/v1.33/bin/bin/../../lib/gcc/pic32mx/4.5.2/../../../../pic32mx/lib/./proc/32MX795F512L/crt0_mips32r2.o

.stack          0xa00071c8      0x400
 .stack         0xa00071c8      0x400 stack

.data.commands.24017.commands
                0xa0006af0      0x180
 .data.commands.24017.commands
                0xa0006af0      0x180 build/debug/production/src/main.o

.bss.bits.23215.bits
                0xa000028c      0x104
 .bss.bits.23215.bits
                0xa000028c      0x104 build/debug/production/src/indala.o

.bss.local_tmp.24042.local_tmp
                0xa0006c70      0x100
 .bss.local_tmp.24042.local_tmp
                0xa0006c70      0x100 build/debug/production/src/main.o

.bss.local_tmp1.24043.local_tmp1
                0xa0006d70      0x100
 .bss.local_tmp1.24043.local_tmp1
                0xa0006d70      0x100 build/debug/production/src/main.o

.bss.history.23952.history
                0xa0006e70      0x100
 .bss.history.23952.history
                0xa0006e70      0x100 build/debug/production/src/main.o

.data           0xa0006f70       0xa0
 .data          0xa0006f70       0xa0 /opt/microchip/xc32/v1.33/bin/bin/../../lib/gcc/pic32mx/4.5.2/../../../../pic32mx/lib/libc.a(_iob.o)
                0xa0006f70                _iob

.bss.command_buffer.23951.command_buffer
                0xa0007010       0x80
 .bss.command_buffer.23951.command_buffer
                0xa0007010       0x80 build/debug/production/src/main.o

.data.TagTypes.TagTypes
                0xa0000390       0x50
 .data.TagTypes.TagTypes
                0xa0000390       0x50 build/debug/production/src/tags.o
                0xa0000390                TagTypes

.bss            0xa0007090       0x40
 .bss           0xa0007090       0x40 /opt/microchip/xc32/v1.33/bin/bin/../../lib/gcc/pic32mx/4.5.2/../../../../pic32mx/lib/libc.a(_iob.o)
                0xa0007090                _sibuf
                0xa00070b0                _sobuf

.data.T55x7_Compat_Modulation.T55x7_Compat_Modulation
                0xa00070d0       0x24
 .data.T55x7_Compat_Modulation.T55x7_Compat_Modulation
                0xa00070d0       0x24 build/debug/production/src/t55x7.o
                0xa00070d0                T55x7_Compat_Modulation

.bss.id.23216.id
                0xa00003e0       0x20
 .bss.id.23216.id
                0xa00003e0       0x20 build/debug/production/src/indala.o

.data.ModulationSchemes.ModulationSchemes
                0xa00070f4       0x20
 .data.ModulationSchemes.ModulationSchemes
                0xa00070f4       0x20 build/debug/production/src/tags.o
                0xa00070f4                ModulationSchemes

.data.Q5_Modulation.Q5_Modulation
                0xa0007114       0x20
 .data.Q5_Modulation.Q5_Modulation
                0xa0007114       0x20 build/debug/production/src/q5.o
                0xa0007114                Q5_Modulation

.data.sd003.sd003
                0xa0007134       0x1c
 .data.sd003.sd003
                0xa0007134       0x1c build/debug/production/src/usb_descriptors.o

.bss.ioInfo.ioInfo
                0xa0007150       0x14
 .bss.ioInfo.ioInfo
                0xa0007150       0x14 build/debug/production/_ext/1209914024/SD-SPI.o

.bss.info.23261.info
                0xa0007164       0x14
 .bss.info.23261.info
                0xa0007164       0x14 build/debug/production/_ext/1209914024/SD-SPI.o

.bss            0xa0007178       0x10
 .bss           0xa0007178       0x10 /opt/microchip/xc32/v1.33/bin/bin/../../lib/gcc/pic32mx/4.5.2/../../../../pic32mx/lib/libc.a(rand.o)

.bss.Password.Password
                0xa0007188        0xc
 .bss.Password.Password
                0xa0007188        0xc build/debug/production/src/main.o
                0xa0007188                Password

.bss            0xa0007194        0x4
 .bss           0xa0007194        0x4 /opt/microchip/xc32/v1.33/bin/bin/../../lib/gcc/pic32mx/4.5.2/../../../../pic32mx/lib/libc.a(doscan_cdfFnopsuxX.eo)

._debug_exception
                0xbfc00480       0x2c
 ._debug_exception
                0xbfc00480       0x2c /opt/microchip/xc32/v1.33/bin/bin/../../lib/gcc/pic32mx/4.5.2/../../../../pic32mx/lib/debug-exception-return.o
                0xbfc00480                __DbgExecReturn

.text           0x9d006e00    0x17d04
 .text          0x9d006e00    0x11508 build/debug/production/_ext/1209914024/FSIO.o
                0x9d006e00                FSInit
                0x9d006f6c                FILEfind
                0x9d008acc                FILEopen
                0x9d008d50                FILEget_next_cluster
                0x9d008ebc                DISKmount
                0x9d008fe4                LoadMBR
                0x9d009444                LoadBootSector
                0x9d009c30                GetFullClusterNumber
                0x9d009c88                FSCreateMBR
                0x9d00a004                FSformat
                0x9d00bbc4                Write_File_Entry
                0x9d00bd34                FAT_erase_cluster_chain
                0x9d00bef8                Cache_File_Entry
                0x9d00c304                CreateFileEntry
                0x9d00c9a0                CreateFirstCluster
                0x9d00ca80                FindEmptyEntries
                0x9d00cd54                PopulateEntries
                0x9d00cf10                Alias_LFN_Object
                0x9d00d854                CacheTime
                0x9d00db5c                FILEallocate_new_cluster
                0x9d00dcb0                FATfindEmptyCluster
                0x9d00de5c                FSfclose
                0x9d00e0a4                Fill_File_Object
                0x9d00e38c                Fill_LFN_Object
                0x9d00e4f8                LoadDirAttrib
                0x9d00e628                FILEerase
                0x9d00e88c                FSrename
                0x9d00eae0                wFSrename
                0x9d00eb38                wFSfopen
                0x9d00eb90                FSfopen
                0x9d00f494                FSftell
                0x9d00f4c4                FSremove
                0x9d00f754                wFSremove
                0x9d00f7a4                FSrewind
                0x9d00f810                FSerror
                0x9d00f834                FileObjectCopy
                0x9d00f8c0                FILECreateHeadCluster
                0x9d00fa4c                EraseCluster
                0x9d00fb98                ReadByte
                0x9d00fbd4                ReadWord
                0x9d00fc58                ReadDWord
                0x9d00fcec                Cluster2Sector
                0x9d00fdd8                FSattrib
                0x9d00ff2c                FSfwrite
                0x9d0103f8                flushData
                0x9d0104a8                FSfeof
                0x9d0104e8                FSfread
                0x9d01085c                FormatFileName
                0x9d011108                FormatDirName
                0x9d011b38                ValidateChars
                0x9d0121c4                FSfseek
                0x9d012590                ReadFAT
                0x9d012a6c                WriteFAT
                0x9d013058                FSchdir
                0x9d013098                wFSchdir
                0x9d0130f0                chdirhelper
                0x9d013b00                FSgetcwd
                0x9d014954                wFSgetcwd
                0x9d0149ac                GetPreviousEntry
                0x9d015094                FSmkdir
                0x9d0150d4                wFSmkdir
                0x9d01512c                mkdirhelper
                0x9d015dcc                CreateDIR
                0x9d015fac                writeDotEntries
                0x9d016244                FSrmdir
                0x9d016294                wFSrmdir
                0x9d0162fc                rmdirhelper
                0x9d0177c4                eraseDir
                0x9d017924                FindFirst
                0x9d017e38                FindNext
                0x9d0182a8                wFindFirst
 .text          0x9d018308     0x67fc build/debug/production/src/main.o
                0x9d018308                main
                0x9d01870c                UserInit
                0x9d018c70                ProcessIO
                0x9d019328                USBCBCheckOtherReq
                0x9d019358                USBCBInitEP
                0x9d019388                USBCBSendResume
                0x9d019460                USER_USB_CALLBACK_EVENT_HANDLER
                0x9d0194f8                read_adc
                0x9d019584                starts_with
                0x9d01963c                show_usage
                0x9d019814                ProcessSerialCommand
                0x9d01ea08                parse_BL_packet

.rodata         0x9d01eb04     0x453c
 .rodata        0x9d01eb04     0x453c build/debug/production/src/main.o

.text           0x9d023040     0x9bf0
 .text          0x9d023040     0x36f4 build/debug/production/_ext/186742988/usb_device.o
                0x9d023040                USBDeviceInit
                0x9d02333c                _USB1Interrupt
                0x9d023824                USBEnableEndpoint
                0x9d0238c8                USBTransferOnePacket
                0x9d023b48                USBStallEndpoint
                0x9d023d58                USBCancelIO
                0x9d02418c                USBDeviceDetach
                0x9d0241c0                USBDeviceAttach
                0x9d0242b4                USBCtrlEPAllowStatusStage
                0x9d0244e8                USBCtrlEPAllowDataStage
 .text          0x9d026734     0x25e8 build/debug/production/src/util.o
                0x9d026734                approx
                0x9d026800                bcdtouint
                0x9d0268b4                bcdtoulonglong
                0x9d0269fc                binarraytoint
                0x9d026a80                inttobinarray
                0x9d026b00                ulongtobinarray
                0x9d026b80                ulonglongtobinarray
                0x9d026c30                ulongtohex
                0x9d026c98                inttobinstring
                0x9d026cf4                ulongtobinstring
                0x9d026d50                binarraytoulonglong
                0x9d026e08                binarraytoulong
                0x9d026e8c                hextobyte
                0x9d026ee4                hextoulong
                0x9d026f54                hexreversetoulong
                0x9d027040                hextoulonglong
                0x9d0270b4                hexreversetoulonglong
                0x9d0271c4                hextolonglong
                0x9d0273ac                hextobinarray
                0x9d027540                hextobinstring
                0x9d0275b4                binarraytohex
                0x9d0276c4                hexprintbinarray
                0x9d027748                binstringtohex
                0x9d027868                binstringtobyte
                0x9d02790c                getbit
                0x9d027954                bytestohex
                0x9d0279e8                binstringtobinarray
                0x9d027ac0                binarraytobinstring
                0x9d027b50                invertbinstring
                0x9d027c08                printhexasbin
                0x9d027c60                printbinstringashex
                0x9d027cc4                printbinarray
                0x9d027da4                manchester_encode
                0x9d027ec4                manchester_decode
                0x9d027f78                strip_newline
                0x9d028024                command_ack
                0x9d028110                command_nack
                0x9d028184                command_unknown
                0x9d0281dc                ToUpper
                0x9d0282f8                string_reverse
                0x9d0283a8                string_byteswap
                0x9d028448                parity
                0x9d0284dc                get_reader_pulse
                0x9d0285d4                get_reader_gap
                0x9d0286cc                crc_ccitt
                0x9d028714                crc16
                0x9d028814                space_indent
                0x9d028884                xml_version
                0x9d0288cc                xml_header
                0x9d028960                xml_footer
                0x9d028a34                xml_indented_text
                0x9d028ab0                xml_item_text
                0x9d028b20                xml_item_decimal
                0x9d028bb8                xml_indented_array
                0x9d028c98                xml_item_array
 .text          0x9d028d1c     0x2110 build/debug/production/src/hitag.o
                0x9d028d1c                hitag1_get_uid
                0x9d028e6c                hitag1_hex_to_uid
                0x9d028e8c                hitag1_select
                0x9d028f24                hitag1_read_page
                0x9d028ff4                hitag1_write_page
                0x9d029150                hitag1_send_command
                0x9d029344                hitag1_binarray_crc
                0x9d02941c                hitag1_crc
                0x9d029468                hitag2_get_uid
                0x9d029580                hitag2_hex_to_uid
                0x9d0295a0                hitag2_pwd_auth
                0x9d0296ec                hitag2_crypto_auth
                0x9d02a074                hitag2_read_page
                0x9d02a1e4                hitag2_write_page
                0x9d02a494                hitag2_test_rwd
                0x9d02a730                hitag2_hex_crypt
                0x9d02a7fc                hitag2_binstring_crypt
                0x9d02a88c                hitag2_binarray_crypt
                0x9d02a8e8                hitag2_crypt
                0x9d02a91c                hitag_ac_to_bin
                0x9d02a9dc                hitag2_emulate_config_block
                0x9d02aabc                hitag2_decode_pwm
 .text          0x9d02ae2c     0x1e04 build/debug/production/src/tags.o
                0x9d02ae2c                tag_list
                0x9d02af00                tag_get_type
                0x9d02afa8                tag_get_blocksize
                0x9d02b0ac                tag_get_datablocks
                0x9d02b1d4                tag_get_databits
                0x9d02b314                auto_detect_tag_type
                0x9d02b45c                tag_set
                0x9d02c680                tag_uid_to_hex
                0x9d02c8b4                tag_write_default_config
                0x9d02c9d8                tag_write_default_blocks

.text.vfprintf  0x9d02cc30     0x1bc8
 .text.vfprintf
                0x9d02cc30     0x1bc8 /opt/microchip/xc32/v1.33/bin/bin/../../lib/gcc/pic32mx/4.5.2/../../../../pic32mx/lib/libc.a(doprnt.o)
                0x9d02cc30                vfprintf

.text           0x9d02e7f8     0xb254
 .text          0x9d02e7f8     0x1a00 build/debug/production/_ext/1209914024/SD-SPI.o
                0x9d02e7f8                MDD_SDSPI_MediaDetect
                0x9d02e82c                MDD_SDSPI_ReadSectorSize
                0x9d02e850                MDD_SDSPI_ReadCapacity
                0x9d02e874                MDD_SDSPI_InitIO
                0x9d02e8e0                MDD_SDSPI_ShutdownMedia
                0x9d02e928                SendMMCCmd
                0x9d02ebfc                MDD_SDSPI_SectorRead
                0x9d02eca0                MDD_SDSPI_AsyncReadTasks
                0x9d02f148                MDD_SDSPI_AsyncWriteTasks
                0x9d02f6c8                MDD_SDSPI_SectorWrite
                0x9d02f7bc                MDD_SDSPI_WriteProtectState
                0x9d02f7ec                Delayms
                0x9d02f864                CloseSPIM
                0x9d02f898                WriteSPIM
                0x9d02f8f8                MDD_SDSPI_ReadMedia
                0x9d02f94c                OpenSPIM
                0x9d02fa8c                InitSPISlowMode
                0x9d02fb6c                MDD_SDSPI_MediaInitialize
 .text          0x9d0301f8     0x1538 build/debug/production/src/t55x7.o
                0x9d0301f8                t55x7_send_command
                0x9d030438                t55x7_get_uid
                0x9d030548                t55x7_read_block
                0x9d0306e8                t55x7_write_block
                0x9d030938                t55x7_rwd_test
                0x9d030aec                t55x7_config_block_show
                0x9d03122c                t55x7_create_config_block
                0x9d03157c                t55x7_emulate_config_block
 .text          0x9d031730     0x143c build/debug/production/src/q5.o
                0x9d031730                q5_send_command
                0x9d031970                q5_get_uid
                0x9d031a44                q5_hex_to_uid
                0x9d031a84                q5_read_block
                0x9d031c24                q5_write_block
                0x9d031e74                q5_login
                0x9d031fc8                q5_rwd_test
                0x9d0322f8                q5_config_block_show
                0x9d032628                q5_create_config_block
                0x9d0328b0                q5_emulate_config_block
                0x9d032a40                q5_decode_pwm
 .text          0x9d032b6c     0x12b4 build/debug/production/_ext/1019771169/SClib.o
                0x9d032b6c                SC_Initialize
                0x9d032b9c                SC_CardPresent
                0x9d032bc0                SC_PowerOnATR
                0x9d033124                SC_DoPPS
                0x9d033564                SC_GetCardState
                0x9d0335a4                SC_Shutdown
                0x9d033a0c                SC_TransactT0
 .text          0x9d033e20     0x1238 build/debug/production/src/vtag.o
                0x9d033e20                vtag_wipe
                0x9d033e60                vtag_dump
                0x9d034188                vtag_set_tag_type
                0x9d0341f0                vtag_set_tag_from_type
                0x9d034274                vtag_create_from_uid
                0x9d0344cc                vtag_copy_from_tag
                0x9d034828                vtag_convert
                0x9d0348f8                vtag_write_to_tag
                0x9d034df8                vtag_write_blocks
 .text          0x9d035058     0x1110 build/debug/production/src/isr.o
                0x9d035058                reader_clock_tick
                0x9d035410                emulation_send_bit
                0x9d035928                HW_read_bit
 .text          0x9d036168     0x10f0 build/debug/production/src/em.o
                0x9d036168                em4x02_get_uid
                0x9d0361a0                em4x02_hex_to_uid
                0x9d036210                hex_to_em4x02_hex
                0x9d036278                hex_to_em4x02_bin
                0x9d036364                em4x02_hex_to_bin
                0x9d03660c                bin_to_em4x02_bin
                0x9d0367ac                em4205_send_command
                0x9d036ae0                em4205_forward_link
                0x9d036d44                em4205_get_uid
                0x9d036db4                em4205_disable
                0x9d036e04                em4205_read_word
                0x9d036eb0                bin_to_em4205_ota
                0x9d03702c                em4205_ota_to_bin
 .text          0x9d037258      0xf50 build/debug/production/src/wiegand.o
                0x9d037258                learn_wiegand
                0x9d0377d8                read_wiegand
                0x9d037af0                read_wiegand_bit
                0x9d037c70                write_wiegand
                0x9d037cec                write_wiegand_uid
                0x9d037d2c                write_wiegand_bit
                0x9d037eb4                wiegand_test
                0x9d037f98                wiegand_add_parity
                0x9d038070                wiegand_out_disable
                0x9d0380bc                wiegand_out_enable
                0x9d038144                wiegand_set_pullups
 .text          0x9d0381a8      0xdb8 build/debug/production/src/fsk.o
                0x9d0381a8                send_fsk_hex
                0x9d038278                send_fsk_bin
                0x9d038320                write_FSK_HW_clock
                0x9d038498                fsk_raw_get_uid
                0x9d038640                read_fsk_data
                0x9d038964                fsk_raw_hex_to_uid
                0x9d0389b0                read_FSK_HW_clock
                0x9d038d64                fskbinarraytobinarray
 .text          0x9d038f60      0xaec build/debug/production/src/clock.o
                0x9d038f60                InitHWReaderClock
                0x9d039200                InitHWReaderISR
                0x9d0392c4                pause_HW_clock_FC
                0x9d03936c                TimerWait_FC
                0x9d0393cc                stop_HW_clock
                0x9d0394b0                stop_HW_reader_ISR
                0x9d039514                clock_test
                0x9d0398e8                GetTimer_us
                0x9d03994c                GetTimer_ticks
                0x9d03999c                TimerWait
                0x9d0399f0                Delay_us

.text._vfprintf_cdnopuxX
                0x9d039a4c      0xae8
 .text._vfprintf_cdnopuxX
                0x9d039a4c      0xae8 /opt/microchip/xc32/v1.33/bin/bin/../../lib/gcc/pic32mx/4.5.2/../../../../pic32mx/lib/libc.a(doprnt_cdnopuxX.eo)
                0x9d039a4c                _vfprintf_cdnopuxX

.text           0x9d03a534     0x1eec
 .text          0x9d03a534      0xa78 build/debug/production/src/ask.o
                0x9d03a534                send_ask_hex
                0x9d03a5c0                send_ask_bin
                0x9d03a648                ask_raw_get_uid
                0x9d03a7c0                ask_raw_hex_to_uid
                0x9d03a80c                read_ask_data
                0x9d03ab04                write_ASK_HW_clock
                0x9d03accc                read_ASK_HW_clock
 .text          0x9d03afac      0xa3c build/debug/production/src/analogue.o
                0x9d03afac                init_adc
                0x9d03b0c4                analogue_sample
                0x9d03b1fc                analogue_xml_out
                0x9d03b7e4                analogue_frequency
 .text          0x9d03b9e8      0xa38 build/debug/production/_ext/631258897/usb_function_cdc.o
                0x9d03b9e8                USBCheckCDCRequest
                0x9d03bd58                CDCInitEP
                0x9d03bde4                USBCDCEventHandler
                0x9d03be84                getsUSBUSART
                0x9d03bfc8                putUSBUSART
                0x9d03c038                putsUSBUSART
                0x9d03c10c                putrsUSBUSART
                0x9d03c1dc                CDCTxService

.text._vfscanf_cdfFnopsuxX
                0x9d03c420      0xa2c
 .text._vfscanf_cdfFnopsuxX
                0x9d03c420      0xa2c /opt/microchip/xc32/v1.33/bin/bin/../../lib/gcc/pic32mx/4.5.2/../../../../pic32mx/lib/libc.a(doscan_cdfFnopsuxX.eo)
                0x9d03c420                _vfscanf_cdfFnopsuxX

.text           0x9d03ce4c     0x1c40
 .text          0x9d03ce4c      0xa0c build/debug/production/src/psk.o
                0x9d03ce4c                read_psk1_data
                0x9d03d1b0                send_psk1_hex
                0x9d03d244                send_psk1_bin
                0x9d03d308                write_PSK1_HW_clock
                0x9d03d484                read_PSK1_HW_clock
                0x9d03d668                psk1_raw_get_uid
                0x9d03d7f0                psk1_raw_hex_to_uid
 .text          0x9d03d858      0x9a4 build/debug/production/src/comms.o
                0x9d03d858                UserMessage
                0x9d03d918                UserBinary
                0x9d03d98c                UserBinaryByte
                0x9d03da00                UserMessageNum
                0x9d03da78                GetUserMessage
                0x9d03daf4                SendUART3Message
                0x9d03db70                GetUART3Message
                0x9d03dd04                SendUSBMessage
                0x9d03ddcc                get_prompt
                0x9d03de68                BlinkCommsStatus
                0x9d03e128                get_user_abort
                0x9d03e180                eod
 .text          0x9d03e1fc      0x890 build/debug/production/src/hitagcrypto.o
                0x9d03e2ec                hitag2_init
                0x9d03e6c8                hitag2_nstep
                0x9d03e7e4                hitag2_benchtest_gen32
                0x9d03e88c                hitag2_benchtest
                0x9d03e96c                hitag2_verifytest

.dinit          0x9d03ea8c      0x860
 .dinit         0x9d03ea8c      0x860 data_init

.text           0x9d03f2ec     0x1000
 .text          0x9d03f2ec      0x81c build/debug/production/_ext/1019771169/SCpic32.o
                0x9d03f2ec                WaitMicroSec
                0x9d03f360                WaitMilliSec
                0x9d03f3c0                SCdrv_SendTxData
                0x9d03f51c                SCdrv_GetRxData
                0x9d03f70c                SCdrv_SetBRG
                0x9d03f798                SCdrv_CloseUART
                0x9d03f7d8                SCdrv_InitUART
                0x9d03fa78                T1Interrupt
 .text          0x9d03fb08      0x7e4 build/debug/production/src/fdxb.o
                0x9d03fb08                fdxb_get_uid
                0x9d03fb40                uid_to_fdxb_hex
                0x9d03fbb4                uid_to_fdxb_bin
                0x9d03fecc                fdxb_hex_to_uid
                0x9d040020                fdxb_hex_to_bin

.rodata         0x9d0402ec      0x7d4
 .rodata        0x9d0402ec      0x7d4 /opt/microchip/xc32/v1.33/pic32mx/lib/libmchp_peripheral_32MX795F512L.a(int_tbl_lib.o)
                0x9d0402ec                __IntSrcTbl
                0x9d040808                __IntVectorTbl

.text           0x9d040ac0     0x2850
 .text          0x9d040ac0      0x790 build/debug/production/src/nvm.o
                0x9d040ac0                saveconfig
                0x9d040b3c                checkconfigchanged
                0x9d040bc8                loadconfig
                0x9d040c98                wipeconfig
                0x9d040d08                showconfig
 .text          0x9d041250      0x6c4 build/debug/production/src/sniff.o
                0x9d041250                sniff_pwm
                0x9d0414a8                decode_pwm
                0x9d04160c                generic_decode_pwm
 .text          0x9d041914      0x618 build/debug/production/src/awid.o
                0x9d041914                bcd_to_awid26_hex
                0x9d04197c                awid26_hex_to_uid
                0x9d041c7c                bcd_to_awid26_bin
                0x9d041ef4                awid26_get_uid
 .text          0x9d041f2c      0x598 build/debug/production/src/mcp414x.o
                0x9d041f2c                send_mcp414_command
                0x9d042048                get_mcp414_status
                0x9d04209c                increment_mcp414
                0x9d04211c                decrement_mcp414
                0x9d04219c                get_mcp414_wiper
                0x9d04225c                set_mcp414_wiper
                0x9d04231c                show_mcp414_wipers
 .text          0x9d0424c4      0x4d8 build/debug/production/src/iso7816.o
                0x9d0424c4                send_iso_7816_apdu
                0x9d04269c                iso_7816_send_hex_apdu
                0x9d0428d8                iso_7816_output
 .text          0x9d04299c      0x4bc build/debug/production/src/uid.o
                0x9d04299c                get_tag_uid
                0x9d042b78                interpret_uid
                0x9d042dd0                get_interpreted_tag_uid
 .text          0x9d042e58      0x4b8 build/debug/production/src/led.o
                0x9d042e58                led_get
                0x9d042fa0                led_set
                0x9d043228                led_toggle
                0x9d043288                led_on
                0x9d0432cc                led_off

.text.dp32mul   0x9d043310      0x4b8
 .text.dp32mul  0x9d043310      0x4b8 /opt/microchip/xc32/v1.33/bin/bin/../../lib/gcc/pic32mx/4.5.2/../../../../pic32mx/lib/libm.a(dp32div.o)
                0x9d043310                __divdf3
                0x9d043310                dpdiv

.text           0x9d0437c8     0x113c
 .text          0x9d0437c8      0x460 build/debug/production/src/indala.o
                0x9d0437c8                send_indala_raw
                0x9d043ae8                indala64_get_uid
                0x9d043b20                indala64_hex_to_uid
                0x9d043b88                indala224_get_uid
                0x9d043bc0                indala224_hex_to_uid
 .text          0x9d043c28      0x45c /opt/microchip/xc32/v1.33/bin/bin/../../lib/gcc/pic32mx/4.5.2/libgcc.a(_umoddi3.o)
                0x9d043c28                __umoddi3
 .text          0x9d044084      0x44c /opt/microchip/xc32/v1.33/bin/bin/../../lib/gcc/pic32mx/4.5.2/libgcc.a(_udivdi3.o)
                0x9d044084                __udivdi3
 .text          0x9d0444d0      0x434 build/debug/production/src/debug_pins.o
                0x9d0444d0                debug_get
                0x9d0445c8                debug_set
                0x9d04476c                debug_toggle
                0x9d0447cc                debug_on
                0x9d044810                debug_off
                0x9d044854                debug_show

.text.dp32subadd
                0x9d044904      0x430
 .text.dp32subadd
                0x9d044904      0x430 /opt/microchip/xc32/v1.33/bin/bin/../../lib/gcc/pic32mx/4.5.2/../../../../pic32mx/lib/libm.a(dp32subadd.o)
                0x9d044904                dpsub
                0x9d044904                __subdf3
                0x9d04490c                dpadd
                0x9d04490c                __adddf3

.text           0x9d044d34      0xbe4
 .text          0x9d044d34      0x40c build/debug/production/src/config.o
                0x9d044d34                config_block_number
                0x9d044e00                config_user_block
                0x9d044ee0                config_pw_block
                0x9d044f80                get_config_block
                0x9d045000                config_block
                0x9d0450bc                config_block_show
 .text          0x9d045140      0x3f4 build/debug/production/src/auto.o
                0x9d045140                autopot
                0x9d0452d0                autorate
 .text          0x9d045534      0x3e4 build/debug/production/src/uart3.o
                0x9d045534                UART3GetBaudError
                0x9d045564                UART3GetChar
                0x9d0455bc                UART3Init
                0x9d045658                UART3IsPressed
                0x9d04569c                UART3PrintString
                0x9d04570c                UART3PutChar
                0x9d045758                UART3PutDec
                0x9d0458d4                UART3ClrError

.text.__strtod  0x9d045918      0x3e4
 .text.__strtod
                0x9d045918      0x3e4 /opt/microchip/xc32/v1.33/bin/bin/../../lib/gcc/pic32mx/4.5.2/../../../../pic32mx/lib/libm.a(__strtod.o)
                0x9d045918                __strtod

.rodata         0x9d045cfc      0x3b8
 .rodata        0x9d045cfc      0x3b8 build/debug/production/src/nvm.o

.text           0x9d0460b4      0x394
 .text          0x9d0460b4      0x394 build/debug/production/src/rwd.o
                0x9d0460b4                rwd_set_pwm
                0x9d046164                rwd_send
                0x9d046388                rwd_test

.text.__strtof  0x9d046448      0x360
 .text.__strtof
                0x9d046448      0x360 /opt/microchip/xc32/v1.33/bin/bin/../../lib/gcc/pic32mx/4.5.2/../../../../pic32mx/lib/libm.a(__strtof.o)
                0x9d046448                __strtof

.text           0x9d0467a8      0x6a4
 .text          0x9d0467a8      0x358 build/debug/production/src/hid.o
                0x9d0467a8                bcd_to_hid26_hex
                0x9d046810                hid26_hex_to_uid
                0x9d046938                bcd_to_hid26_bin
                0x9d046ac8                hid26_get_uid
 .text          0x9d046b00      0x34c build/debug/production/src/emulate.o
                0x9d046b00                emulate_tag

.text.dp32mul   0x9d046e4c      0x32c
 .text.dp32mul  0x9d046e4c      0x32c /opt/microchip/xc32/v1.33/bin/bin/../../lib/gcc/pic32mx/4.5.2/../../../../pic32mx/lib/libm.a(dp32mul.o)
                0x9d046e4c                dpmul
                0x9d046e4c                __muldf3

.text           0x9d047178      0x31c
 .text          0x9d047178      0x31c build/debug/production/src/spi.o
                0x9d047178                initSpiTransfer
                0x9d0471dc                initSpiTransfer16
                0x9d047238                sendSpiCommand
                0x9d047348                sendSpiCommand16
                0x9d047458                pauseSpi

.rodata         0x9d047494      0x2e8
 .rodata        0x9d047494      0x2e8 build/debug/production/src/t55x7.o

.text           0x9d04777c      0x554
 .text          0x9d04777c      0x2b0 build/debug/production/src/unique.o
                0x9d04777c                unique_get_uid
                0x9d0477b4                unique_hex_to_uid
                0x9d0477f4                hex_to_unique_hex
                0x9d04785c                unique_hex_to_hex
                0x9d047904                hex_to_unique_bin
 .text          0x9d047a2c      0x2a4 build/debug/production/src/sdcard.o
                0x9d047a2c                sdcard_test

.text.scale     0x9d047cd0      0x2a0
 .text.scale    0x9d047cd0      0x2a0 /opt/microchip/xc32/v1.33/bin/bin/../../lib/gcc/pic32mx/4.5.2/../../../../pic32mx/lib/libc.a(doprnt.o)

.text.fpsubadd  0x9d047f70      0x278
 .text.fpsubadd
                0x9d047f70      0x278 /opt/microchip/xc32/v1.33/bin/bin/../../lib/gcc/pic32mx/4.5.2/../../../../pic32mx/lib/libm.a(fp32subadd.o)
                0x9d047f70                fpsub
                0x9d047f70                __subsf3
                0x9d047f78                fpadd
                0x9d047f78                __addsf3

.text           0x9d0481e8      0x234
 .text          0x9d0481e8      0x234 build/debug/production/src/read.o
                0x9d0481e8                read_tag

.text.fp32div   0x9d04841c      0x230
 .text.fp32div  0x9d04841c      0x230 /opt/microchip/xc32/v1.33/bin/bin/../../lib/gcc/pic32mx/4.5.2/../../../../pic32mx/lib/libm.a(fp32div.o)
                0x9d04841c                __divsf3
                0x9d04841c                fpdiv

.rodata         0x9d04864c      0x228
 .rodata        0x9d04864c      0x228 build/debug/production/src/analogue.o

.text.__floatdisf
                0x9d048874      0x220
 .text.__floatdisf
                0x9d048874      0x220 /opt/microchip/xc32/v1.33/bin/bin/../../lib/gcc/pic32mx/4.5.2/../../../../pic32mx/lib/libe.a(_floatdisf.o)
                0x9d048874                __floatdisf

.text           0x9d048a94      0x21c
 .text          0x9d048a94      0x21c build/debug/production/src/detect.o
                0x9d048a94                detect_external_clock

.rodata         0x9d048cb0      0x218
 .rodata        0x9d048cb0      0x218 build/debug/production/src/q5.o

.text.__ldexp   0x9d048ec8      0x1d4
 .text.__ldexp  0x9d048ec8      0x1d4 /opt/microchip/xc32/v1.33/bin/bin/../../lib/gcc/pic32mx/4.5.2/../../../../pic32mx/lib/libe.a(_ldexp.o)
                0x9d048ec8                __ldexp

.rodata         0x9d04909c      0x1c0
 .rodata        0x9d04909c      0x1c0 build/debug/production/src/hitag.o

.text.fp32mul   0x9d04925c      0x1bc
 .text.fp32mul  0x9d04925c      0x1bc /opt/microchip/xc32/v1.33/bin/bin/../../lib/gcc/pic32mx/4.5.2/../../../../pic32mx/lib/libm.a(fp32mul.o)
                0x9d04925c                fpmul
                0x9d04925c                __mulsf3

.text.fround    0x9d049418      0x1a4
 .text.fround   0x9d049418      0x1a4 /opt/microchip/xc32/v1.33/bin/bin/../../lib/gcc/pic32mx/4.5.2/../../../../pic32mx/lib/libc.a(doprnt.o)

.text           0x9d0495bc      0x1a0
 .text          0x9d0495bc      0x1a0 /opt/microchip/xc32/v1.33/bin/bin/../../lib/gcc/pic32mx/4.5.2/../../../../pic32mx/lib/libpic32.a(strcpy.o)
                0x9d0495bc                strcpy

.text._filbuf   0x9d04975c      0x188
 .text._filbuf  0x9d04975c      0x188 /opt/microchip/xc32/v1.33/bin/bin/../../lib/gcc/pic32mx/4.5.2/../../../../pic32mx/lib/libc.a(filbuf.o)
                0x9d04975c                _filbuf

.text.read      0x9d0498e4      0x174
 .text.read     0x9d0498e4      0x174 /opt/microchip/xc32/v1.33/bin/bin/../../lib/gcc/pic32mx/4.5.2/../../../../pic32mx/lib/libpic32.a(read.o)
                0x9d0498e4                read

.text           0x9d049a58      0x170
 .text          0x9d049a58      0x170 build/debug/production/src/write.o
                0x9d049a58                write_tag

.text.NVMProgram
                0x9d049bc8      0x168
 .text.NVMProgram
                0x9d049bc8      0x168 /opt/microchip/xc32/v1.33/pic32mx/lib/libmchp_peripheral_32MX795F512L.a(nvm_program_lib.o)
                0x9d049bc8                NVMProgram

.text           0x9d049d30      0x2d0
 .text          0x9d049d30      0x168 /opt/microchip/xc32/v1.33/bin/bin/../../lib/gcc/pic32mx/4.5.2/../../../../pic32mx/lib/libpic32.a(memcpy.o)
                0x9d049d30                memcpy
 .text          0x9d049e98      0x168 /opt/microchip/xc32/v1.33/bin/bin/../../lib/gcc/pic32mx/4.5.2/../../../../pic32mx/lib/libpic32.a(strlen.o)
                0x9d049e98                strlen

.text.fputc     0x9d04a000      0x15c
 .text.fputc    0x9d04a000      0x15c /opt/microchip/xc32/v1.33/bin/bin/../../lib/gcc/pic32mx/4.5.2/../../../../pic32mx/lib/libc.a(_fputc_simple.o)
                0x9d04a000                fputc

.text.SpiChnOpen
                0x9d04a15c      0x150
 .text.SpiChnOpen
                0x9d04a15c      0x150 /opt/microchip/xc32/v1.33/pic32mx/lib/libmchp_peripheral_32MX795F512L.a(spi_chn_open_lib.o)
                0x9d04a15c                SpiChnOpen

.text           0x9d04a2ac      0x134
 .text          0x9d04a2ac      0x134 build/debug/production/src/usb_descriptors.o
                0x9d04a2ac                MakeUSBSerialNumberFromEMAC

.rodata         0x9d04a3e0      0x130
 .rodata        0x9d04a3e0      0x130 build/debug/production/src/mcp414x.o

.text._flsbuf   0x9d04a510      0x12c
 .text._flsbuf  0x9d04a510      0x12c /opt/microchip/xc32/v1.33/bin/bin/../../lib/gcc/pic32mx/4.5.2/../../../../pic32mx/lib/libc.a(_flsbuf_simple.o)
                0x9d04a510                _flsbuf

.text           0x9d04a63c      0x120
 .text          0x9d04a63c      0x120 /opt/microchip/xc32/v1.33/bin/bin/../../lib/gcc/pic32mx/4.5.2/../../../../pic32mx/lib/libpic32.a(strcmp.o)
                0x9d04a63c                strcmp

.text._NVMOperation
                0x9d04a75c      0x114
 .text._NVMOperation
                0x9d04a75c      0x114 /opt/microchip/xc32/v1.33/pic32mx/lib/libmchp_peripheral_32MX795F512L.a(nvm_operation_lib.o)
                0x9d04a75c                _NVMOperation

.text.fgetc     0x9d04a870      0x108
 .text.fgetc    0x9d04a870      0x108 /opt/microchip/xc32/v1.33/bin/bin/../../lib/gcc/pic32mx/4.5.2/../../../../pic32mx/lib/libc.a(fgetc.o)
                0x9d04a870                fgetc

.rodata         0x9d04a978      0x208
 .rodata        0x9d04a978      0x104 build/debug/production/src/tags.o
 .rodata        0x9d04aa7c      0x104 /opt/microchip/xc32/v1.33/bin/bin/../../lib/gcc/pic32mx/4.5.2/../../../../pic32mx/lib/libc.a(ctype.o)
                0x9d04aa7c                _ctype

.text.__ldexpf  0x9d04ab80      0x104
 .text.__ldexpf
                0x9d04ab80      0x104 /opt/microchip/xc32/v1.33/bin/bin/../../lib/gcc/pic32mx/4.5.2/../../../../pic32mx/lib/libe.a(_ldexpf.o)
                0x9d04ab80                __ldexpf

.text.dptofp    0x9d04ac84      0x100
 .text.dptofp   0x9d04ac84      0x100 /opt/microchip/xc32/v1.33/bin/bin/../../lib/gcc/pic32mx/4.5.2/../../../../pic32mx/lib/libm.a(dptofp.o)
                0x9d04ac84                dptofp
                0x9d04ac84                __truncdfsf2

.rodata.sdmmc_cmdtable.sdmmc_cmdtable
                0x9d04ad84       0xf0
 .rodata.sdmmc_cmdtable.sdmmc_cmdtable
                0x9d04ad84       0xf0 build/debug/production/_ext/1209914024/SD-SPI.o
                0x9d04ad84                sdmmc_cmdtable

.rodata         0x9d04ae78      0x1c4
 .rodata        0x9d04ae78       0xe8 /opt/microchip/xc32/v1.33/bin/bin/../../lib/gcc/pic32mx/4.5.2/../../../../pic32mx/lib/libc.a(doprnt.o)
 .rodata        0x9d04af60       0xdc build/debug/production/src/vtag.o

.text.general_exception
                0x9d04b03c       0xdc
 .text.general_exception
                0x9d04b03c       0xdc /opt/microchip/xc32/v1.33/bin/bin/../../lib/gcc/pic32mx/4.5.2/../../../../pic32mx/lib/libpic32.a(general-exception.o)
                0x9d04b03c                _general_exception_context

.text           0x9d04b118       0xd4
 .text          0x9d04b118       0xd4 /opt/microchip/xc32/v1.33/bin/bin/../../lib/gcc/pic32mx/4.5.2/libgcc.a(_floatundisf.o)
                0x9d04b118                __floatundisf

.rodata         0x9d04b1f0       0xd0
 .rodata        0x9d04b1f0       0xd0 /opt/microchip/xc32/v1.33/bin/bin/../../lib/gcc/pic32mx/4.5.2/../../../../pic32mx/lib/libc.a(doprnt_cdnopuxX.eo)

.text.SpiChnClose
                0x9d04b2c0       0xbc
 .text.SpiChnClose
                0x9d04b2c0       0xbc /opt/microchip/xc32/v1.33/pic32mx/lib/libmchp_peripheral_32MX795F512L.a(spi_chn_close_lib.o)
                0x9d04b2c0                SpiChnClose

.text._mon_putc
                0x9d04b37c       0xb4
 .text._mon_putc
                0x9d04b37c       0xb4 /opt/microchip/xc32/v1.33/bin/bin/../../lib/gcc/pic32mx/4.5.2/../../../../pic32mx/lib/libpic32.a(_mon_putc.o)
                0x9d04b37c                _mon_putc

.text.fptodp    0x9d04b430       0xac
 .text.fptodp   0x9d04b430       0xac /opt/microchip/xc32/v1.33/bin/bin/../../lib/gcc/pic32mx/4.5.2/../../../../pic32mx/lib/libm.a(fptodp.o)
                0x9d04b430                __extendsfdf2
                0x9d04b430                fptodp

.text           0x9d04b4dc       0xa8
 .text          0x9d04b4dc       0xa8 /opt/microchip/xc32/v1.33/bin/bin/../../lib/gcc/pic32mx/4.5.2/../../../../pic32mx/lib/libpic32.a(memset.o)
                0x9d04b4dc                memset

.text.atoi      0x9d04b584       0xa8
 .text.atoi     0x9d04b584       0xa8 /opt/microchip/xc32/v1.33/bin/bin/../../lib/gcc/pic32mx/4.5.2/../../../../pic32mx/lib/libc.a(atoi.o)
                0x9d04b584                atoi

.text           0x9d04b62c       0xa4
 .text          0x9d04b62c       0xa4 build/debug/production/src/select.o
                0x9d04b62c                select_tag

.rodata         0x9d04b6d0       0xa0
 .rodata        0x9d04b6d0       0xa0 /opt/microchip/xc32/v1.33/pic32mx/lib/libmchp_peripheral_32MX795F512L.a(spi_io_tbl_libp.o)
                0x9d04b6d0                _SpiIoTbl

.text.range     0x9d04b770       0xa0
 .text.range    0x9d04b770       0xa0 /opt/microchip/xc32/v1.33/bin/bin/../../lib/gcc/pic32mx/4.5.2/../../../../pic32mx/lib/libc.a(doscan_cdfFnopsuxX.eo)

.rodata         0x9d04b810       0x9c
 .rodata        0x9d04b810       0x9c build/debug/production/src/util.o

.text.fpcmp     0x9d04b8ac       0x9c
 .text.fpcmp    0x9d04b8ac       0x9c /opt/microchip/xc32/v1.33/bin/bin/../../lib/gcc/pic32mx/4.5.2/../../../../pic32mx/lib/libm.a(fpcmp.o)
                0x9d04b8ac                __ltsf2
                0x9d04b8ac                __eqsf2
                0x9d04b8ac                __lesf2
                0x9d04b8ac                __gtsf2
                0x9d04b8ac                __nesf2
                0x9d04b8ac                fpcmp
                0x9d04b8ac                __gesf2

.text           0x9d04b948       0x98
 .text          0x9d04b948       0x98 /opt/microchip/xc32/v1.33/bin/bin/../../lib/gcc/pic32mx/4.5.2/../../../../pic32mx/lib/libpic32.a(memcmp.o)
                0x9d04b948                memcmp

.text.rand      0x9d04b9e0       0x98
 .text.rand     0x9d04b9e0       0x98 /opt/microchip/xc32/v1.33/bin/bin/../../lib/gcc/pic32mx/4.5.2/../../../../pic32mx/lib/libc.a(rand.o)
                0x9d04b9e0                rand

.rodata         0x9d04ba78       0x94
 .rodata        0x9d04ba78       0x94 build/debug/production/src/sdcard.o

.text.fflush    0x9d04bb0c       0x94
 .text.fflush   0x9d04bb0c       0x94 /opt/microchip/xc32/v1.33/bin/bin/../../lib/gcc/pic32mx/4.5.2/../../../../pic32mx/lib/libc.a(fflush.o)
                0x9d04bb0c                fflush

.text.write     0x9d04bba0       0x94
 .text.write    0x9d04bba0       0x94 /opt/microchip/xc32/v1.33/bin/bin/../../lib/gcc/pic32mx/4.5.2/../../../../pic32mx/lib/libpic32.a(write.o)
                0x9d04bba0                write

.text           0x9d04bc34       0x8c
 .text          0x9d04bc34       0x8c build/debug/production/src/login.o
                0x9d04bc34                tag_login

.text.libm      0x9d04bcc0       0x88
 .text.libm     0x9d04bcc0       0x88 /opt/microchip/xc32/v1.33/bin/bin/../../lib/gcc/pic32mx/4.5.2/../../../../pic32mx/lib/libm.a(fpfrexp.o)
                0x9d04bcc0                fpfrexp
                0x9d04bcc0                frexpf

.rodata         0x9d04bd48      0x104
 .rodata        0x9d04bd48       0x84 build/debug/production/src/clock.o
 .rodata        0x9d04bdcc       0x80 /opt/microchip/xc32/v1.33/pic32mx/lib/libmchp_peripheral_32MX795F512L.a(spi_brg_tbl_lib_legacy.o)
                0x9d04bdcc                _SpiBrgConvTbl

.text.fptoli    0x9d04be4c       0x80
 .text.fptoli   0x9d04be4c       0x80 /opt/microchip/xc32/v1.33/bin/bin/../../lib/gcc/pic32mx/4.5.2/../../../../pic32mx/lib/libm.a(fptoli.o)
                0x9d04be4c                __fixsfsi
                0x9d04be4c                fptoli
                0x9d04be4c                fptosi

.text.fptoul    0x9d04becc       0x7c
 .text.fptoul   0x9d04becc       0x7c /opt/microchip/xc32/v1.33/bin/bin/../../lib/gcc/pic32mx/4.5.2/../../../../pic32mx/lib/libm.a(fptoul.o)
                0x9d04becc                __fixunssfsi
                0x9d04becc                fptoul
                0x9d04becc                fptoui

.text.SoftReset
                0x9d04bf48       0x78
 .text.SoftReset
                0x9d04bf48       0x78 /opt/microchip/xc32/v1.33/pic32mx/lib/libmchp_peripheral_32MX795F512L.a(soft_reset_lib.o)
                0x9d04bf48                SoftReset

.text.strncmp   0x9d04bfc0       0x78
 .text.strncmp  0x9d04bfc0       0x78 /opt/microchip/xc32/v1.33/bin/bin/../../lib/gcc/pic32mx/4.5.2/../../../../pic32mx/lib/libc.a(strncmp.o)
                0x9d04bfc0                strncmp

.text.litodp    0x9d04c038       0x78
 .text.litodp   0x9d04c038       0x78 /opt/microchip/xc32/v1.33/bin/bin/../../lib/gcc/pic32mx/4.5.2/../../../../pic32mx/lib/libm.a(litodp.o)
                0x9d04c038                litodp
                0x9d04c038                __floatsidf

.text.ungetc    0x9d04c0b0       0x74
 .text.ungetc   0x9d04c0b0       0x74 /opt/microchip/xc32/v1.33/bin/bin/../../lib/gcc/pic32mx/4.5.2/../../../../pic32mx/lib/libc.a(ungetc.o)
                0x9d04c0b0                ungetc

.text           0x9d04c124       0x6c
 .text          0x9d04c124       0x6c build/debug/production/src/auth.o
                0x9d04c124                tag_auth

.rodata         0x9d04c190       0x68
 .rodata        0x9d04c190       0x68 build/debug/production/src/wiegand.o

.text._sprintf_cdnopuxX
                0x9d04c1f8       0x68
 .text._sprintf_cdnopuxX
                0x9d04c1f8       0x68 /opt/microchip/xc32/v1.33/bin/bin/../../lib/gcc/pic32mx/4.5.2/../../../../pic32mx/lib/libc.a(sprintf_cdnopuxX.eo)
                0x9d04c1f8                _sprintf_cdnopuxX

.text.sprintf   0x9d04c260       0x68
 .text.sprintf  0x9d04c260       0x68 /opt/microchip/xc32/v1.33/bin/bin/../../lib/gcc/pic32mx/4.5.2/../../../../pic32mx/lib/libc.a(sprintf.o)
                0x9d04c260                sprintf

.rodata         0x9d04c2c8       0xcc
 .rodata        0x9d04c2c8       0x68 /opt/microchip/xc32/v1.33/bin/bin/../../lib/gcc/pic32mx/4.5.2/../../../../pic32mx/lib/libc.a(powersf.o)
                0x9d04c2c8                _powers_f
                0x9d04c2fc                _npowers_f
 .rodata        0x9d04c330       0x64 build/debug/production/src/auto.o

.text._vsnprintf_cdnopuxX
                0x9d04c394       0x64
 .text._vsnprintf_cdnopuxX
                0x9d04c394       0x64 /opt/microchip/xc32/v1.33/bin/bin/../../lib/gcc/pic32mx/4.5.2/../../../../pic32mx/lib/libc.a(vsnprintf_cdnopuxX.eo)
                0x9d04c394                _vsnprintf_cdnopuxX

.text.vsnprintf
                0x9d04c3f8       0x64
 .text.vsnprintf
                0x9d04c3f8       0x64 /opt/microchip/xc32/v1.33/bin/bin/../../lib/gcc/pic32mx/4.5.2/../../../../pic32mx/lib/libc.a(vsnprintf.o)
                0x9d04c3f8                vsnprintf

.text.OpenSPI1  0x9d04c45c       0x60
 .text.OpenSPI1
                0x9d04c45c       0x60 /opt/microchip/xc32/v1.33/pic32mx/lib/libmchp_peripheral_32MX795F512L.a(spi_open_spi1_lib_legacy.o)
                0x9d04c45c                OpenSPI1

.text.wspace    0x9d04c4bc       0x60
 .text.wspace   0x9d04c4bc       0x60 /opt/microchip/xc32/v1.33/bin/bin/../../lib/gcc/pic32mx/4.5.2/../../../../pic32mx/lib/libc.a(doscan_cdfFnopsuxX.eo)

.text.sitofp    0x9d04c51c       0x60
 .text.sitofp   0x9d04c51c       0x60 /opt/microchip/xc32/v1.33/bin/bin/../../lib/gcc/pic32mx/4.5.2/../../../../pic32mx/lib/libm.a(sitofp.o)
                0x9d04c51c                __floatsisf
                0x9d04c51c                sitofp
                0x9d04c51c                litofp

.text.INTEnable
                0x9d04c57c       0x58
 .text.INTEnable
                0x9d04c57c       0x58 /opt/microchip/xc32/v1.33/pic32mx/lib/libmchp_peripheral_32MX795F512L.a(int_tbl_lib.o)
                0x9d04c57c                INTEnable

.text.strncpy   0x9d04c5d4       0x58
 .text.strncpy  0x9d04c5d4       0x58 /opt/microchip/xc32/v1.33/bin/bin/../../lib/gcc/pic32mx/4.5.2/../../../../pic32mx/lib/libc.a(strncpy.o)
                0x9d04c5d4                strncpy

.rodata         0x9d04c62c       0x54
 .rodata        0x9d04c62c       0x54 /opt/microchip/xc32/v1.33/pic32mx/lib/libmchp_peripheral_32MX795F512L.a(_ports_tbl_libp.o)
                0x9d04c62c                PortRegTbl

.text._sscanf_cdfFnopsuxX
                0x9d04c680       0x54
 .text._sscanf_cdfFnopsuxX
                0x9d04c680       0x54 /opt/microchip/xc32/v1.33/bin/bin/../../lib/gcc/pic32mx/4.5.2/../../../../pic32mx/lib/libc.a(sscanf_cdfFnopsuxX.eo)
                0x9d04c680                _sscanf_cdfFnopsuxX
                0x9d04c680                _sscanf_cdnopuxX

.text.main_entry
                0x9d04c6d4       0x4c
 .text.main_entry
                0x9d04c6d4       0x4c /opt/microchip/xc32/v1.33/bin/bin/../../lib/gcc/pic32mx/4.5.2/../../../../pic32mx/lib/./proc/32MX795F512L/crt0_mips32r2.o
                0x9d04c700                __crt0_exit

.rodata         0x9d04c720       0x4c
 .rodata        0x9d04c720       0x4c build/debug/production/src/comms.o

.text           0x9d04c76c       0x4c
 .text          0x9d04c76c       0x4c /opt/microchip/xc32/v1.33/bin/bin/../../lib/gcc/pic32mx/4.5.2/libgcc.a(floatunsisf.o)
                0x9d04c76c                __floatunsisf

.text._bootstrap_exception_handler
                0x9d04c7b8       0x48
 .text._bootstrap_exception_handler
                0x9d04c7b8       0x48 /opt/microchip/xc32/v1.33/bin/bin/../../lib/gcc/pic32mx/4.5.2/../../../../pic32mx/lib/libpic32.a(default-bootstrap-exception-handler.o)
                0x9d04c7b8                _bootstrap_exception_handler

.text._general_exception_handler
                0x9d04c800       0x48
 .text._general_exception_handler
                0x9d04c800       0x48 /opt/microchip/xc32/v1.33/bin/bin/../../lib/gcc/pic32mx/4.5.2/../../../../pic32mx/lib/libpic32.a(default-general-exception-handler.o)
                0x9d04c800                _general_exception_handler

.rodata         0x9d04c848       0x48
 .rodata        0x9d04c848       0x48 /opt/microchip/xc32/v1.33/bin/bin/../../lib/gcc/pic32mx/4.5.2/../../../../pic32mx/lib/libm.a(__strtod.o)

.rodata.configDescriptor1.configDescriptor1
                0x9d04c890       0x44
 .rodata.configDescriptor1.configDescriptor1
                0x9d04c890       0x44 build/debug/production/src/usb_descriptors.o
                0x9d04c890                configDescriptor1

.text           0x9d04c8d4       0xcc
 .text          0x9d04c8d4       0x44 /opt/microchip/xc32/v1.33/bin/bin/../../lib/gcc/pic32mx/4.5.2/../../../../pic32mx/lib/pic32_software_reset.o
                0x9d04c8d4                __pic32_software_reset
 .text          0x9d04c918       0x44 /opt/microchip/xc32/v1.33/bin/bin/../../lib/gcc/pic32mx/4.5.2/libgcc.a(_lshrdi3.o)
                0x9d04c918                __lshrdi3
 .text          0x9d04c95c       0x44 /opt/microchip/xc32/v1.33/bin/bin/../../lib/gcc/pic32mx/4.5.2/libgcc.a(_ashldi3.o)
                0x9d04c95c                __ashldi3

.rodata         0x9d04c9a0       0x80
 .rodata        0x9d04c9a0       0x40 build/debug/production/src/hid.o
 .rodata        0x9d04c9e0       0x40 build/debug/production/src/awid.o

.text.PORTSetPinsDigitalIn
                0x9d04ca20       0x40
 .text.PORTSetPinsDigitalIn
                0x9d04ca20       0x40 /opt/microchip/xc32/v1.33/pic32mx/lib/libmchp_peripheral_32MX795F512L.a(port_set_pins_digital_in_lib.o)
                0x9d04ca20                PORTSetPinsDigitalIn

.text.PORTSetPinsDigitalOut
                0x9d04ca60       0x40
 .text.PORTSetPinsDigitalOut
                0x9d04ca60       0x40 /opt/microchip/xc32/v1.33/pic32mx/lib/libmchp_peripheral_32MX795F512L.a(port_set_pins_digital_out_lib.o)
                0x9d04ca60                PORTSetPinsDigitalOut

.text.NVMWriteRow
                0x9d04caa0       0x38
 .text.NVMWriteRow
                0x9d04caa0       0x38 /opt/microchip/xc32/v1.33/pic32mx/lib/libmchp_peripheral_32MX795F512L.a(nvm_write_row_lib.o)
                0x9d04caa0                NVMWriteRow

.vector_default
                0x9d04cad8       0x38
 .vector_default
                0x9d04cad8       0x38 /opt/microchip/xc32/v1.33/bin/bin/../../lib/gcc/pic32mx/4.5.2/../../../../pic32mx/lib/libpic32.a(defaultinterrupt.o)
                0x9d04cad8                _DefaultInterrupt

.text.INTEnableSystemMultiVectoredInt
                0x9d04cb10       0x34
 .text.INTEnableSystemMultiVectoredInt
                0x9d04cb10       0x34 /opt/microchip/xc32/v1.33/pic32mx/lib/libmchp_peripheral_32MX795F512L.a(int_enable_mv_int_lib.o)
                0x9d04cb10                INTEnableSystemMultiVectoredInt

.text.INTConfigureSystem
                0x9d04cb44       0x30
 .text.INTConfigureSystem
                0x9d04cb44       0x30 /opt/microchip/xc32/v1.33/pic32mx/lib/libmchp_peripheral_32MX795F512L.a(int_configure_system_lib.o)
                0x9d04cb44                INTConfigureSystem

.text.INTClearFlag
                0x9d04cb74       0x2c
 .text.INTClearFlag
                0x9d04cb74       0x2c /opt/microchip/xc32/v1.33/pic32mx/lib/libmchp_peripheral_32MX795F512L.a(int_tbl_lib.o)
                0x9d04cb74                INTClearFlag

.text.NVMErasePage
                0x9d04cba0       0x2c
 .text.NVMErasePage
                0x9d04cba0       0x2c /opt/microchip/xc32/v1.33/pic32mx/lib/libmchp_peripheral_32MX795F512L.a(nvm_erase_page_lib.o)
                0x9d04cba0                NVMErasePage

.text.PORTResetPins
                0x9d04cbcc       0x2c
 .text.PORTResetPins
                0x9d04cbcc       0x2c /opt/microchip/xc32/v1.33/pic32mx/lib/libmchp_peripheral_32MX795F512L.a(port_reset_pins_lib.o)
                0x9d04cbcc                PORTResetPins

.rodata.sd001.sd001
                0x9d04cbf8       0x28
 .rodata.sd001.sd001
                0x9d04cbf8       0x28 build/debug/production/src/usb_descriptors.o
                0x9d04cbf8                sd001

.text._snprintf_cdnopuxX
                0x9d04cc20       0x28
 .text._snprintf_cdnopuxX
                0x9d04cc20       0x28 /opt/microchip/xc32/v1.33/bin/bin/../../lib/gcc/pic32mx/4.5.2/../../../../pic32mx/lib/libc.a(snprintf_cdnopuxX.eo)
                0x9d04cc20                _snprintf_cdnopuxX

.text.snprintf  0x9d04cc48       0x28
 .text.snprintf
                0x9d04cc48       0x28 /opt/microchip/xc32/v1.33/bin/bin/../../lib/gcc/pic32mx/4.5.2/../../../../pic32mx/lib/libc.a(snprintf.o)
                0x9d04cc48                snprintf

.text.strtod    0x9d04cc70       0x28
 .text.strtod   0x9d04cc70       0x28 /opt/microchip/xc32/v1.33/bin/bin/../../lib/gcc/pic32mx/4.5.2/../../../../pic32mx/lib/libc.a(strtod.o)
                0x9d04cc70                strtod

.text.tolower   0x9d04cc98       0x24
 .text.tolower  0x9d04cc98       0x24 /opt/microchip/xc32/v1.33/bin/bin/../../lib/gcc/pic32mx/4.5.2/../../../../pic32mx/lib/libc.a(ctypef.o)
                0x9d04cc98                tolower

.text.toupper   0x9d04ccbc       0x24
 .text.toupper  0x9d04ccbc       0x24 /opt/microchip/xc32/v1.33/bin/bin/../../lib/gcc/pic32mx/4.5.2/../../../../pic32mx/lib/libc.a(ctypef.o)
                0x9d04ccbc                toupper

.rodata         0x9d04cce0       0x40
 .rodata        0x9d04cce0       0x20 build/debug/production/src/debug_pins.o
 .rodata        0x9d04cd00       0x20 build/debug/production/src/sniff.o

.text.getcSPI1  0x9d04cd20       0x20
 .text.getcSPI1
                0x9d04cd20       0x20 /opt/microchip/xc32/v1.33/pic32mx/lib/libmchp_peripheral_32MX795F512L.a(spi_getc_spi1_lib_legacy.o)
                0x9d04cd20                getcSPI1

.rodata         0x9d04cd40       0x1c
 .rodata        0x9d04cd40       0x1c build/debug/production/src/detect.o

.text.INTRestoreInterrupts
                0x9d04cd5c       0x1c
 .text.INTRestoreInterrupts
                0x9d04cd5c       0x1c /opt/microchip/xc32/v1.33/pic32mx/lib/libmchp_peripheral_32MX795F512L.a(int_restore_interrupts_lib.o)
                0x9d04cd5c                INTRestoreInterrupts

.text.srand     0x9d04cd78       0x1c
 .text.srand    0x9d04cd78       0x1c /opt/microchip/xc32/v1.33/bin/bin/../../lib/gcc/pic32mx/4.5.2/../../../../pic32mx/lib/libc.a(rand.o)
                0x9d04cd78                srand

.text.strtof    0x9d04cd94       0x1c
 .text.strtof   0x9d04cd94       0x1c /opt/microchip/xc32/v1.33/bin/bin/../../lib/gcc/pic32mx/4.5.2/../../../../pic32mx/lib/libc.a(strtof.o)
                0x9d04cd94                strtof

.text.negdf2    0x9d04cdb0       0x1c
 .text.negdf2   0x9d04cdb0       0x1c /opt/microchip/xc32/v1.33/bin/bin/../../lib/gcc/pic32mx/4.5.2/../../../../pic32mx/lib/libm.a(negdf2.o)
                0x9d04cdb0                __negdf2

.rodata.sd002.sd002
                0x9d04cdcc       0x18
 .rodata.sd002.sd002
                0x9d04cdcc       0x18 build/debug/production/src/usb_descriptors.o
                0x9d04cdcc                sd002

.rodata         0x9d04cde4       0x18
 .rodata        0x9d04cde4       0x18 build/debug/production/src/iso7816.o

.text.CheKseg0CacheOn
                0x9d04cdfc       0x18
 .text.CheKseg0CacheOn
                0x9d04cdfc       0x18 /opt/microchip/xc32/v1.33/pic32mx/lib/libmchp_peripheral_32MX795F512L.a(pcache.o)
                0x9d04cdfc                CheKseg0CacheOn

.text           0x9d04ce14       0x18
 .text          0x9d04ce14       0x18 /opt/microchip/xc32/v1.33/bin/bin/../../lib/gcc/pic32mx/4.5.2/../../../../pic32mx/lib/libpic32.a(default-nmi-handler.o)
                0x9d04ce14                _nmi_handler

.rodata         0x9d04ce2c       0x18
 .rodata        0x9d04ce2c       0x18 /opt/microchip/xc32/v1.33/bin/bin/../../lib/gcc/pic32mx/4.5.2/../../../../pic32mx/lib/libm.a(__strtof.o)

.rodata.device_dsc.device_dsc
                0x9d04ce44       0x14
 .rodata.device_dsc.device_dsc
                0x9d04ce44       0x14 build/debug/production/src/usb_descriptors.o
                0x9d04ce44                device_dsc

.rodata         0x9d04ce58       0x14
 .rodata        0x9d04ce58       0x14 /opt/microchip/xc32/v1.33/pic32mx/lib/libmchp_peripheral_32MX795F512L.a(spi_map_tbl_libp.o)
                0x9d04ce58                _SpiMapTbl

.text.negsf2    0x9d04ce6c       0x14
 .text.negsf2   0x9d04ce6c       0x14 /opt/microchip/xc32/v1.33/bin/bin/../../lib/gcc/pic32mx/4.5.2/../../../../pic32mx/lib/libm.a(negsf2.o)
                0x9d04ce6c                __negsf2

.rodata.USB_SD_Ptr.USB_SD_Ptr
                0x9d04ce80       0x10
 .rodata.USB_SD_Ptr.USB_SD_Ptr
                0x9d04ce80       0x10 build/debug/production/src/usb_descriptors.o
                0x9d04ce80                USB_SD_Ptr

.rodata.C.0.29271.C.0
                0x9d04ce90       0x10
 .rodata.C.0.29271.C.0
                0x9d04ce90       0x10 build/debug/production/src/hitagcrypto.o

.rodata         0x9d04cea0       0x2c
 .rodata        0x9d04cea0       0x10 build/debug/production/src/em.o
 .rodata        0x9d04ceb0       0x10 build/debug/production/src/fdxb.o
 .rodata        0x9d04cec0        0xc build/debug/production/_ext/1209914024/FSIO.o

.rodata.EM4205_Preamble.EM4205_Preamble
                0x9d04cecc        0x8
 .rodata.EM4205_Preamble.EM4205_Preamble
                0x9d04cecc        0x8 build/debug/production/src/em.o
                0x9d04cecc                EM4205_Preamble

.rodata.Hitag2Sync.Hitag2Sync
                0x9d04ced4        0x8
 .rodata.Hitag2Sync.Hitag2Sync
                0x9d04ced4        0x8 build/debug/production/src/hitag.o
                0x9d04ced4                Hitag2Sync

.rodata.T55x7_Compat_Data_Rates.T55x7_Compat_Data_Rates
                0x9d04cedc        0x8
 .rodata.T55x7_Compat_Data_Rates.T55x7_Compat_Data_Rates
                0x9d04cedc        0x8 build/debug/production/src/t55x7.o
                0x9d04cedc                T55x7_Compat_Data_Rates

.text.INTEnableInterrupts
                0x9d04cee4        0x8
 .text.INTEnableInterrupts
                0x9d04cee4        0x8 /opt/microchip/xc32/v1.33/pic32mx/lib/libmchp_peripheral_32MX795F512L.a(int_enable_interrupts_lib.o)
                0x9d04cee4                INTEnableInterrupts

.text.INTDisableInterrupts
                0x9d04ceec        0x8
 .text.INTDisableInterrupts
                0x9d04ceec        0x8 /opt/microchip/xc32/v1.33/pic32mx/lib/libmchp_peripheral_32MX795F512L.a(int_disable_interrupts_lib.o)
                0x9d04ceec                INTDisableInterrupts

.text._on_reset
                0x9d04cef4        0x8
 .text._on_reset
                0x9d04cef4        0x8 /opt/microchip/xc32/v1.33/bin/bin/../../lib/gcc/pic32mx/4.5.2/../../../../pic32mx/lib/libpic32.a(default-on-reset.o)
                0x9d04cef4                _on_reset

.text._on_bootstrap
                0x9d04cefc        0x8
 .text._on_bootstrap
                0x9d04cefc        0x8 /opt/microchip/xc32/v1.33/bin/bin/../../lib/gcc/pic32mx/4.5.2/../../../../pic32mx/lib/libpic32.a(default-on-bootstrap.o)
                0x9d04cefc                _on_bootstrap

.rodata         0x9d04cf04        0x8
 .rodata        0x9d04cf04        0x8 /opt/microchip/xc32/v1.33/bin/bin/../../lib/gcc/pic32mx/4.5.2/libgcc.a(_floatundisf.o)

.rodata.sd000.sd000
                0x9d04ae74        0x4
 .rodata.sd000.sd000
                0x9d04ae74        0x4 build/debug/production/src/usb_descriptors.o
                0x9d04ae74                sd000

.rodata.USB_CD_Ptr.USB_CD_Ptr
                0x9d04b1ec        0x4
 .rodata.USB_CD_Ptr.USB_CD_Ptr
                0x9d04b1ec        0x4 build/debug/production/src/usb_descriptors.o
                0x9d04b1ec                USB_CD_Ptr

.rodata.TimeScaler.TimeScaler
                0x9d04cf0c        0x4
 .rodata.TimeScaler.TimeScaler
                0x9d04cf0c        0x4 build/debug/production/src/clock.o
                0x9d04cf0c                TimeScaler

.rodata.TimeScaler2.TimeScaler2
                0x9d04cf10        0x4
 .rodata.TimeScaler2.TimeScaler2
                0x9d04cf10        0x4 build/debug/production/src/clock.o
                0x9d04cf10                TimeScaler2

.rodata.Hitag1ACK.Hitag1ACK
                0x9d04cf14        0x4
 .rodata.Hitag1ACK.Hitag1ACK
                0x9d04cf14        0x4 build/debug/production/src/hitag.o
                0x9d04cf14                Hitag1ACK

.rodata.C.2.29697.C.2
                0x9d04cf18        0x4
 .rodata.C.2.29697.C.2
                0x9d04cf18        0x4 build/debug/production/src/hitag.o

.rodata.C.3.29698.C.3
                0x9d04cf1c        0x4
 .rodata.C.3.29698.C.3
                0x9d04cf1c        0x4 build/debug/production/src/hitag.o

.rodata.PSK_Rates.PSK_Rates
                0x9d04cf20        0x4
 .rodata.PSK_Rates.PSK_Rates
                0x9d04cf20        0x4 build/debug/production/src/q5.o
                0x9d04cf20                PSK_Rates
